Component: ARM Compiler 5.06 update 6 (build 750) Tool: armlink [4d35ed]

==============================================================================

Section Cross References

    main.o(i._Z10publishBATv) refers to battery.o(i._ZN7Battery8get_voltEv) for Battery::get_volt()
    main.o(i._Z10publishBATv) refers to main.o(i._ZN3ros9Publisher7publishEPKNS_3MsgE) for ros::Publisher::publish(const ros::Msg*)
    main.o(i._Z10publishBATv) refers to main.o(.bss) for bat
    main.o(i._Z10publishBATv) refers to main.o(.data) for raw_battery_msg
    main.o(i._Z11print_debugv) refers to _printf_percent.o(.ARM.Collect$$_printf_percent$$00000000) for _printf_percent
    main.o(i._Z11print_debugv) refers to _printf_f.o(.ARM.Collect$$_printf_percent$$00000003) for _printf_f
    main.o(i._Z11print_debugv) refers to printf1.o(x$fpl$printf1) for _printf_fp_dec
    main.o(i._Z11print_debugv) refers to odrivearduino.o(i._ZN13ODriveArduino11GetVelocityEi) for ODriveArduino::GetVelocity(int)
    main.o(i._Z11print_debugv) refers to f2d.o(x$fpl$f2d) for __aeabi_f2d
    main.o(i._Z11print_debugv) refers to __2sprintf.o(.text) for __2sprintf
    main.o(i._Z11print_debugv) refers to main.o(t._ZN3ros11NodeHandle_I15ArduinoHardwareLi25ELi25ELi512ELi512ENS_19FlashReadOutBuffer_EE7loginfoIPcEEvT_) for void ros::NodeHandle_<ArduinoHardware, (int)25, (int)25, (int)512, (int)512, ros::FlashReadOutBuffer_>::loginfo<char*>(T1)
    main.o(i._Z11print_debugv) refers to main.o(.data) for odrive1
    main.o(i._Z11print_debugv) refers to main.o(.bss) for nh
    main.o(i._Z11publish_imuv) refers to gy85.o(i._ZN4Gy8520measure_accelerationEv) for Gy85::measure_acceleration()
    main.o(i._Z11publish_imuv) refers to gy85.o(i._ZN4Gy8517measure_gyroscopeEv) for Gy85::measure_gyroscope()
    main.o(i._Z11publish_imuv) refers to gy85.o(i._ZN4Gy8520measure_magnetometerEv) for Gy85::measure_magnetometer()
    main.o(i._Z11publish_imuv) refers to main.o(i._ZN13geometry_msgs7Vector3aSERKS0_) for geometry_msgs::Vector3::operator =(const geometry_msgs::Vector3&)
    main.o(i._Z11publish_imuv) refers to main.o(i._ZN3ros9Publisher7publishEPKNS_3MsgE) for ros::Publisher::publish(const ros::Msg*)
    main.o(i._Z11publish_imuv) refers to main.o(.bss) for imu2
    main.o(i._Z12pid_callbackRKN9riki_msgs3PIDE) refers to pid.o(i._ZN3PID15updateConstantsEfff) for PID::updateConstants(float, float, float)
    main.o(i._Z12pid_callbackRKN9riki_msgs3PIDE) refers to main.o(.bss) for motor1_pid
    main.o(i._Z16command_callbackRKN13geometry_msgs5TwistE) refers to f2d.o(x$fpl$f2d) for __aeabi_f2d
    main.o(i._Z16command_callbackRKN13geometry_msgs5TwistE) refers to delay.o(i.millis) for millis
    main.o(i._Z16command_callbackRKN13geometry_msgs5TwistE) refers to main.o(.data) for required_linear_vel_x
    main.o(i._Z4loopv) refers to delay.o(i.millis) for millis
    main.o(i._Z4loopv) refers to main.o(i._Z9move_basev) for move_base()
    main.o(i._Z4loopv) refers to main.o(i._Z9stop_basev) for stop_base()
    main.o(i._Z4loopv) refers to main.o(t._ZN3ros11NodeHandle_I15ArduinoHardwareLi25ELi25ELi512ELi512ENS_19FlashReadOutBuffer_EE8spinOnceEv) for ros::NodeHandle_<ArduinoHardware, (int)25, (int)25, (int)512, (int)512, ros::FlashReadOutBuffer_>::spinOnce()
    main.o(i._Z4loopv) refers to main.o(.data) for previous_control_time
    main.o(i._Z4loopv) refers to main.o(.bss) for nh
    main.o(i._Z5setupv) refers to arduino.o(i.pinMode) for pinMode
    main.o(i._Z5setupv) refers to gy85.o(i._ZN4Gy854initEv) for Gy85::init()
    main.o(i._Z5setupv) refers to hardwareserial.o(i._ZN14HardwareSerial5beginEj) for HardwareSerial::begin(unsigned)
    main.o(i._Z5setupv) refers to main.o(t._ZN3ros11NodeHandle_I15ArduinoHardwareLi25ELi25ELi512ELi512ENS_19FlashReadOutBuffer_EE9advertiseERNS_9PublisherE) for ros::NodeHandle_<ArduinoHardware, (int)25, (int)25, (int)512, (int)512, ros::FlashReadOutBuffer_>::advertise(ros::Publisher&)
    main.o(i._Z5setupv) refers to delay.o(i.millis) for millis
    main.o(i._Z5setupv) refers to main.o(t._ZN3ros11NodeHandle_I15ArduinoHardwareLi25ELi25ELi512ELi512ENS_19FlashReadOutBuffer_EE8spinOnceEv) for ros::NodeHandle_<ArduinoHardware, (int)25, (int)25, (int)512, (int)512, ros::FlashReadOutBuffer_>::spinOnce()
    main.o(i._Z5setupv) refers to main.o(t._ZN3ros11NodeHandle_I15ArduinoHardwareLi25ELi25ELi512ELi512ENS_19FlashReadOutBuffer_EE3logEcPKc) for ros::NodeHandle_<ArduinoHardware, (int)25, (int)25, (int)512, (int)512, ros::FlashReadOutBuffer_>::log(char, const char*)
    main.o(i._Z5setupv) refers to arduino.o(i.digitalWrite) for digitalWrite
    main.o(i._Z5setupv) refers to main.o(.bss) for imu2
    main.o(i._Z5setupv) refers to hardwareserial.o(.bss) for Serial2
    main.o(i._Z5setupv) refers to main.o(.data) for lasttime
    main.o(i._Z5setupv) refers to gpio.o(.constdata) for PIN_MAP
    main.o(i._Z9check_imuv) refers to gy85.o(i._ZN4Gy8515check_gyroscopeEv) for Gy85::check_gyroscope()
    main.o(i._Z9check_imuv) refers to gy85.o(i._ZN4Gy8519check_accelerometerEv) for Gy85::check_accelerometer()
    main.o(i._Z9check_imuv) refers to gy85.o(i._ZN4Gy8518check_magnetometerEv) for Gy85::check_magnetometer()
    main.o(i._Z9check_imuv) refers to main.o(t._ZN3ros11NodeHandle_I15ArduinoHardwareLi25ELi25ELi512ELi512ENS_19FlashReadOutBuffer_EE8logerrorIPKcEEvT_) for void ros::NodeHandle_<ArduinoHardware, (int)25, (int)25, (int)512, (int)512, ros::FlashReadOutBuffer_>::logerror<const char*>(T1)
    main.o(i._Z9check_imuv) refers to main.o(.bss) for imu2
    main.o(i._Z9check_imuv) refers to main.o(.data) for gyro
    main.o(i._Z9move_basev) refers to d2f.o(x$fpl$d2f) for __aeabi_d2f
    main.o(i._Z9move_basev) refers to kinematics.o(i._ZN10Kinematics6getRPMEfff) for Kinematics::getRPM(float, float, float)
    main.o(i._Z9move_basev) refers to odrivearduino.o(i._ZN13ODriveArduino11SetVelocityEif) for ODriveArduino::SetVelocity(int, float)
    main.o(i._Z9move_basev) refers to odrivearduino.o(i._ZN13ODriveArduino11GetVelocityEi) for ODriveArduino::GetVelocity(int)
    main.o(i._Z9move_basev) refers to kinematics.o(i._ZN10Kinematics13getVelocitiesEffff) for Kinematics::getVelocities(float, float, float, float)
    main.o(i._Z9move_basev) refers to main.o(i._ZN3ros9Publisher7publishEPKNS_3MsgE) for ros::Publisher::publish(const ros::Msg*)
    main.o(i._Z9move_basev) refers to main.o(.data) for required_angular_vel_z
    main.o(i._Z9move_basev) refers to main.o(.bss) for kinematics
    main.o(i._Z9stop_basev) refers to main.o(.data) for required_linear_vel_x
    main.o(i.__sti___8_main_cpp_2a863fb7) refers to odrivearduino.o(i._ZN13ODriveArduinoC1ER6Stream) for ODriveArduino::ODriveArduino(Stream&)
    main.o(i.__sti___8_main_cpp_2a863fb7) refers to kinematics.o(i._ZN10KinematicsC1Eifff) for Kinematics::Kinematics(int, float, float, float)
    main.o(i.__sti___8_main_cpp_2a863fb7) refers to pid.o(i._ZN3PIDC1Efffff) for PID::PID(float, float, float, float, float)
    main.o(i.__sti___8_main_cpp_2a863fb7) refers to main.o(i._ZN13geometry_msgs7Vector3C1Ev) for geometry_msgs::Vector3::Vector3()
    main.o(i.__sti___8_main_cpp_2a863fb7) refers to wire.o(i._ZN7TwoWireC1Ehhh) for TwoWire::TwoWire(unsigned char, unsigned char, unsigned char)
    main.o(i.__sti___8_main_cpp_2a863fb7) refers to aeabi_atexit.o(.text) for __aeabi_atexit
    main.o(i.__sti___8_main_cpp_2a863fb7) refers to battery.o(i._ZN7BatteryC1Efff) for Battery::Battery(float, float, float)
    main.o(i.__sti___8_main_cpp_2a863fb7) refers to motor.o(i._ZN5MotorC1E13Motor_TypeDeftj) for Motor::Motor(Motor_TypeDef, unsigned short, unsigned)
    main.o(i.__sti___8_main_cpp_2a863fb7) refers to main.o(t._ZN3ros11NodeHandle_I15ArduinoHardwareLi25ELi25ELi512ELi512ENS_19FlashReadOutBuffer_EEC1Ev) for ros::NodeHandle_<ArduinoHardware, (int)25, (int)25, (int)512, (int)512, ros::FlashReadOutBuffer_>::NodeHandle_()
    main.o(i.__sti___8_main_cpp_2a863fb7) refers to main.o(i._ZN3ros3MsgC2Ev) for ros::Msg::Msg__sub_object()
    main.o(i.__sti___8_main_cpp_2a863fb7) refers to main.o(t._ZN3ros10SubscriberIN13geometry_msgs5TwistEvEC1EPKcPFvRKS2_Ei) for ros::Subscriber<geometry_msgs::Twist, void>::Subscriber(const char*, void(*)(const geometry_msgs::Twist&), int)
    main.o(i.__sti___8_main_cpp_2a863fb7) refers to main.o(t._ZN3ros10SubscriberIN9riki_msgs3PIDEvEC1EPKcPFvRKS2_Ei) for ros::Subscriber<riki_msgs::PID, void>::Subscriber(const char*, void(*)(const riki_msgs::PID&), int)
    main.o(i.__sti___8_main_cpp_2a863fb7) refers to main.o(i._ZN3ros9PublisherC1EPKcPNS_3MsgEi) for ros::Publisher::Publisher(const char*, ros::Msg*, int)
    main.o(i.__sti___8_main_cpp_2a863fb7) refers to main.o(.data) for odrive_serial
    main.o(i.__sti___8_main_cpp_2a863fb7) refers to main.o(.bss) for kinematics
    main.o(i.__sti___8_main_cpp_2a863fb7) refers to main.o(i._ZN4Gy85D1Ev) for Gy85::~Gy85()
    main.o(i.__sti___8_main_cpp_2a863fb7) refers to main.o(.constdata__ZTVN9riki_msgs3ImuE) for vtable for riki_msgs::Imu
    main.o(i.__sti___8_main_cpp_2a863fb7) refers to main.o(.constdata__ZTVN9riki_msgs10VelocitiesE) for vtable for riki_msgs::Velocities
    main.o(i.__sti___8_main_cpp_2a863fb7) refers to main.o(.constdata__ZTVN9riki_msgs7BatteryE) for vtable for riki_msgs::Battery
    main.o(i.__sti___8_main_cpp_2a863fb7) refers to main.o(i._Z16command_callbackRKN13geometry_msgs5TwistE) for command_callback(const geometry_msgs::Twist&)
    main.o(i.__sti___8_main_cpp_2a863fb7) refers to main.o(i._Z12pid_callbackRKN9riki_msgs3PIDE) for pid_callback(const riki_msgs::PID&)
    main.o(i.main) refers to misc.o(i.NVIC_PriorityGroupConfig) for NVIC_PriorityGroupConfig
    main.o(i.main) refers to delay.o(i.Delay_Init) for Delay_Init
    main.o(i.main) refers to adc.o(i.ADCx_Init) for ADCx_Init
    main.o(i.main) refers to main.o(i._Z5setupv) for setup()
    main.o(i.main) refers to main.o(i._Z4loopv) for loop()
    main.o(.ARM.exidx) refers to main.o(i._Z12pid_callbackRKN9riki_msgs3PIDE) for i._Z12pid_callbackRKN9riki_msgs3PIDE
    main.o(.ARM.exidx) refers to main.o(i._Z16command_callbackRKN13geometry_msgs5TwistE) for i._Z16command_callbackRKN13geometry_msgs5TwistE
    main.o(.ARM.exidx) refers to main.o(i._Z9move_basev) for i._Z9move_basev
    main.o(.ARM.exidx) refers to main.o(i._Z9check_imuv) for i._Z9check_imuv
    main.o(.ARM.exidx) refers to main.o(i._Z11publish_imuv) for i._Z11publish_imuv
    main.o(.ARM.exidx) refers to main.o(i._Z9stop_basev) for i._Z9stop_basev
    main.o(.ARM.exidx) refers to main.o(i._Z10publishBATv) for i._Z10publishBATv
    main.o(.ARM.exidx) refers to main.o(i._Z11print_debugv) for i._Z11print_debugv
    main.o(.ARM.exidx) refers to main.o(i._Z5setupv) for i._Z5setupv
    main.o(.ARM.exidx) refers to main.o(i._Z4loopv) for i._Z4loopv
    main.o(.ARM.exidx) refers to main.o(i.main) for i.main
    main.o(.ARM.exidx) refers to main.o(i.__sti___8_main_cpp_2a863fb7) for i.__sti___8_main_cpp_2a863fb7
    main.o(.data) refers to hardwareserial.o(.bss) for Serial2
    main.o(.init_array) refers to main.o(i.__sti___8_main_cpp_2a863fb7) for __sti___8_main_cpp_2a863fb7
    main.o(.init_array) refers to init_aeabi.o(.text) for __cpp_initialize__aeabi_
    accelstepper.o(i._ZN12AccelStepper11setMaxSpeedEf) refers to accelstepper.o(i._ZN12AccelStepper15computeNewSpeedEv) for AccelStepper::computeNewSpeed()
    accelstepper.o(i._ZN12AccelStepper12setEnablePinEh) refers to arduino.o(i.pinMode) for pinMode
    accelstepper.o(i._ZN12AccelStepper12setEnablePinEh) refers to arduino.o(i.digitalWrite) for digitalWrite
    accelstepper.o(i._ZN12AccelStepper13enableOutputsEv) refers to arduino.o(i.pinMode) for pinMode
    accelstepper.o(i._ZN12AccelStepper13enableOutputsEv) refers to arduino.o(i.digitalWrite) for digitalWrite
    accelstepper.o(i._ZN12AccelStepper13runToPositionEv) refers to accelstepper.o(i._ZN12AccelStepper3runEv) for AccelStepper::run()
    accelstepper.o(i._ZN12AccelStepper13setOutputPinsEh) refers to arduino.o(i.digitalWrite) for digitalWrite
    accelstepper.o(i._ZN12AccelStepper14disableOutputsEv) refers to arduino.o(i.pinMode) for pinMode
    accelstepper.o(i._ZN12AccelStepper14disableOutputsEv) refers to arduino.o(i.digitalWrite) for digitalWrite
    accelstepper.o(i._ZN12AccelStepper15computeNewSpeedEv) refers to accelstepper.o(i._ZN12AccelStepper12distanceToGoEv) for AccelStepper::distanceToGo()
    accelstepper.o(i._ZN12AccelStepper15setAccelerationEf) refers to sqrtf.o(i.__hardfp_sqrtf) for __hardfp_sqrtf
    accelstepper.o(i._ZN12AccelStepper15setAccelerationEf) refers to accelstepper.o(i._ZN12AccelStepper15computeNewSpeedEv) for AccelStepper::computeNewSpeed()
    accelstepper.o(i._ZN12AccelStepper16runToNewPositionEl) refers to accelstepper.o(i._ZN12AccelStepper6moveToEl) for AccelStepper::moveTo(long)
    accelstepper.o(i._ZN12AccelStepper16runToNewPositionEl) refers to accelstepper.o(i._ZN12AccelStepper13runToPositionEv) for AccelStepper::runToPosition()
    accelstepper.o(i._ZN12AccelStepper18runSpeedToPositionEv) refers to accelstepper.o(i._ZN12AccelStepper8runSpeedEv) for AccelStepper::runSpeed()
    accelstepper.o(i._ZN12AccelStepper3runEv) refers to accelstepper.o(i._ZN12AccelStepper8runSpeedEv) for AccelStepper::runSpeed()
    accelstepper.o(i._ZN12AccelStepper3runEv) refers to accelstepper.o(i._ZN12AccelStepper15computeNewSpeedEv) for AccelStepper::computeNewSpeed()
    accelstepper.o(i._ZN12AccelStepper3runEv) refers to accelstepper.o(i._ZN12AccelStepper12distanceToGoEv) for AccelStepper::distanceToGo()
    accelstepper.o(i._ZN12AccelStepper4moveEl) refers to accelstepper.o(i._ZN12AccelStepper6moveToEl) for AccelStepper::moveTo(long)
    accelstepper.o(i._ZN12AccelStepper4stopEv) refers to accelstepper.o(i._ZN12AccelStepper4moveEl) for AccelStepper::move(long)
    accelstepper.o(i._ZN12AccelStepper5step1El) refers to delay.o(i.delay_us) for delay_us
    accelstepper.o(i._ZN12AccelStepper6moveToEl) refers to accelstepper.o(i._ZN12AccelStepper15computeNewSpeedEv) for AccelStepper::computeNewSpeed()
    accelstepper.o(i._ZN12AccelStepper8runSpeedEv) refers to delay.o(i.micros) for micros
    accelstepper.o(i._ZN12AccelStepperC1EPFvvES1_) refers to accelstepper.o(i._ZN12AccelStepper15setAccelerationEf) for AccelStepper::setAcceleration(float)
    accelstepper.o(i._ZN12AccelStepperC1EPFvvES1_) refers to accelstepper.o(.constdata__ZTV12AccelStepper) for vtable for AccelStepper
    accelstepper.o(i._ZN12AccelStepperC1Ehhhhhb) refers to accelstepper.o(i._ZN12AccelStepper13enableOutputsEv) for AccelStepper::enableOutputs()
    accelstepper.o(i._ZN12AccelStepperC1Ehhhhhb) refers to accelstepper.o(i._ZN12AccelStepper15setAccelerationEf) for AccelStepper::setAcceleration(float)
    accelstepper.o(i._ZN12AccelStepperC1Ehhhhhb) refers to accelstepper.o(.constdata__ZTV12AccelStepper) for vtable for AccelStepper
    accelstepper.o(.ARM.exidx) refers to accelstepper.o(i._ZN12AccelStepper12distanceToGoEv) for i._ZN12AccelStepper12distanceToGoEv
    accelstepper.o(.ARM.exidx) refers to accelstepper.o(i._ZN12AccelStepper15computeNewSpeedEv) for i._ZN12AccelStepper15computeNewSpeedEv
    accelstepper.o(.ARM.exidx) refers to accelstepper.o(i._ZN12AccelStepper15setAccelerationEf) for i._ZN12AccelStepper15setAccelerationEf
    accelstepper.o(.ARM.exidx) refers to accelstepper.o(i._ZN12AccelStepper13enableOutputsEv) for i._ZN12AccelStepper13enableOutputsEv
    accelstepper.o(.ARM.exidx) refers to accelstepper.o(i._ZN12AccelStepperC1Ehhhhhb) for i._ZN12AccelStepperC1Ehhhhhb
    accelstepper.o(.ARM.exidx) refers to accelstepper.o(i._ZN12AccelStepperC1EPFvvES1_) for i._ZN12AccelStepperC1EPFvvES1_
    accelstepper.o(.ARM.exidx) refers to accelstepper.o(i._ZN12AccelStepper6moveToEl) for i._ZN12AccelStepper6moveToEl
    accelstepper.o(.ARM.exidx) refers to accelstepper.o(i._ZN12AccelStepper4moveEl) for i._ZN12AccelStepper4moveEl
    accelstepper.o(.ARM.exidx) refers to accelstepper.o(i._ZN12AccelStepper8runSpeedEv) for i._ZN12AccelStepper8runSpeedEv
    accelstepper.o(.ARM.exidx) refers to accelstepper.o(i._ZN12AccelStepper3runEv) for i._ZN12AccelStepper3runEv
    accelstepper.o(.ARM.exidx) refers to accelstepper.o(i._ZN12AccelStepper11setMaxSpeedEf) for i._ZN12AccelStepper11setMaxSpeedEf
    accelstepper.o(.ARM.exidx) refers to accelstepper.o(i._ZN12AccelStepper8maxSpeedEv) for i._ZN12AccelStepper8maxSpeedEv
    accelstepper.o(.ARM.exidx) refers to accelstepper.o(i._ZN12AccelStepper8setSpeedEf) for i._ZN12AccelStepper8setSpeedEf
    accelstepper.o(.ARM.exidx) refers to accelstepper.o(i._ZN12AccelStepper5speedEv) for i._ZN12AccelStepper5speedEv
    accelstepper.o(.ARM.exidx) refers to accelstepper.o(i._ZN12AccelStepper14targetPositionEv) for i._ZN12AccelStepper14targetPositionEv
    accelstepper.o(.ARM.exidx) refers to accelstepper.o(i._ZN12AccelStepper15currentPositionEv) for i._ZN12AccelStepper15currentPositionEv
    accelstepper.o(.ARM.exidx) refers to accelstepper.o(i._ZN12AccelStepper18setCurrentPositionEl) for i._ZN12AccelStepper18setCurrentPositionEl
    accelstepper.o(.ARM.exidx) refers to accelstepper.o(i._ZN12AccelStepper13runToPositionEv) for i._ZN12AccelStepper13runToPositionEv
    accelstepper.o(.ARM.exidx) refers to accelstepper.o(i._ZN12AccelStepper18runSpeedToPositionEv) for i._ZN12AccelStepper18runSpeedToPositionEv
    accelstepper.o(.ARM.exidx) refers to accelstepper.o(i._ZN12AccelStepper16runToNewPositionEl) for i._ZN12AccelStepper16runToNewPositionEl
    accelstepper.o(.ARM.exidx) refers to accelstepper.o(i._ZN12AccelStepper4stopEv) for i._ZN12AccelStepper4stopEv
    accelstepper.o(.ARM.exidx) refers to accelstepper.o(i._ZN12AccelStepper14disableOutputsEv) for i._ZN12AccelStepper14disableOutputsEv
    accelstepper.o(.ARM.exidx) refers to accelstepper.o(i._ZN12AccelStepper16setMinPulseWidthEj) for i._ZN12AccelStepper16setMinPulseWidthEj
    accelstepper.o(.ARM.exidx) refers to accelstepper.o(i._ZN12AccelStepper12setEnablePinEh) for i._ZN12AccelStepper12setEnablePinEh
    accelstepper.o(.ARM.exidx) refers to accelstepper.o(i._ZN12AccelStepper15setPinsInvertedEbbb) for i._ZN12AccelStepper15setPinsInvertedEbbb
    accelstepper.o(.ARM.exidx) refers to accelstepper.o(i._ZN12AccelStepper15setPinsInvertedEbbbbb) for i._ZN12AccelStepper15setPinsInvertedEbbbbb
    accelstepper.o(.ARM.exidx) refers to accelstepper.o(i._ZN12AccelStepper9isRunningEv) for i._ZN12AccelStepper9isRunningEv
    accelstepper.o(.ARM.exidx) refers to accelstepper.o(i._ZN12AccelStepper13setOutputPinsEh) for i._ZN12AccelStepper13setOutputPinsEh
    accelstepper.o(.ARM.exidx) refers to accelstepper.o(i._ZN12AccelStepper4stepEl) for i._ZN12AccelStepper4stepEl
    accelstepper.o(.ARM.exidx) refers to accelstepper.o(i._ZN12AccelStepper5step0El) for i._ZN12AccelStepper5step0El
    accelstepper.o(.ARM.exidx) refers to accelstepper.o(i._ZN12AccelStepper5step1El) for i._ZN12AccelStepper5step1El
    accelstepper.o(.ARM.exidx) refers to accelstepper.o(i._ZN12AccelStepper5step2El) for i._ZN12AccelStepper5step2El
    accelstepper.o(.ARM.exidx) refers to accelstepper.o(i._ZN12AccelStepper5step3El) for i._ZN12AccelStepper5step3El
    accelstepper.o(.ARM.exidx) refers to accelstepper.o(i._ZN12AccelStepper5step4El) for i._ZN12AccelStepper5step4El
    accelstepper.o(.ARM.exidx) refers to accelstepper.o(i._ZN12AccelStepper5step6El) for i._ZN12AccelStepper5step6El
    accelstepper.o(.ARM.exidx) refers to accelstepper.o(i._ZN12AccelStepper5step8El) for i._ZN12AccelStepper5step8El
    multistepper.o(i._ZN12MultiStepper18runSpeedToPositionEv) refers to multistepper.o(i._ZN12MultiStepper3runEv) for MultiStepper::run()
    multistepper.o(i._ZN12MultiStepper3runEv) refers to accelstepper.o(i._ZN12AccelStepper12distanceToGoEv) for AccelStepper::distanceToGo()
    multistepper.o(i._ZN12MultiStepper3runEv) refers to accelstepper.o(i._ZN12AccelStepper8runSpeedEv) for AccelStepper::runSpeed()
    multistepper.o(i._ZN12MultiStepper6moveToEPl) refers to accelstepper.o(i._ZN12AccelStepper15currentPositionEv) for AccelStepper::currentPosition()
    multistepper.o(i._ZN12MultiStepper6moveToEPl) refers to accelstepper.o(i._ZN12AccelStepper8maxSpeedEv) for AccelStepper::maxSpeed()
    multistepper.o(i._ZN12MultiStepper6moveToEPl) refers to accelstepper.o(i._ZN12AccelStepper6moveToEl) for AccelStepper::moveTo(long)
    multistepper.o(i._ZN12MultiStepper6moveToEPl) refers to accelstepper.o(i._ZN12AccelStepper8setSpeedEf) for AccelStepper::setSpeed(float)
    multistepper.o(.ARM.exidx) refers to multistepper.o(i._ZN12MultiStepperC1Ev) for i._ZN12MultiStepperC1Ev
    multistepper.o(.ARM.exidx) refers to multistepper.o(i._ZN12MultiStepper10addStepperER12AccelStepper) for i._ZN12MultiStepper10addStepperER12AccelStepper
    multistepper.o(.ARM.exidx) refers to multistepper.o(i._ZN12MultiStepper6moveToEPl) for i._ZN12MultiStepper6moveToEPl
    multistepper.o(.ARM.exidx) refers to multistepper.o(i._ZN12MultiStepper3runEv) for i._ZN12MultiStepper3runEv
    multistepper.o(.ARM.exidx) refers to multistepper.o(i._ZN12MultiStepper18runSpeedToPositionEv) for i._ZN12MultiStepper18runSpeedToPositionEv
    servo.o(i._ZN5Servo17writeMicrosecondsEf) refers to servo.o(i._ZNK5Servo8attachedEv) for Servo::attached() const
    servo.o(i._ZN5Servo17writeMicrosecondsEf) refers to f2d.o(x$fpl$f2d) for __aeabi_f2d
    servo.o(i._ZN5Servo17writeMicrosecondsEf) refers to ddiv.o(x$fpl$ddiv) for __aeabi_ddiv
    servo.o(i._ZN5Servo17writeMicrosecondsEf) refers to daddsub_clz.o(x$fpl$dadd) for __aeabi_dadd
    servo.o(i._ZN5Servo17writeMicrosecondsEf) refers to dfixu.o(x$fpl$dfixu) for __aeabi_d2uiz
    servo.o(i._ZN5Servo17writeMicrosecondsEf) refers to dflt_clz.o(x$fpl$dfltu) for __aeabi_ui2d
    servo.o(i._ZN5Servo17writeMicrosecondsEf) refers to drleqf.o(x$fpl$drleqf) for __aeabi_cdrcmple
    servo.o(i._ZN5Servo17writeMicrosecondsEf) refers to dfix.o(x$fpl$dfix) for __aeabi_d2iz
    servo.o(i._ZN5Servo17writeMicrosecondsEf) refers to daddsub_clz.o(x$fpl$dsub) for __aeabi_dsub
    servo.o(i._ZN5Servo17writeMicrosecondsEf) refers to pwm.o(i.pwmWrite) for pwmWrite
    servo.o(i._ZN5Servo17writeMicrosecondsEf) refers to system_stm32f4xx.o(.data) for SystemCoreClock
    servo.o(i._ZN5Servo17writeMicrosecondsEt) refers to servo.o(i._ZNK5Servo8attachedEv) for Servo::attached() const
    servo.o(i._ZN5Servo17writeMicrosecondsEt) refers to f2d.o(x$fpl$f2d) for __aeabi_f2d
    servo.o(i._ZN5Servo17writeMicrosecondsEt) refers to ddiv.o(x$fpl$ddiv) for __aeabi_ddiv
    servo.o(i._ZN5Servo17writeMicrosecondsEt) refers to daddsub_clz.o(x$fpl$dadd) for __aeabi_dadd
    servo.o(i._ZN5Servo17writeMicrosecondsEt) refers to dfixu.o(x$fpl$dfixu) for __aeabi_d2uiz
    servo.o(i._ZN5Servo17writeMicrosecondsEt) refers to dflt_clz.o(x$fpl$dfltu) for __aeabi_ui2d
    servo.o(i._ZN5Servo17writeMicrosecondsEt) refers to drleqf.o(x$fpl$drleqf) for __aeabi_cdrcmple
    servo.o(i._ZN5Servo17writeMicrosecondsEt) refers to dfix.o(x$fpl$dfix) for __aeabi_d2iz
    servo.o(i._ZN5Servo17writeMicrosecondsEt) refers to daddsub_clz.o(x$fpl$dsub) for __aeabi_dsub
    servo.o(i._ZN5Servo17writeMicrosecondsEt) refers to pwm.o(i.pwmWrite) for pwmWrite
    servo.o(i._ZN5Servo17writeMicrosecondsEt) refers to system_stm32f4xx.o(.data) for SystemCoreClock
    servo.o(i._ZN5Servo5writeEf) refers to servo.o(i._ZN5Servo17writeMicrosecondsEf) for Servo::writeMicroseconds(float)
    servo.o(i._ZN5Servo5writeEi) refers to servo.o(i._ZN5Servo17writeMicrosecondsEt) for Servo::writeMicroseconds(unsigned short)
    servo.o(i._ZN5Servo6attachEhttss) refers to servo.o(i._ZNK5Servo8attachedEv) for Servo::attached() const
    servo.o(i._ZN5Servo6attachEhttss) refers to servo.o(i._ZN5Servo6detachEv) for Servo::detach()
    servo.o(i._ZN5Servo6attachEhttss) refers to arduino.o(i.pinMode) for pinMode
    servo.o(i._ZN5Servo6attachEhttss) refers to stm32f4xx_tim.o(i.TIM_Cmd) for TIM_Cmd
    servo.o(i._ZN5Servo6attachEhttss) refers to f2d.o(x$fpl$f2d) for __aeabi_f2d
    servo.o(i._ZN5Servo6attachEhttss) refers to ddiv.o(x$fpl$ddiv) for __aeabi_ddiv
    servo.o(i._ZN5Servo6attachEhttss) refers to daddsub_clz.o(x$fpl$dadd) for __aeabi_dadd
    servo.o(i._ZN5Servo6attachEhttss) refers to dfixu.o(x$fpl$dfixu) for __aeabi_d2uiz
    servo.o(i._ZN5Servo6attachEhttss) refers to pwm.o(i.timer_set_prescaler) for timer_set_prescaler
    servo.o(i._ZN5Servo6attachEhttss) refers to dflt_clz.o(x$fpl$dfltu) for __aeabi_ui2d
    servo.o(i._ZN5Servo6attachEhttss) refers to drleqf.o(x$fpl$drleqf) for __aeabi_cdrcmple
    servo.o(i._ZN5Servo6attachEhttss) refers to dfix.o(x$fpl$dfix) for __aeabi_d2iz
    servo.o(i._ZN5Servo6attachEhttss) refers to daddsub_clz.o(x$fpl$dsub) for __aeabi_dsub
    servo.o(i._ZN5Servo6attachEhttss) refers to pwm.o(i.timer_set_reload) for timer_set_reload
    servo.o(i._ZN5Servo6attachEhttss) refers to pwm.o(i.timer_generate_update) for timer_generate_update
    servo.o(i._ZN5Servo6attachEhttss) refers to gpio.o(.constdata) for PIN_MAP
    servo.o(i._ZN5Servo6attachEhttss) refers to system_stm32f4xx.o(.data) for SystemCoreClock
    servo.o(i._ZN5Servo6detachEv) refers to servo.o(i._ZNK5Servo8attachedEv) for Servo::attached() const
    servo.o(i._ZN5Servo6detachEv) refers to stm32f4xx_tim.o(i.TIM_CCxCmd) for TIM_CCxCmd
    servo.o(i._ZN5Servo6detachEv) refers to servo.o(i._ZN5Servo11resetFieldsEv) for Servo::resetFields()
    servo.o(i._ZN5Servo6detachEv) refers to gpio.o(.constdata) for PIN_MAP
    servo.o(i._ZN5ServoC1Ev) refers to servo.o(i._ZN5Servo11resetFieldsEv) for Servo::resetFields()
    servo.o(i._ZNK5Servo16readMicrosecondsEv) refers to servo.o(i._ZNK5Servo8attachedEv) for Servo::attached() const
    servo.o(i._ZNK5Servo16readMicrosecondsEv) refers to pwm.o(i.timer_get_compare) for timer_get_compare
    servo.o(i._ZNK5Servo16readMicrosecondsEv) refers to f2d.o(x$fpl$f2d) for __aeabi_f2d
    servo.o(i._ZNK5Servo16readMicrosecondsEv) refers to ddiv.o(x$fpl$ddiv) for __aeabi_ddiv
    servo.o(i._ZNK5Servo16readMicrosecondsEv) refers to daddsub_clz.o(x$fpl$dadd) for __aeabi_dadd
    servo.o(i._ZNK5Servo16readMicrosecondsEv) refers to dfixu.o(x$fpl$dfixu) for __aeabi_d2uiz
    servo.o(i._ZNK5Servo16readMicrosecondsEv) refers to dflt_clz.o(x$fpl$dfltu) for __aeabi_ui2d
    servo.o(i._ZNK5Servo16readMicrosecondsEv) refers to drleqf.o(x$fpl$drleqf) for __aeabi_cdrcmple
    servo.o(i._ZNK5Servo16readMicrosecondsEv) refers to dfix.o(x$fpl$dfix) for __aeabi_d2iz
    servo.o(i._ZNK5Servo16readMicrosecondsEv) refers to daddsub_clz.o(x$fpl$dsub) for __aeabi_dsub
    servo.o(i._ZNK5Servo16readMicrosecondsEv) refers to gpio.o(.constdata) for PIN_MAP
    servo.o(i._ZNK5Servo16readMicrosecondsEv) refers to system_stm32f4xx.o(.data) for SystemCoreClock
    servo.o(i._ZNK5Servo18readMicroseconds_fEv) refers to servo.o(i._ZNK5Servo8attachedEv) for Servo::attached() const
    servo.o(i._ZNK5Servo18readMicroseconds_fEv) refers to pwm.o(i.timer_get_compare) for timer_get_compare
    servo.o(i._ZNK5Servo18readMicroseconds_fEv) refers to f2d.o(x$fpl$f2d) for __aeabi_f2d
    servo.o(i._ZNK5Servo18readMicroseconds_fEv) refers to ddiv.o(x$fpl$ddiv) for __aeabi_ddiv
    servo.o(i._ZNK5Servo18readMicroseconds_fEv) refers to daddsub_clz.o(x$fpl$dadd) for __aeabi_dadd
    servo.o(i._ZNK5Servo18readMicroseconds_fEv) refers to dfixu.o(x$fpl$dfixu) for __aeabi_d2uiz
    servo.o(i._ZNK5Servo18readMicroseconds_fEv) refers to dflt_clz.o(x$fpl$dfltu) for __aeabi_ui2d
    servo.o(i._ZNK5Servo18readMicroseconds_fEv) refers to drleqf.o(x$fpl$drleqf) for __aeabi_cdrcmple
    servo.o(i._ZNK5Servo18readMicroseconds_fEv) refers to dfix.o(x$fpl$dfix) for __aeabi_d2iz
    servo.o(i._ZNK5Servo18readMicroseconds_fEv) refers to daddsub_clz.o(x$fpl$dsub) for __aeabi_dsub
    servo.o(i._ZNK5Servo18readMicroseconds_fEv) refers to gpio.o(.constdata) for PIN_MAP
    servo.o(i._ZNK5Servo18readMicroseconds_fEv) refers to system_stm32f4xx.o(.data) for SystemCoreClock
    servo.o(i._ZNK5Servo4readEv) refers to servo.o(i._ZNK5Servo16readMicrosecondsEv) for Servo::readMicroseconds() const
    servo.o(i._ZNK5Servo6read_fEv) refers to servo.o(i._ZNK5Servo18readMicroseconds_fEv) for Servo::readMicroseconds_f() const
    servo.o(.ARM.exidx) refers to servo.o(i._ZN5Servo11resetFieldsEv) for i._ZN5Servo11resetFieldsEv
    servo.o(.ARM.exidx) refers to servo.o(i._ZN5ServoC1Ev) for i._ZN5ServoC1Ev
    servo.o(.ARM.exidx) refers to servo.o(i._ZN5Servo6detachEv) for i._ZN5Servo6detachEv
    servo.o(.ARM.exidx) refers to servo.o(i._ZN5Servo6attachEhttss) for i._ZN5Servo6attachEhttss
    servo.o(.ARM.exidx) refers to servo.o(i._ZN5Servo17writeMicrosecondsEt) for i._ZN5Servo17writeMicrosecondsEt
    servo.o(.ARM.exidx) refers to servo.o(i._ZN5Servo5writeEi) for i._ZN5Servo5writeEi
    servo.o(.ARM.exidx) refers to servo.o(i._ZN5Servo17writeMicrosecondsEf) for i._ZN5Servo17writeMicrosecondsEf
    servo.o(.ARM.exidx) refers to servo.o(i._ZN5Servo5writeEf) for i._ZN5Servo5writeEf
    servo.o(.ARM.exidx) refers to servo.o(i._ZNK5Servo16readMicrosecondsEv) for i._ZNK5Servo16readMicrosecondsEv
    servo.o(.ARM.exidx) refers to servo.o(i._ZNK5Servo4readEv) for i._ZNK5Servo4readEv
    servo.o(.ARM.exidx) refers to servo.o(i._ZNK5Servo18readMicroseconds_fEv) for i._ZNK5Servo18readMicroseconds_fEv
    servo.o(.ARM.exidx) refers to servo.o(i._ZNK5Servo6read_fEv) for i._ZNK5Servo6read_fEv
    duration.o(i._ZN3ros8DurationmIERKS0_) refers to duration.o(i._ZN3ros22normalizeSecNSecSignedERiS0_) for ros::normalizeSecNSecSigned(int&, int&)
    duration.o(i._ZN3ros8DurationmLEd) refers to dflt_clz.o(x$fpl$dflt) for __aeabi_i2d
    duration.o(i._ZN3ros8DurationmLEd) refers to dmul.o(x$fpl$dmul) for __aeabi_dmul
    duration.o(i._ZN3ros8DurationmLEd) refers to dfix.o(x$fpl$dfix) for __aeabi_d2iz
    duration.o(i._ZN3ros8DurationmLEd) refers to duration.o(i._ZN3ros22normalizeSecNSecSignedERiS0_) for ros::normalizeSecNSecSigned(int&, int&)
    duration.o(i._ZN3ros8DurationpLERKS0_) refers to duration.o(i._ZN3ros22normalizeSecNSecSignedERiS0_) for ros::normalizeSecNSecSigned(int&, int&)
    duration.o(.ARM.exidx) refers to duration.o(i._ZN3ros22normalizeSecNSecSignedERiS0_) for i._ZN3ros22normalizeSecNSecSignedERiS0_
    duration.o(.ARM.exidx) refers to duration.o(i._ZN3ros8DurationpLERKS0_) for i._ZN3ros8DurationpLERKS0_
    duration.o(.ARM.exidx) refers to duration.o(i._ZN3ros8DurationmIERKS0_) for i._ZN3ros8DurationmIERKS0_
    duration.o(.ARM.exidx) refers to duration.o(i._ZN3ros8DurationmLEd) for i._ZN3ros8DurationmLEd
    time.o(i._ZN3ros4Time8fromNSecEi) refers to time.o(i._ZN3ros16normalizeSecNSecERjS0_) for ros::normalizeSecNSec(unsigned&, unsigned&)
    time.o(i._ZN3ros4TimemIERKNS_8DurationE) refers to time.o(i._ZN3ros16normalizeSecNSecERjS0_) for ros::normalizeSecNSec(unsigned&, unsigned&)
    time.o(i._ZN3ros4TimepLERKNS_8DurationE) refers to time.o(i._ZN3ros16normalizeSecNSecERjS0_) for ros::normalizeSecNSec(unsigned&, unsigned&)
    time.o(.ARM.exidx) refers to time.o(i._ZN3ros16normalizeSecNSecERjS0_) for i._ZN3ros16normalizeSecNSecERjS0_
    time.o(.ARM.exidx) refers to time.o(i._ZN3ros4Time8fromNSecEi) for i._ZN3ros4Time8fromNSecEi
    time.o(.ARM.exidx) refers to time.o(i._ZN3ros4TimepLERKNS_8DurationE) for i._ZN3ros4TimepLERKNS_8DurationE
    time.o(.ARM.exidx) refers to time.o(i._ZN3ros4TimemIERKNS_8DurationE) for i._ZN3ros4TimemIERKNS_8DurationE
    odrivearduino.o(i._ZN13ODriveArduino10SetCurrentEif) refers to odrivearduino.o(t._ZlsIPKcER5PrintS3_T_) for Print& operator <<<const char*>(Print&, T1)
    odrivearduino.o(i._ZN13ODriveArduino10SetCurrentEif) refers to odrivearduino.o(t._ZlsIiER5PrintS1_T_) for Print& operator <<<int>(Print&, T1)
    odrivearduino.o(i._ZN13ODriveArduino10SetCurrentEif) refers to odrivearduino.o(i._ZlsIfER5PrintS1_T_) for Print& operator <<<float>(Print&, T1)
    odrivearduino.o(i._ZN13ODriveArduino10readStringEv) refers to wstring.o(i._ZN6StringC1EPKc) for String::String(const char*)
    odrivearduino.o(i._ZN13ODriveArduino10readStringEv) refers to delay.o(i.millis) for millis
    odrivearduino.o(i._ZN13ODriveArduino10readStringEv) refers to wstring.o(i._ZN6String6concatEc) for String::concat(char)
    odrivearduino.o(i._ZN13ODriveArduino11GetPositionEi) refers to odrivearduino.o(t._ZlsIPKcER5PrintS3_T_) for Print& operator <<<const char*>(Print&, T1)
    odrivearduino.o(i._ZN13ODriveArduino11GetPositionEi) refers to odrivearduino.o(t._ZlsIiER5PrintS1_T_) for Print& operator <<<int>(Print&, T1)
    odrivearduino.o(i._ZN13ODriveArduino11GetPositionEi) refers to odrivearduino.o(i._ZN13ODriveArduino7readIntEv) for ODriveArduino::readInt()
    odrivearduino.o(i._ZN13ODriveArduino11GetVelocityEi) refers to odrivearduino.o(t._ZlsIPKcER5PrintS3_T_) for Print& operator <<<const char*>(Print&, T1)
    odrivearduino.o(i._ZN13ODriveArduino11GetVelocityEi) refers to odrivearduino.o(t._ZlsIiER5PrintS1_T_) for Print& operator <<<int>(Print&, T1)
    odrivearduino.o(i._ZN13ODriveArduino11GetVelocityEi) refers to odrivearduino.o(i._ZN13ODriveArduino9readFloatEv) for ODriveArduino::readFloat()
    odrivearduino.o(i._ZN13ODriveArduino11SetPositionEif) refers to odrivearduino.o(i._ZN13ODriveArduino11SetPositionEifff) for ODriveArduino::SetPosition(int, float, float, float)
    odrivearduino.o(i._ZN13ODriveArduino11SetPositionEiff) refers to odrivearduino.o(i._ZN13ODriveArduino11SetPositionEifff) for ODriveArduino::SetPosition(int, float, float, float)
    odrivearduino.o(i._ZN13ODriveArduino11SetPositionEifff) refers to odrivearduino.o(t._ZlsIPKcER5PrintS3_T_) for Print& operator <<<const char*>(Print&, T1)
    odrivearduino.o(i._ZN13ODriveArduino11SetPositionEifff) refers to odrivearduino.o(t._ZlsIiER5PrintS1_T_) for Print& operator <<<int>(Print&, T1)
    odrivearduino.o(i._ZN13ODriveArduino11SetPositionEifff) refers to odrivearduino.o(i._ZlsIfER5PrintS1_T_) for Print& operator <<<float>(Print&, T1)
    odrivearduino.o(i._ZN13ODriveArduino11SetVelocityEif) refers to odrivearduino.o(i._ZN13ODriveArduino11SetVelocityEiff) for ODriveArduino::SetVelocity(int, float, float)
    odrivearduino.o(i._ZN13ODriveArduino11SetVelocityEiff) refers to odrivearduino.o(t._ZlsIPKcER5PrintS3_T_) for Print& operator <<<const char*>(Print&, T1)
    odrivearduino.o(i._ZN13ODriveArduino11SetVelocityEiff) refers to odrivearduino.o(t._ZlsIiER5PrintS1_T_) for Print& operator <<<int>(Print&, T1)
    odrivearduino.o(i._ZN13ODriveArduino11SetVelocityEiff) refers to odrivearduino.o(i._ZlsIfER5PrintS1_T_) for Print& operator <<<float>(Print&, T1)
    odrivearduino.o(i._ZN13ODriveArduino15TrapezoidalMoveEif) refers to odrivearduino.o(t._ZlsIPKcER5PrintS3_T_) for Print& operator <<<const char*>(Print&, T1)
    odrivearduino.o(i._ZN13ODriveArduino15TrapezoidalMoveEif) refers to odrivearduino.o(t._ZlsIiER5PrintS1_T_) for Print& operator <<<int>(Print&, T1)
    odrivearduino.o(i._ZN13ODriveArduino15TrapezoidalMoveEif) refers to odrivearduino.o(i._ZlsIfER5PrintS1_T_) for Print& operator <<<float>(Print&, T1)
    odrivearduino.o(i._ZN13ODriveArduino7readIntEv) refers to odrivearduino.o(i._ZN13ODriveArduino10readStringEv) for ODriveArduino::readString()
    odrivearduino.o(i._ZN13ODriveArduino7readIntEv) refers to wstring.o(i._ZNK6String5toIntEv) for String::toInt() const
    odrivearduino.o(i._ZN13ODriveArduino7readIntEv) refers to wstring.o(i._ZN6StringD1Ev) for String::~String()
    odrivearduino.o(i._ZN13ODriveArduino9readFloatEv) refers to odrivearduino.o(i._ZN13ODriveArduino10readStringEv) for ODriveArduino::readString()
    odrivearduino.o(i._ZN13ODriveArduino9readFloatEv) refers to wstring.o(i._ZNK6String7toFloatEv) for String::toFloat() const
    odrivearduino.o(i._ZN13ODriveArduino9readFloatEv) refers to wstring.o(i._ZN6StringD1Ev) for String::~String()
    odrivearduino.o(i._ZN13ODriveArduino9run_stateEiibf) refers to odrivearduino.o(t._ZlsIPKcER5PrintS3_T_) for Print& operator <<<const char*>(Print&, T1)
    odrivearduino.o(i._ZN13ODriveArduino9run_stateEiibf) refers to odrivearduino.o(t._ZlsIiER5PrintS1_T_) for Print& operator <<<int>(Print&, T1)
    odrivearduino.o(i._ZN13ODriveArduino9run_stateEiibf) refers to print.o(i._ZN5Print5printEc) for Print::print(char)
    odrivearduino.o(i._ZN13ODriveArduino9run_stateEiibf) refers to delay.o(i.delay_ms) for delay_ms
    odrivearduino.o(i._ZN13ODriveArduino9run_stateEiibf) refers to odrivearduino.o(i._ZN13ODriveArduino7readIntEv) for ODriveArduino::readInt()
    odrivearduino.o(.ARM.exidx) refers to odrivearduino.o(i._ZN13ODriveArduinoC1ER6Stream) for i._ZN13ODriveArduinoC1ER6Stream
    odrivearduino.o(.ARM.exidx) refers to odrivearduino.o(i._ZN13ODriveArduino11SetPositionEifff) for i._ZN13ODriveArduino11SetPositionEifff
    odrivearduino.o(.ARM.exidx) refers to odrivearduino.o(i._ZN13ODriveArduino11SetPositionEif) for i._ZN13ODriveArduino11SetPositionEif
    odrivearduino.o(.ARM.exidx) refers to odrivearduino.o(i._ZN13ODriveArduino11SetPositionEiff) for i._ZN13ODriveArduino11SetPositionEiff
    odrivearduino.o(.ARM.exidx) refers to odrivearduino.o(i._ZN13ODriveArduino11SetVelocityEiff) for i._ZN13ODriveArduino11SetVelocityEiff
    odrivearduino.o(.ARM.exidx) refers to odrivearduino.o(i._ZN13ODriveArduino11SetVelocityEif) for i._ZN13ODriveArduino11SetVelocityEif
    odrivearduino.o(.ARM.exidx) refers to odrivearduino.o(i._ZN13ODriveArduino10SetCurrentEif) for i._ZN13ODriveArduino10SetCurrentEif
    odrivearduino.o(.ARM.exidx) refers to odrivearduino.o(i._ZN13ODriveArduino15TrapezoidalMoveEif) for i._ZN13ODriveArduino15TrapezoidalMoveEif
    odrivearduino.o(.ARM.exidx) refers to odrivearduino.o(i._ZN13ODriveArduino10readStringEv) for i._ZN13ODriveArduino10readStringEv
    odrivearduino.o(.ARM.exidx) refers to odrivearduino.o(i._ZN13ODriveArduino9readFloatEv) for i._ZN13ODriveArduino9readFloatEv
    odrivearduino.o(.ARM.exidx) refers to odrivearduino.o(i._ZN13ODriveArduino11GetVelocityEi) for i._ZN13ODriveArduino11GetVelocityEi
    odrivearduino.o(.ARM.exidx) refers to odrivearduino.o(i._ZN13ODriveArduino7readIntEv) for i._ZN13ODriveArduino7readIntEv
    odrivearduino.o(.ARM.exidx) refers to odrivearduino.o(i._ZN13ODriveArduino11GetPositionEi) for i._ZN13ODriveArduino11GetPositionEi
    odrivearduino.o(.ARM.exidx) refers to odrivearduino.o(i._ZN13ODriveArduino9run_stateEiibf) for i._ZN13ODriveArduino9run_stateEiibf
    arduino.o(i.analogRead) refers to adc.o(i.ADCx_GetValue) for ADCx_GetValue
    arduino.o(i.analogRead) refers to gpio.o(.constdata) for PIN_MAP
    arduino.o(i.analogRead_DMA) refers to adc.o(i.ADC_DMA_GetValue) for ADC_DMA_GetValue
    arduino.o(i.analogRead_DMA) refers to gpio.o(.constdata) for PIN_MAP
    arduino.o(i.analogWrite) refers to pwm.o(i.pwmWrite) for pwmWrite
    arduino.o(i.analogWrite) refers to gpio.o(.constdata) for PIN_MAP
    arduino.o(i.digitalRead) refers to gpio.o(.constdata) for PIN_MAP
    arduino.o(i.digitalWrite) refers to gpio.o(.constdata) for PIN_MAP
    arduino.o(i.fmap) refers to daddsub_clz.o(x$fpl$dsub) for __aeabi_dsub
    arduino.o(i.fmap) refers to dmul.o(x$fpl$dmul) for __aeabi_dmul
    arduino.o(i.fmap) refers to ddiv.o(x$fpl$ddiv) for __aeabi_ddiv
    arduino.o(i.fmap) refers to daddsub_clz.o(x$fpl$dadd) for __aeabi_dadd
    arduino.o(i.pinMode) refers to adc.o(i.ADC_DMA_Register) for ADC_DMA_Register
    arduino.o(i.pinMode) refers to gpio.o(i.GPIOx_Init) for GPIOx_Init
    arduino.o(i.pinMode) refers to gpio.o(.constdata) for PIN_MAP
    arduino.o(i.pulseIn) refers to lludivv7m.o(.text) for __aeabi_uldivmod
    arduino.o(i.pulseIn) refers to gpio.o(.constdata) for PIN_MAP
    arduino.o(i.pulseIn) refers to system_stm32f4xx.o(.data) for SystemCoreClock
    arduino.o(i.shiftIn) refers to arduino.o(i.digitalWrite) for digitalWrite
    arduino.o(i.shiftIn) refers to arduino.o(i.digitalRead) for digitalRead
    arduino.o(i.shiftOut) refers to arduino.o(i.digitalWrite) for digitalWrite
    arduino.o(i.shiftOut) refers to gpio.o(.constdata) for PIN_MAP
    dtostrf.o(i.dtostrf) refers to _printf_percent.o(.ARM.Collect$$_printf_percent$$00000000) for _printf_percent
    dtostrf.o(i.dtostrf) refers to _printf_d.o(.ARM.Collect$$_printf_percent$$00000009) for _printf_d
    dtostrf.o(i.dtostrf) refers to _printf_dec.o(.text) for _printf_int_dec
    dtostrf.o(i.dtostrf) refers to _printf_pad.o(.text) for _printf_pre_padding
    dtostrf.o(i.dtostrf) refers to _printf_f.o(.ARM.Collect$$_printf_percent$$00000003) for _printf_f
    dtostrf.o(i.dtostrf) refers to _printf_e.o(.ARM.Collect$$_printf_percent$$00000004) for _printf_e
    dtostrf.o(i.dtostrf) refers to _printf_g.o(.ARM.Collect$$_printf_percent$$00000005) for _printf_g
    dtostrf.o(i.dtostrf) refers to _printf_a.o(.ARM.Collect$$_printf_percent$$00000006) for _printf_a
    dtostrf.o(i.dtostrf) refers to printf2.o(x$fpl$printf2) for _printf_fp_hex
    dtostrf.o(i.dtostrf) refers to printf1.o(x$fpl$printf1) for _printf_fp_dec
    dtostrf.o(i.dtostrf) refers to __2sprintf.o(.text) for __2sprintf
    itoa.o(i.itoa) refers to itoa.o(i.ltoa) for ltoa
    itoa.o(i.utoa) refers to itoa.o(i.ultoa) for ultoa
    print.o(i._ZN5Print10printFloatEdh) refers to drleqf.o(x$fpl$drleqf) for __aeabi_cdrcmple
    print.o(i._ZN5Print10printFloatEdh) refers to basic.o(x$fpl$basic) for __aeabi_dneg
    print.o(i._ZN5Print10printFloatEdh) refers to dleqf.o(x$fpl$dleqf) for __aeabi_cdcmple
    print.o(i._ZN5Print10printFloatEdh) refers to print.o(i._ZN5Print5printEc) for Print::print(char)
    print.o(i._ZN5Print10printFloatEdh) refers to print.o(i._ZN5Print5printEPKc) for Print::print(const char*)
    print.o(i._ZN5Print10printFloatEdh) refers to ddiv.o(x$fpl$ddiv) for __aeabi_ddiv
    print.o(i._ZN5Print10printFloatEdh) refers to daddsub_clz.o(x$fpl$dadd) for __aeabi_dadd
    print.o(i._ZN5Print10printFloatEdh) refers to dfixll.o(x$fpl$llsfromd) for __aeabi_d2lz
    print.o(i._ZN5Print10printFloatEdh) refers to dfltll_clz.o(x$fpl$dfltll) for __aeabi_l2d
    print.o(i._ZN5Print10printFloatEdh) refers to daddsub_clz.o(x$fpl$drsb) for __aeabi_drsub
    print.o(i._ZN5Print10printFloatEdh) refers to print.o(i._ZN5Print5printExi) for Print::print(long long, int)
    print.o(i._ZN5Print10printFloatEdh) refers to dmul.o(x$fpl$dmul) for __aeabi_dmul
    print.o(i._ZN5Print10printFloatEdh) refers to dfix.o(x$fpl$dfix) for __aeabi_d2iz
    print.o(i._ZN5Print10printFloatEdh) refers to print.o(i._ZN5Print5printEii) for Print::print(int, int)
    print.o(i._ZN5Print10printFloatEdh) refers to dflt_clz.o(x$fpl$dflt) for __aeabi_i2d
    print.o(i._ZN5Print11printNumberEyh) refers to print.o(i._ZN5Print5printEc) for Print::print(char)
    print.o(i._ZN5Print11printNumberEyh) refers to lludivv7m.o(.text) for __aeabi_uldivmod
    print.o(i._ZN5Print5printEPK19__FlashStringHelper) refers to print.o(i._ZN5Print5printEPKc) for Print::print(const char*)
    print.o(i._ZN5Print5printEdi) refers to print.o(i._ZN5Print10printFloatEdh) for Print::printFloat(double, unsigned char)
    print.o(i._ZN5Print5printEhi) refers to print.o(i._ZN5Print5printEyi) for Print::print(unsigned long long, int)
    print.o(i._ZN5Print5printEii) refers to print.o(i._ZN5Print5printExi) for Print::print(long long, int)
    print.o(i._ZN5Print5printEji) refers to print.o(i._ZN5Print5printEyi) for Print::print(unsigned long long, int)
    print.o(i._ZN5Print5printEli) refers to print.o(i._ZN5Print5printExi) for Print::print(long long, int)
    print.o(i._ZN5Print5printEmi) refers to print.o(i._ZN5Print5printEyi) for Print::print(unsigned long long, int)
    print.o(i._ZN5Print5printExi) refers to print.o(i._ZN5Print5printEc) for Print::print(char)
    print.o(i._ZN5Print5printExi) refers to print.o(i._ZN5Print11printNumberEyh) for Print::printNumber(unsigned long long, unsigned char)
    print.o(i._ZN5Print5printEyi) refers to print.o(i._ZN5Print11printNumberEyh) for Print::printNumber(unsigned long long, unsigned char)
    print.o(i._ZN5Print6printfEPKcz) refers to c89vsnprintf.o(.text) for __c89vsnprintf
    print.o(i._ZN5Print6printfEPKcz) refers to print.o(i._ZN5Print5printEPKc) for Print::print(const char*)
    print.o(i._ZN5Print7printlnEPK19__FlashStringHelper) refers to print.o(i._ZN5Print5printEPK19__FlashStringHelper) for Print::print(const __FlashStringHelper*)
    print.o(i._ZN5Print7printlnEPK19__FlashStringHelper) refers to print.o(i._ZN5Print7printlnEv) for Print::println()
    print.o(i._ZN5Print7printlnEPKc) refers to print.o(i._ZN5Print5printEPKc) for Print::print(const char*)
    print.o(i._ZN5Print7printlnEPKc) refers to print.o(i._ZN5Print7printlnEv) for Print::println()
    print.o(i._ZN5Print7printlnERK6String) refers to print.o(i._ZN5Print5printERK6String) for Print::print(const String&)
    print.o(i._ZN5Print7printlnERK6String) refers to print.o(i._ZN5Print7printlnEv) for Print::println()
    print.o(i._ZN5Print7printlnERK9Printable) refers to print.o(i._ZN5Print5printERK9Printable) for Print::print(const Printable&)
    print.o(i._ZN5Print7printlnERK9Printable) refers to print.o(i._ZN5Print7printlnEv) for Print::println()
    print.o(i._ZN5Print7printlnEc) refers to print.o(i._ZN5Print5printEc) for Print::print(char)
    print.o(i._ZN5Print7printlnEc) refers to print.o(i._ZN5Print7printlnEv) for Print::println()
    print.o(i._ZN5Print7printlnEdi) refers to print.o(i._ZN5Print5printEdi) for Print::print(double, int)
    print.o(i._ZN5Print7printlnEdi) refers to print.o(i._ZN5Print7printlnEv) for Print::println()
    print.o(i._ZN5Print7printlnEhi) refers to print.o(i._ZN5Print5printEhi) for Print::print(unsigned char, int)
    print.o(i._ZN5Print7printlnEhi) refers to print.o(i._ZN5Print7printlnEv) for Print::println()
    print.o(i._ZN5Print7printlnEii) refers to print.o(i._ZN5Print5printEii) for Print::print(int, int)
    print.o(i._ZN5Print7printlnEii) refers to print.o(i._ZN5Print7printlnEv) for Print::println()
    print.o(i._ZN5Print7printlnEji) refers to print.o(i._ZN5Print5printEji) for Print::print(unsigned, int)
    print.o(i._ZN5Print7printlnEji) refers to print.o(i._ZN5Print7printlnEv) for Print::println()
    print.o(i._ZN5Print7printlnEli) refers to print.o(i._ZN5Print5printExi) for Print::print(long long, int)
    print.o(i._ZN5Print7printlnEli) refers to print.o(i._ZN5Print7printlnEv) for Print::println()
    print.o(i._ZN5Print7printlnEmi) refers to print.o(i._ZN5Print5printEyi) for Print::print(unsigned long long, int)
    print.o(i._ZN5Print7printlnEmi) refers to print.o(i._ZN5Print7printlnEv) for Print::println()
    print.o(i._ZN5Print7printlnEv) refers to print.o(i._ZN5Print5printEc) for Print::print(char)
    print.o(i._ZN5Print7printlnExi) refers to print.o(i._ZN5Print5printExi) for Print::print(long long, int)
    print.o(i._ZN5Print7printlnExi) refers to print.o(i._ZN5Print7printlnEv) for Print::println()
    print.o(i._ZN5Print7printlnEyi) refers to print.o(i._ZN5Print5printEyi) for Print::print(unsigned long long, int)
    print.o(i._ZN5Print7printlnEyi) refers to print.o(i._ZN5Print7printlnEv) for Print::println()
    print.o(.ARM.exidx) refers to print.o(i._ZN5Print5writeEPKc) for i._ZN5Print5writeEPKc
    print.o(.ARM.exidx) refers to print.o(i._ZN5Print5writeEPKvj) for i._ZN5Print5writeEPKvj
    print.o(.ARM.exidx) refers to print.o(i._ZN5Print5printERK6String) for i._ZN5Print5printERK6String
    print.o(.ARM.exidx) refers to print.o(i._ZN5Print5printEc) for i._ZN5Print5printEc
    print.o(.ARM.exidx) refers to print.o(i._ZN5Print5printEPKc) for i._ZN5Print5printEPKc
    print.o(.ARM.exidx) refers to print.o(i._ZN5Print11printNumberEyh) for i._ZN5Print11printNumberEyh
    print.o(.ARM.exidx) refers to print.o(i._ZN5Print5printEyi) for i._ZN5Print5printEyi
    print.o(.ARM.exidx) refers to print.o(i._ZN5Print5printEhi) for i._ZN5Print5printEhi
    print.o(.ARM.exidx) refers to print.o(i._ZN5Print5printExi) for i._ZN5Print5printExi
    print.o(.ARM.exidx) refers to print.o(i._ZN5Print5printEii) for i._ZN5Print5printEii
    print.o(.ARM.exidx) refers to print.o(i._ZN5Print5printEji) for i._ZN5Print5printEji
    print.o(.ARM.exidx) refers to print.o(i._ZN5Print5printEli) for i._ZN5Print5printEli
    print.o(.ARM.exidx) refers to print.o(i._ZN5Print5printEmi) for i._ZN5Print5printEmi
    print.o(.ARM.exidx) refers to print.o(i._ZN5Print10printFloatEdh) for i._ZN5Print10printFloatEdh
    print.o(.ARM.exidx) refers to print.o(i._ZN5Print5printEdi) for i._ZN5Print5printEdi
    print.o(.ARM.exidx) refers to print.o(i._ZN5Print5printEPK19__FlashStringHelper) for i._ZN5Print5printEPK19__FlashStringHelper
    print.o(.ARM.exidx) refers to print.o(i._ZN5Print5printERK9Printable) for i._ZN5Print5printERK9Printable
    print.o(.ARM.exidx) refers to print.o(i._ZN5Print7printlnEv) for i._ZN5Print7printlnEv
    print.o(.ARM.exidx) refers to print.o(i._ZN5Print7printlnERK6String) for i._ZN5Print7printlnERK6String
    print.o(.ARM.exidx) refers to print.o(i._ZN5Print7printlnEc) for i._ZN5Print7printlnEc
    print.o(.ARM.exidx) refers to print.o(i._ZN5Print7printlnEPKc) for i._ZN5Print7printlnEPKc
    print.o(.ARM.exidx) refers to print.o(i._ZN5Print7printlnEhi) for i._ZN5Print7printlnEhi
    print.o(.ARM.exidx) refers to print.o(i._ZN5Print7printlnEii) for i._ZN5Print7printlnEii
    print.o(.ARM.exidx) refers to print.o(i._ZN5Print7printlnEji) for i._ZN5Print7printlnEji
    print.o(.ARM.exidx) refers to print.o(i._ZN5Print7printlnEli) for i._ZN5Print7printlnEli
    print.o(.ARM.exidx) refers to print.o(i._ZN5Print7printlnEmi) for i._ZN5Print7printlnEmi
    print.o(.ARM.exidx) refers to print.o(i._ZN5Print7printlnExi) for i._ZN5Print7printlnExi
    print.o(.ARM.exidx) refers to print.o(i._ZN5Print7printlnEyi) for i._ZN5Print7printlnEyi
    print.o(.ARM.exidx) refers to print.o(i._ZN5Print7printlnEdi) for i._ZN5Print7printlnEdi
    print.o(.ARM.exidx) refers to print.o(i._ZN5Print7printlnEPK19__FlashStringHelper) for i._ZN5Print7printlnEPK19__FlashStringHelper
    print.o(.ARM.exidx) refers to print.o(i._ZN5Print7printlnERK9Printable) for i._ZN5Print7printlnERK9Printable
    print.o(.ARM.exidx) refers to print.o(i._ZN5Print6printfEPKcz) for i._ZN5Print6printfEPKcz
    wstring.o(i._ZN6String10invalidateEv) refers to h1_free.o(.text) for free
    wstring.o(i._ZN6String11toLowerCaseEv) refers to tolower.o(.text) for tolower
    wstring.o(i._ZN6String11toUpperCaseEv) refers to toupper.o(.text) for toupper
    wstring.o(i._ZN6String12changeBufferEj) refers to h1_realloc.o(.text) for realloc
    wstring.o(i._ZN6String4copyEPK19__FlashStringHelperj) refers to wstring.o(i._ZN6String7reserveEj) for String::reserve(unsigned)
    wstring.o(i._ZN6String4copyEPK19__FlashStringHelperj) refers to wstring.o(i._ZN6String10invalidateEv) for String::invalidate()
    wstring.o(i._ZN6String4copyEPK19__FlashStringHelperj) refers to strcpy.o(.text) for strcpy
    wstring.o(i._ZN6String4copyEPKcj) refers to wstring.o(i._ZN6String7reserveEj) for String::reserve(unsigned)
    wstring.o(i._ZN6String4copyEPKcj) refers to wstring.o(i._ZN6String10invalidateEv) for String::invalidate()
    wstring.o(i._ZN6String4copyEPKcj) refers to strcpy.o(.text) for strcpy
    wstring.o(i._ZN6String4trimEv) refers to wstring.o(i.isspace) for isspace
    wstring.o(i._ZN6String4trimEv) refers to rt_memcpy_v6.o(.text) for __aeabi_memcpy
    wstring.o(i._ZN6String6concatEPK19__FlashStringHelper) refers to strlen.o(.text) for strlen
    wstring.o(i._ZN6String6concatEPK19__FlashStringHelper) refers to wstring.o(i._ZN6String7reserveEj) for String::reserve(unsigned)
    wstring.o(i._ZN6String6concatEPK19__FlashStringHelper) refers to strcpy.o(.text) for strcpy
    wstring.o(i._ZN6String6concatEPKc) refers to strlen.o(.text) for strlen
    wstring.o(i._ZN6String6concatEPKc) refers to wstring.o(i._ZN6String6concatEPKcj) for String::concat(const char*, unsigned)
    wstring.o(i._ZN6String6concatEPKcj) refers to wstring.o(i._ZN6String7reserveEj) for String::reserve(unsigned)
    wstring.o(i._ZN6String6concatEPKcj) refers to strcpy.o(.text) for strcpy
    wstring.o(i._ZN6String6concatERKS_) refers to wstring.o(i._ZN6String6concatEPKcj) for String::concat(const char*, unsigned)
    wstring.o(i._ZN6String6concatEc) refers to wstring.o(i._ZN6String6concatEPKcj) for String::concat(const char*, unsigned)
    wstring.o(i._ZN6String6concatEd) refers to dtostrf.o(i.dtostrf) for dtostrf
    wstring.o(i._ZN6String6concatEd) refers to strlen.o(.text) for strlen
    wstring.o(i._ZN6String6concatEd) refers to wstring.o(i._ZN6String6concatEPKcj) for String::concat(const char*, unsigned)
    wstring.o(i._ZN6String6concatEf) refers to f2d.o(x$fpl$f2d) for __aeabi_f2d
    wstring.o(i._ZN6String6concatEf) refers to dtostrf.o(i.dtostrf) for dtostrf
    wstring.o(i._ZN6String6concatEf) refers to strlen.o(.text) for strlen
    wstring.o(i._ZN6String6concatEf) refers to wstring.o(i._ZN6String6concatEPKcj) for String::concat(const char*, unsigned)
    wstring.o(i._ZN6String6concatEh) refers to itoa.o(i.itoa) for itoa
    wstring.o(i._ZN6String6concatEh) refers to strlen.o(.text) for strlen
    wstring.o(i._ZN6String6concatEh) refers to wstring.o(i._ZN6String6concatEPKcj) for String::concat(const char*, unsigned)
    wstring.o(i._ZN6String6concatEi) refers to itoa.o(i.itoa) for itoa
    wstring.o(i._ZN6String6concatEi) refers to strlen.o(.text) for strlen
    wstring.o(i._ZN6String6concatEi) refers to wstring.o(i._ZN6String6concatEPKcj) for String::concat(const char*, unsigned)
    wstring.o(i._ZN6String6concatEj) refers to itoa.o(i.utoa) for utoa
    wstring.o(i._ZN6String6concatEj) refers to strlen.o(.text) for strlen
    wstring.o(i._ZN6String6concatEj) refers to wstring.o(i._ZN6String6concatEPKcj) for String::concat(const char*, unsigned)
    wstring.o(i._ZN6String6concatEl) refers to itoa.o(i.ltoa) for ltoa
    wstring.o(i._ZN6String6concatEl) refers to strlen.o(.text) for strlen
    wstring.o(i._ZN6String6concatEl) refers to wstring.o(i._ZN6String6concatEPKcj) for String::concat(const char*, unsigned)
    wstring.o(i._ZN6String6concatEm) refers to itoa.o(i.ultoa) for ultoa
    wstring.o(i._ZN6String6concatEm) refers to strlen.o(.text) for strlen
    wstring.o(i._ZN6String6concatEm) refers to wstring.o(i._ZN6String6concatEPKcj) for String::concat(const char*, unsigned)
    wstring.o(i._ZN6String6removeEj) refers to wstring.o(i._ZN6String6removeEjj) for String::remove(unsigned, unsigned)
    wstring.o(i._ZN6String6removeEjj) refers to strncpy.o(.text) for strncpy
    wstring.o(i._ZN6String7replaceERKS_S1_) refers to rt_memcpy_v6.o(.text) for __aeabi_memcpy
    wstring.o(i._ZN6String7replaceERKS_S1_) refers to wstring.o(i._ZSt6strstrPcPKc) for std::strstr(char*, const char*)
    wstring.o(i._ZN6String7replaceERKS_S1_) refers to strcpy.o(.text) for strcpy
    wstring.o(i._ZN6String7replaceERKS_S1_) refers to wstring.o(i._ZN6String12changeBufferEj) for String::changeBuffer(unsigned)
    wstring.o(i._ZN6String7replaceERKS_S1_) refers to rt_memmove_v6.o(.text) for __aeabi_memmove
    wstring.o(i._ZN6String7replaceERKS_S1_) refers to wstring.o(i._ZNK6String11lastIndexOfERKS_j) for String::lastIndexOf(const String&, unsigned) const
    wstring.o(i._ZN6String7reserveEj) refers to wstring.o(i._ZN6String12changeBufferEj) for String::changeBuffer(unsigned)
    wstring.o(i._ZN6String7sprintfEPKcz) refers to c89vsnprintf.o(.text) for __c89vsnprintf
    wstring.o(i._ZN6String7sprintfEPKcz) refers to strlen.o(.text) for strlen
    wstring.o(i._ZN6String7sprintfEPKcz) refers to wstring.o(i._ZN6String4copyEPKcj) for String::copy(const char*, unsigned)
    wstring.o(i._ZN6StringC1EPK19__FlashStringHelper) refers to wstring.o(i._ZN6String4initEv) for String::init()
    wstring.o(i._ZN6StringC1EPK19__FlashStringHelper) refers to wstring.o(i._ZN6StringaSEPK19__FlashStringHelper) for String::operator =(const __FlashStringHelper*)
    wstring.o(i._ZN6StringC1EPKc) refers to wstring.o(i._ZN6String4initEv) for String::init()
    wstring.o(i._ZN6StringC1EPKc) refers to strlen.o(.text) for strlen
    wstring.o(i._ZN6StringC1EPKc) refers to wstring.o(i._ZN6String4copyEPKcj) for String::copy(const char*, unsigned)
    wstring.o(i._ZN6StringC1ERKS_) refers to wstring.o(i._ZN6String4initEv) for String::init()
    wstring.o(i._ZN6StringC1ERKS_) refers to wstring.o(i._ZN6StringaSERKS_) for String::operator =(const String&)
    wstring.o(i._ZN6StringC1Ec) refers to wstring.o(i._ZN6String4initEv) for String::init()
    wstring.o(i._ZN6StringC1Ec) refers to wstring.o(i._ZN6StringaSEPKc) for String::operator =(const char*)
    wstring.o(i._ZN6StringC1Edh) refers to wstring.o(i._ZN6String4initEv) for String::init()
    wstring.o(i._ZN6StringC1Edh) refers to dtostrf.o(i.dtostrf) for dtostrf
    wstring.o(i._ZN6StringC1Edh) refers to wstring.o(i._ZN6StringaSEPKc) for String::operator =(const char*)
    wstring.o(i._ZN6StringC1Efh) refers to wstring.o(i._ZN6String4initEv) for String::init()
    wstring.o(i._ZN6StringC1Efh) refers to f2d.o(x$fpl$f2d) for __aeabi_f2d
    wstring.o(i._ZN6StringC1Efh) refers to dtostrf.o(i.dtostrf) for dtostrf
    wstring.o(i._ZN6StringC1Efh) refers to wstring.o(i._ZN6StringaSEPKc) for String::operator =(const char*)
    wstring.o(i._ZN6StringC1Ehh) refers to wstring.o(i._ZN6String4initEv) for String::init()
    wstring.o(i._ZN6StringC1Ehh) refers to itoa.o(i.utoa) for utoa
    wstring.o(i._ZN6StringC1Ehh) refers to wstring.o(i._ZN6StringaSEPKc) for String::operator =(const char*)
    wstring.o(i._ZN6StringC1Eih) refers to wstring.o(i._ZN6String4initEv) for String::init()
    wstring.o(i._ZN6StringC1Eih) refers to itoa.o(i.itoa) for itoa
    wstring.o(i._ZN6StringC1Eih) refers to wstring.o(i._ZN6StringaSEPKc) for String::operator =(const char*)
    wstring.o(i._ZN6StringC1Ejh) refers to wstring.o(i._ZN6String4initEv) for String::init()
    wstring.o(i._ZN6StringC1Ejh) refers to itoa.o(i.utoa) for utoa
    wstring.o(i._ZN6StringC1Ejh) refers to wstring.o(i._ZN6StringaSEPKc) for String::operator =(const char*)
    wstring.o(i._ZN6StringC1Elh) refers to wstring.o(i._ZN6String4initEv) for String::init()
    wstring.o(i._ZN6StringC1Elh) refers to itoa.o(i.ltoa) for ltoa
    wstring.o(i._ZN6StringC1Elh) refers to wstring.o(i._ZN6StringaSEPKc) for String::operator =(const char*)
    wstring.o(i._ZN6StringC1Emh) refers to wstring.o(i._ZN6String4initEv) for String::init()
    wstring.o(i._ZN6StringC1Emh) refers to itoa.o(i.ultoa) for ultoa
    wstring.o(i._ZN6StringC1Emh) refers to wstring.o(i._ZN6StringaSEPKc) for String::operator =(const char*)
    wstring.o(i._ZN6StringD1Ev) refers to h1_free.o(.text) for free
    wstring.o(i._ZN6StringaSEPK19__FlashStringHelper) refers to strlen.o(.text) for strlen
    wstring.o(i._ZN6StringaSEPK19__FlashStringHelper) refers to wstring.o(i._ZN6String4copyEPK19__FlashStringHelperj) for String::copy(const __FlashStringHelper*, unsigned)
    wstring.o(i._ZN6StringaSEPK19__FlashStringHelper) refers to wstring.o(i._ZN6String10invalidateEv) for String::invalidate()
    wstring.o(i._ZN6StringaSEPKc) refers to strlen.o(.text) for strlen
    wstring.o(i._ZN6StringaSEPKc) refers to wstring.o(i._ZN6String4copyEPKcj) for String::copy(const char*, unsigned)
    wstring.o(i._ZN6StringaSEPKc) refers to wstring.o(i._ZN6String10invalidateEv) for String::invalidate()
    wstring.o(i._ZN6StringaSERKS_) refers to wstring.o(i._ZN6String4copyEPKcj) for String::copy(const char*, unsigned)
    wstring.o(i._ZN6StringaSERKS_) refers to wstring.o(i._ZN6String10invalidateEv) for String::invalidate()
    wstring.o(i._ZN6StringixEj) refers to wstring.o(.data) for dummy_writable_char
    wstring.o(i._ZNK6String10startsWithERKS_) refers to wstring.o(i._ZNK6String10startsWithERKS_j) for String::startsWith(const String&, unsigned) const
    wstring.o(i._ZNK6String10startsWithERKS_j) refers to strncmp.o(.text) for strncmp
    wstring.o(i._ZNK6String11lastIndexOfERKS_) refers to wstring.o(i._ZNK6String11lastIndexOfERKS_j) for String::lastIndexOf(const String&, unsigned) const
    wstring.o(i._ZNK6String11lastIndexOfERKS_j) refers to wstring.o(i._ZSt6strstrPcPKc) for std::strstr(char*, const char*)
    wstring.o(i._ZNK6String11lastIndexOfEc) refers to wstring.o(i._ZNK6String11lastIndexOfEcj) for String::lastIndexOf(char, unsigned) const
    wstring.o(i._ZNK6String11lastIndexOfEcj) refers to strrchr.o(.text) for strrchr
    wstring.o(i._ZNK6String16equalsIgnoreCaseERKS_) refers to tolower.o(.text) for tolower
    wstring.o(i._ZNK6String5toIntEv) refers to atol.o(.text) for atol
    wstring.o(i._ZNK6String6charAtEj) refers to wstring.o(i._ZNK6StringixEj) for String::operator [](unsigned) const
    wstring.o(i._ZNK6String6equalsEPKc) refers to strcmpv7m.o(.text) for strcmp
    wstring.o(i._ZNK6String6equalsERKS_) refers to wstring.o(i._ZNK6String9compareToERKS_) for String::compareTo(const String&) const
    wstring.o(i._ZNK6String7indexOfERKS_) refers to wstring.o(i._ZNK6String7indexOfERKS_j) for String::indexOf(const String&, unsigned) const
    wstring.o(i._ZNK6String7indexOfERKS_j) refers to wstring.o(i._ZSt6strstrPcPKc) for std::strstr(char*, const char*)
    wstring.o(i._ZNK6String7indexOfEc) refers to wstring.o(i._ZNK6String7indexOfEcj) for String::indexOf(char, unsigned) const
    wstring.o(i._ZNK6String7indexOfEcj) refers to strchr.o(.text) for strchr
    wstring.o(i._ZNK6String7toFloatEv) refers to atof.o(i.__hardfp_atof) for __hardfp_atof
    wstring.o(i._ZNK6String7toFloatEv) refers to d2f.o(x$fpl$d2f) for __aeabi_d2f
    wstring.o(i._ZNK6String8endsWithERKS_) refers to strcmpv7m.o(.text) for strcmp
    wstring.o(i._ZNK6String8getBytesEPhjj) refers to strncpy.o(.text) for strncpy
    wstring.o(i._ZNK6String9compareToERKS_) refers to strcmpv7m.o(.text) for strcmp
    wstring.o(i._ZNK6String9substringEjj) refers to wstring.o(i._ZN6StringC1EPKc) for String::String(const char*)
    wstring.o(i._ZNK6String9substringEjj) refers to wstring.o(i._ZN6StringaSEPKc) for String::operator =(const char*)
    wstring.o(i._ZNK6StringgeERKS_) refers to wstring.o(i._ZNK6String9compareToERKS_) for String::compareTo(const String&) const
    wstring.o(i._ZNK6StringgtERKS_) refers to wstring.o(i._ZNK6String9compareToERKS_) for String::compareTo(const String&) const
    wstring.o(i._ZNK6StringleERKS_) refers to wstring.o(i._ZNK6String9compareToERKS_) for String::compareTo(const String&) const
    wstring.o(i._ZNK6StringltERKS_) refers to wstring.o(i._ZNK6String9compareToERKS_) for String::compareTo(const String&) const
    wstring.o(i._ZplRK15StringSumHelperPK19__FlashStringHelper) refers to wstring.o(i._ZN6String6concatEPK19__FlashStringHelper) for String::concat(const __FlashStringHelper*)
    wstring.o(i._ZplRK15StringSumHelperPK19__FlashStringHelper) refers to wstring.o(i._ZN6String10invalidateEv) for String::invalidate()
    wstring.o(i._ZplRK15StringSumHelperPKc) refers to strlen.o(.text) for strlen
    wstring.o(i._ZplRK15StringSumHelperPKc) refers to wstring.o(i._ZN6String6concatEPKcj) for String::concat(const char*, unsigned)
    wstring.o(i._ZplRK15StringSumHelperPKc) refers to wstring.o(i._ZN6String10invalidateEv) for String::invalidate()
    wstring.o(i._ZplRK15StringSumHelperRK6String) refers to wstring.o(i._ZN6String6concatEPKcj) for String::concat(const char*, unsigned)
    wstring.o(i._ZplRK15StringSumHelperRK6String) refers to wstring.o(i._ZN6String10invalidateEv) for String::invalidate()
    wstring.o(i._ZplRK15StringSumHelperc) refers to wstring.o(i._ZN6String6concatEc) for String::concat(char)
    wstring.o(i._ZplRK15StringSumHelperc) refers to wstring.o(i._ZN6String10invalidateEv) for String::invalidate()
    wstring.o(i._ZplRK15StringSumHelperd) refers to wstring.o(i._ZN6String6concatEd) for String::concat(double)
    wstring.o(i._ZplRK15StringSumHelperd) refers to wstring.o(i._ZN6String10invalidateEv) for String::invalidate()
    wstring.o(i._ZplRK15StringSumHelperf) refers to wstring.o(i._ZN6String6concatEf) for String::concat(float)
    wstring.o(i._ZplRK15StringSumHelperf) refers to wstring.o(i._ZN6String10invalidateEv) for String::invalidate()
    wstring.o(i._ZplRK15StringSumHelperh) refers to wstring.o(i._ZN6String6concatEh) for String::concat(unsigned char)
    wstring.o(i._ZplRK15StringSumHelperh) refers to wstring.o(i._ZN6String10invalidateEv) for String::invalidate()
    wstring.o(i._ZplRK15StringSumHelperi) refers to wstring.o(i._ZN6String6concatEi) for String::concat(int)
    wstring.o(i._ZplRK15StringSumHelperi) refers to wstring.o(i._ZN6String10invalidateEv) for String::invalidate()
    wstring.o(i._ZplRK15StringSumHelperj) refers to wstring.o(i._ZN6String6concatEj) for String::concat(unsigned)
    wstring.o(i._ZplRK15StringSumHelperj) refers to wstring.o(i._ZN6String10invalidateEv) for String::invalidate()
    wstring.o(i._ZplRK15StringSumHelperl) refers to wstring.o(i._ZN6String6concatEl) for String::concat(long)
    wstring.o(i._ZplRK15StringSumHelperl) refers to wstring.o(i._ZN6String10invalidateEv) for String::invalidate()
    wstring.o(i._ZplRK15StringSumHelperm) refers to wstring.o(i._ZN6String6concatEm) for String::concat(unsigned long)
    wstring.o(i._ZplRK15StringSumHelperm) refers to wstring.o(i._ZN6String10invalidateEv) for String::invalidate()
    wstring.o(.ARM.exidx) refers to wstring.o(i._ZN6String10invalidateEv) for i._ZN6String10invalidateEv
    wstring.o(.ARM.exidx) refers to wstring.o(i._ZN6String12changeBufferEj) for i._ZN6String12changeBufferEj
    wstring.o(.ARM.exidx) refers to wstring.o(i._ZN6String7reserveEj) for i._ZN6String7reserveEj
    wstring.o(.ARM.exidx) refers to wstring.o(i._ZN6String6concatEPKcj) for i._ZN6String6concatEPKcj
    wstring.o(.ARM.exidx) refers to wstring.o(i._ZplRK15StringSumHelperRK6String) for i._ZplRK15StringSumHelperRK6String
    wstring.o(.ARM.exidx) refers to wstring.o(i._ZplRK15StringSumHelperPKc) for i._ZplRK15StringSumHelperPKc
    wstring.o(.ARM.exidx) refers to wstring.o(i._ZN6String6concatEc) for i._ZN6String6concatEc
    wstring.o(.ARM.exidx) refers to wstring.o(i._ZplRK15StringSumHelperc) for i._ZplRK15StringSumHelperc
    wstring.o(.ARM.exidx) refers to wstring.o(i._ZN6String6concatEh) for i._ZN6String6concatEh
    wstring.o(.ARM.exidx) refers to wstring.o(i._ZplRK15StringSumHelperh) for i._ZplRK15StringSumHelperh
    wstring.o(.ARM.exidx) refers to wstring.o(i._ZN6String6concatEi) for i._ZN6String6concatEi
    wstring.o(.ARM.exidx) refers to wstring.o(i._ZplRK15StringSumHelperi) for i._ZplRK15StringSumHelperi
    wstring.o(.ARM.exidx) refers to wstring.o(i._ZN6String6concatEj) for i._ZN6String6concatEj
    wstring.o(.ARM.exidx) refers to wstring.o(i._ZplRK15StringSumHelperj) for i._ZplRK15StringSumHelperj
    wstring.o(.ARM.exidx) refers to wstring.o(i._ZN6String6concatEl) for i._ZN6String6concatEl
    wstring.o(.ARM.exidx) refers to wstring.o(i._ZplRK15StringSumHelperl) for i._ZplRK15StringSumHelperl
    wstring.o(.ARM.exidx) refers to wstring.o(i._ZN6String6concatEm) for i._ZN6String6concatEm
    wstring.o(.ARM.exidx) refers to wstring.o(i._ZplRK15StringSumHelperm) for i._ZplRK15StringSumHelperm
    wstring.o(.ARM.exidx) refers to wstring.o(i._ZN6String6concatEf) for i._ZN6String6concatEf
    wstring.o(.ARM.exidx) refers to wstring.o(i._ZplRK15StringSumHelperf) for i._ZplRK15StringSumHelperf
    wstring.o(.ARM.exidx) refers to wstring.o(i._ZN6String6concatEd) for i._ZN6String6concatEd
    wstring.o(.ARM.exidx) refers to wstring.o(i._ZplRK15StringSumHelperd) for i._ZplRK15StringSumHelperd
    wstring.o(.ARM.exidx) refers to wstring.o(i._ZN6String6concatEPK19__FlashStringHelper) for i._ZN6String6concatEPK19__FlashStringHelper
    wstring.o(.ARM.exidx) refers to wstring.o(i._ZplRK15StringSumHelperPK19__FlashStringHelper) for i._ZplRK15StringSumHelperPK19__FlashStringHelper
    wstring.o(.ARM.exidx) refers to wstring.o(i._ZN6String4copyEPKcj) for i._ZN6String4copyEPKcj
    wstring.o(.ARM.exidx) refers to wstring.o(i._ZN6StringC1EPKc) for i._ZN6StringC1EPKc
    wstring.o(.ARM.exidx) refers to wstring.o(i._ZN6StringaSERKS_) for i._ZN6StringaSERKS_
    wstring.o(.ARM.exidx) refers to wstring.o(i._ZN6StringC1ERKS_) for i._ZN6StringC1ERKS_
    wstring.o(.ARM.exidx) refers to wstring.o(i._ZN6String4copyEPK19__FlashStringHelperj) for i._ZN6String4copyEPK19__FlashStringHelperj
    wstring.o(.ARM.exidx) refers to wstring.o(i._ZN6StringaSEPK19__FlashStringHelper) for i._ZN6StringaSEPK19__FlashStringHelper
    wstring.o(.ARM.exidx) refers to wstring.o(i._ZN6StringC1EPK19__FlashStringHelper) for i._ZN6StringC1EPK19__FlashStringHelper
    wstring.o(.ARM.exidx) refers to wstring.o(i._ZN6StringaSEPKc) for i._ZN6StringaSEPKc
    wstring.o(.ARM.exidx) refers to wstring.o(i._ZN6StringC1Ec) for i._ZN6StringC1Ec
    wstring.o(.ARM.exidx) refers to wstring.o(i._ZN6StringC1Ehh) for i._ZN6StringC1Ehh
    wstring.o(.ARM.exidx) refers to wstring.o(i._ZN6StringC1Eih) for i._ZN6StringC1Eih
    wstring.o(.ARM.exidx) refers to wstring.o(i._ZN6StringC1Ejh) for i._ZN6StringC1Ejh
    wstring.o(.ARM.exidx) refers to wstring.o(i._ZN6StringC1Elh) for i._ZN6StringC1Elh
    wstring.o(.ARM.exidx) refers to wstring.o(i._ZN6StringC1Emh) for i._ZN6StringC1Emh
    wstring.o(.ARM.exidx) refers to wstring.o(i._ZN6StringC1Efh) for i._ZN6StringC1Efh
    wstring.o(.ARM.exidx) refers to wstring.o(i._ZN6StringC1Edh) for i._ZN6StringC1Edh
    wstring.o(.ARM.exidx) refers to wstring.o(i._ZN6StringD1Ev) for i._ZN6StringD1Ev
    wstring.o(.ARM.exidx) refers to wstring.o(i._ZN6String6concatERKS_) for i._ZN6String6concatERKS_
    wstring.o(.ARM.exidx) refers to wstring.o(i._ZN6String6concatEPKc) for i._ZN6String6concatEPKc
    wstring.o(.ARM.exidx) refers to wstring.o(i._ZNK6String9compareToERKS_) for i._ZNK6String9compareToERKS_
    wstring.o(.ARM.exidx) refers to wstring.o(i._ZNK6String6equalsERKS_) for i._ZNK6String6equalsERKS_
    wstring.o(.ARM.exidx) refers to wstring.o(i._ZNK6String6equalsEPKc) for i._ZNK6String6equalsEPKc
    wstring.o(.ARM.exidx) refers to wstring.o(i._ZNK6StringltERKS_) for i._ZNK6StringltERKS_
    wstring.o(.ARM.exidx) refers to wstring.o(i._ZNK6StringgtERKS_) for i._ZNK6StringgtERKS_
    wstring.o(.ARM.exidx) refers to wstring.o(i._ZNK6StringleERKS_) for i._ZNK6StringleERKS_
    wstring.o(.ARM.exidx) refers to wstring.o(i._ZNK6StringgeERKS_) for i._ZNK6StringgeERKS_
    wstring.o(.ARM.exidx) refers to wstring.o(i._ZNK6String16equalsIgnoreCaseERKS_) for i._ZNK6String16equalsIgnoreCaseERKS_
    wstring.o(.ARM.exidx) refers to wstring.o(i._ZNK6String10startsWithERKS_j) for i._ZNK6String10startsWithERKS_j
    wstring.o(.ARM.exidx) refers to wstring.o(i._ZNK6String10startsWithERKS_) for i._ZNK6String10startsWithERKS_
    wstring.o(.ARM.exidx) refers to wstring.o(i._ZNK6String8endsWithERKS_) for i._ZNK6String8endsWithERKS_
    wstring.o(.ARM.exidx) refers to wstring.o(i._ZNK6StringixEj) for i._ZNK6StringixEj
    wstring.o(.ARM.exidx) refers to wstring.o(i._ZNK6String6charAtEj) for i._ZNK6String6charAtEj
    wstring.o(.ARM.exidx) refers to wstring.o(i._ZN6String9setCharAtEjc) for i._ZN6String9setCharAtEjc
    wstring.o(.ARM.exidx) refers to wstring.o(i._ZN6StringixEj) for i._ZN6StringixEj
    wstring.o(.ARM.exidx) refers to wstring.o(i._ZNK6String8getBytesEPhjj) for i._ZNK6String8getBytesEPhjj
    wstring.o(.ARM.exidx) refers to wstring.o(i._ZNK6String7indexOfEcj) for i._ZNK6String7indexOfEcj
    wstring.o(.ARM.exidx) refers to wstring.o(i._ZNK6String7indexOfEc) for i._ZNK6String7indexOfEc
    wstring.o(.ARM.exidx) refers to wstring.o(i._ZNK6String7indexOfERKS_j) for i._ZNK6String7indexOfERKS_j
    wstring.o(.ARM.exidx) refers to wstring.o(i._ZNK6String7indexOfERKS_) for i._ZNK6String7indexOfERKS_
    wstring.o(.ARM.exidx) refers to wstring.o(i._ZNK6String11lastIndexOfEcj) for i._ZNK6String11lastIndexOfEcj
    wstring.o(.ARM.exidx) refers to wstring.o(i._ZNK6String11lastIndexOfEc) for i._ZNK6String11lastIndexOfEc
    wstring.o(.ARM.exidx) refers to wstring.o(i._ZNK6String11lastIndexOfERKS_j) for i._ZNK6String11lastIndexOfERKS_j
    wstring.o(.ARM.exidx) refers to wstring.o(i._ZNK6String11lastIndexOfERKS_) for i._ZNK6String11lastIndexOfERKS_
    wstring.o(.ARM.exidx) refers to wstring.o(i._ZNK6String9substringEjj) for i._ZNK6String9substringEjj
    wstring.o(.ARM.exidx) refers to wstring.o(i._ZN6String7replaceEcc) for i._ZN6String7replaceEcc
    wstring.o(.ARM.exidx) refers to wstring.o(i._ZN6String7replaceERKS_S1_) for i._ZN6String7replaceERKS_S1_
    wstring.o(.ARM.exidx) refers to wstring.o(i._ZN6String6removeEjj) for i._ZN6String6removeEjj
    wstring.o(.ARM.exidx) refers to wstring.o(i._ZN6String6removeEj) for i._ZN6String6removeEj
    wstring.o(.ARM.exidx) refers to wstring.o(i._ZN6String11toLowerCaseEv) for i._ZN6String11toLowerCaseEv
    wstring.o(.ARM.exidx) refers to wstring.o(i._ZN6String11toUpperCaseEv) for i._ZN6String11toUpperCaseEv
    wstring.o(.ARM.exidx) refers to wstring.o(i._ZN6String4trimEv) for i._ZN6String4trimEv
    wstring.o(.ARM.exidx) refers to wstring.o(i._ZNK6String5toIntEv) for i._ZNK6String5toIntEv
    wstring.o(.ARM.exidx) refers to wstring.o(i._ZNK6String7toFloatEv) for i._ZNK6String7toFloatEv
    wstring.o(.ARM.exidx) refers to wstring.o(i._ZN6String7sprintfEPKcz) for i._ZN6String7sprintfEPKcz
    stream.o(i._ZN6Stream10parseFloatEc) refers to stream.o(i._ZN6Stream13peekNextDigitEv) for Stream::peekNextDigit()
    stream.o(i._ZN6Stream10parseFloatEc) refers to stream.o(i._ZN6Stream9timedPeekEv) for Stream::timedPeek()
    stream.o(i._ZN6Stream10parseFloatEv) refers to stream.o(i._ZN6Stream10parseFloatEc) for Stream::parseFloat(char)
    stream.o(i._ZN6Stream10readStringEv) refers to wstring.o(i._ZN6StringC1EPKc) for String::String(const char*)
    stream.o(i._ZN6Stream10readStringEv) refers to stream.o(i._ZN6Stream9timedReadEv) for Stream::timedRead()
    stream.o(i._ZN6Stream10readStringEv) refers to stream.o(i._ZN6StringpLEc) for String::operator +=(char)
    stream.o(i._ZN6Stream13peekNextDigitEv) refers to stream.o(i._ZN6Stream9timedPeekEv) for Stream::timedPeek()
    stream.o(i._ZN6Stream14readBytesUntilEcPcj) refers to stream.o(i._ZN6Stream9timedReadEv) for Stream::timedRead()
    stream.o(i._ZN6Stream15readStringUntilEc) refers to wstring.o(i._ZN6StringC1EPKc) for String::String(const char*)
    stream.o(i._ZN6Stream15readStringUntilEc) refers to stream.o(i._ZN6Stream9timedReadEv) for Stream::timedRead()
    stream.o(i._ZN6Stream15readStringUntilEc) refers to stream.o(i._ZN6StringpLEc) for String::operator +=(char)
    stream.o(i._ZN6Stream4findEPc) refers to stream.o(i._ZN6Stream9findUntilEPcS0_) for Stream::findUntil(char*, char*)
    stream.o(i._ZN6Stream4findEPcj) refers to stream.o(i._ZN6Stream9findUntilEPcjS0_j) for Stream::findUntil(char*, unsigned, char*, unsigned)
    stream.o(i._ZN6Stream8parseIntEc) refers to stream.o(i._ZN6Stream13peekNextDigitEv) for Stream::peekNextDigit()
    stream.o(i._ZN6Stream8parseIntEc) refers to stream.o(i._ZN6Stream9timedPeekEv) for Stream::timedPeek()
    stream.o(i._ZN6Stream8parseIntEv) refers to stream.o(i._ZN6Stream8parseIntEc) for Stream::parseInt(char)
    stream.o(i._ZN6Stream9findMultiEPNS_11MultiTargetEi) refers to stream.o(i._ZN6Stream9timedReadEv) for Stream::timedRead()
    stream.o(i._ZN6Stream9findUntilEPcS0_) refers to strlen.o(.text) for strlen
    stream.o(i._ZN6Stream9findUntilEPcS0_) refers to stream.o(i._ZN6Stream9findUntilEPcjS0_j) for Stream::findUntil(char*, unsigned, char*, unsigned)
    stream.o(i._ZN6Stream9findUntilEPcjS0_j) refers to stream.o(i._ZN6Stream9timedReadEv) for Stream::timedRead()
    stream.o(i._ZN6Stream9readBytesEPcj) refers to stream.o(i._ZN6Stream9timedReadEv) for Stream::timedRead()
    stream.o(i._ZN6Stream9timedPeekEv) refers to delay.o(i.millis) for millis
    stream.o(i._ZN6Stream9timedReadEv) refers to delay.o(i.millis) for millis
    stream.o(.ARM.exidx) refers to stream.o(i._ZN6Stream9timedReadEv) for i._ZN6Stream9timedReadEv
    stream.o(.ARM.exidx) refers to stream.o(i._ZN6Stream9timedPeekEv) for i._ZN6Stream9timedPeekEv
    stream.o(.ARM.exidx) refers to stream.o(i._ZN6Stream13peekNextDigitEv) for i._ZN6Stream13peekNextDigitEv
    stream.o(.ARM.exidx) refers to stream.o(i._ZN6Stream10setTimeoutEm) for i._ZN6Stream10setTimeoutEm
    stream.o(.ARM.exidx) refers to stream.o(i._ZN6Stream9findUntilEPcjS0_j) for i._ZN6Stream9findUntilEPcjS0_j
    stream.o(.ARM.exidx) refers to stream.o(i._ZN6Stream9findUntilEPcS0_) for i._ZN6Stream9findUntilEPcS0_
    stream.o(.ARM.exidx) refers to stream.o(i._ZN6Stream4findEPc) for i._ZN6Stream4findEPc
    stream.o(.ARM.exidx) refers to stream.o(i._ZN6Stream4findEPcj) for i._ZN6Stream4findEPcj
    stream.o(.ARM.exidx) refers to stream.o(i._ZN6Stream8parseIntEc) for i._ZN6Stream8parseIntEc
    stream.o(.ARM.exidx) refers to stream.o(i._ZN6Stream8parseIntEv) for i._ZN6Stream8parseIntEv
    stream.o(.ARM.exidx) refers to stream.o(i._ZN6Stream10parseFloatEc) for i._ZN6Stream10parseFloatEc
    stream.o(.ARM.exidx) refers to stream.o(i._ZN6Stream10parseFloatEv) for i._ZN6Stream10parseFloatEv
    stream.o(.ARM.exidx) refers to stream.o(i._ZN6Stream9readBytesEPcj) for i._ZN6Stream9readBytesEPcj
    stream.o(.ARM.exidx) refers to stream.o(i._ZN6Stream14readBytesUntilEcPcj) for i._ZN6Stream14readBytesUntilEcPcj
    stream.o(.ARM.exidx) refers to stream.o(i._ZN6Stream10readStringEv) for i._ZN6Stream10readStringEv
    stream.o(.ARM.exidx) refers to stream.o(i._ZN6Stream15readStringUntilEc) for i._ZN6Stream15readStringUntilEc
    stream.o(.ARM.exidx) refers to stream.o(i._ZN6Stream9findMultiEPNS_11MultiTargetEi) for i._ZN6Stream9findMultiEPNS_11MultiTargetEi
    wmath.o(i._Z10randomSeedm) refers to rand.o(.text) for srand
    wmath.o(i._Z6randoml) refers to rand.o(.emb_text) for rand
    wmath.o(i._Z6randomll) refers to wmath.o(i._Z6randoml) for random(long)
    wmath.o(.ARM.exidx) refers to wmath.o(i._Z10randomSeedm) for i._Z10randomSeedm
    wmath.o(.ARM.exidx) refers to wmath.o(i._Z6randoml) for i._Z6randoml
    wmath.o(.ARM.exidx) refers to wmath.o(i._Z6randomll) for i._Z6randomll
    wmath.o(.ARM.exidx) refers to wmath.o(i._Z8makeWordj) for i._Z8makeWordj
    wmath.o(.ARM.exidx) refers to wmath.o(i._Z8makeWordhh) for i._Z8makeWordhh
    hardwareserial.o(i.USART1_IRQHandler) refers to hardwareserial.o(i._ZN14HardwareSerial10IRQHandlerEv) for HardwareSerial::IRQHandler()
    hardwareserial.o(i.USART1_IRQHandler) refers to hardwareserial.o(.bss) for Serial
    hardwareserial.o(i.USART2_IRQHandler) refers to hardwareserial.o(i._ZN14HardwareSerial10IRQHandlerEv) for HardwareSerial::IRQHandler()
    hardwareserial.o(i.USART2_IRQHandler) refers to hardwareserial.o(.bss) for Serial2
    hardwareserial.o(i.USART6_IRQHandler) refers to hardwareserial.o(i._ZN14HardwareSerial10IRQHandlerEv) for HardwareSerial::IRQHandler()
    hardwareserial.o(i.USART6_IRQHandler) refers to hardwareserial.o(.bss) for Serial6
    hardwareserial.o(i._ZN14HardwareSerial10IRQHandlerEv) refers to stm32f4xx_usart.o(i.USART_GetITStatus) for USART_GetITStatus
    hardwareserial.o(i._ZN14HardwareSerial10IRQHandlerEv) refers to stm32f4xx_usart.o(i.USART_ReceiveData) for USART_ReceiveData
    hardwareserial.o(i._ZN14HardwareSerial10IRQHandlerEv) refers to stm32f4xx_usart.o(i.USART_ClearITPendingBit) for USART_ClearITPendingBit
    hardwareserial.o(i._ZN14HardwareSerial3endEv) refers to stm32f4xx_usart.o(i.USART_Cmd) for USART_Cmd
    hardwareserial.o(i._ZN14HardwareSerial5beginEj) refers to hardwareserial.o(i._ZN14HardwareSerial5beginEj13SERIAL_Config) for HardwareSerial::begin(unsigned, SERIAL_Config)
    hardwareserial.o(i._ZN14HardwareSerial5beginEj13SERIAL_Config) refers to hardwareserial.o(i._ZN14HardwareSerial5beginEj13SERIAL_Confighh) for HardwareSerial::begin(unsigned, SERIAL_Config, unsigned char, unsigned char)
    hardwareserial.o(i._ZN14HardwareSerial5beginEj13SERIAL_Confighh) refers to stm32f4xx_rcc.o(i.RCC_APB2PeriphClockCmd) for RCC_APB2PeriphClockCmd
    hardwareserial.o(i._ZN14HardwareSerial5beginEj13SERIAL_Confighh) refers to stm32f4xx_rcc.o(i.RCC_APB1PeriphClockCmd) for RCC_APB1PeriphClockCmd
    hardwareserial.o(i._ZN14HardwareSerial5beginEj13SERIAL_Confighh) refers to stm32f4xx_rcc.o(i.RCC_AHB1PeriphClockCmd) for RCC_AHB1PeriphClockCmd
    hardwareserial.o(i._ZN14HardwareSerial5beginEj13SERIAL_Confighh) refers to gpio.o(i.GPIO_GetPinSource) for GPIO_GetPinSource
    hardwareserial.o(i._ZN14HardwareSerial5beginEj13SERIAL_Confighh) refers to stm32f4xx_gpio.o(i.GPIO_PinAFConfig) for GPIO_PinAFConfig
    hardwareserial.o(i._ZN14HardwareSerial5beginEj13SERIAL_Confighh) refers to stm32f4xx_gpio.o(i.GPIO_Init) for GPIO_Init
    hardwareserial.o(i._ZN14HardwareSerial5beginEj13SERIAL_Confighh) refers to misc.o(i.NVIC_Init) for NVIC_Init
    hardwareserial.o(i._ZN14HardwareSerial5beginEj13SERIAL_Confighh) refers to stm32f4xx_usart.o(i.USART_Init) for USART_Init
    hardwareserial.o(i._ZN14HardwareSerial5beginEj13SERIAL_Confighh) refers to stm32f4xx_usart.o(i.USART_ITConfig) for USART_ITConfig
    hardwareserial.o(i._ZN14HardwareSerial5beginEj13SERIAL_Confighh) refers to stm32f4xx_usart.o(i.USART_Cmd) for USART_Cmd
    hardwareserial.o(i._ZN14HardwareSerial5writeEh) refers to stm32f4xx_usart.o(i.USART_GetFlagStatus) for USART_GetFlagStatus
    hardwareserial.o(i._ZN14HardwareSerial5writeEh) refers to stm32f4xx_usart.o(i.USART_SendData) for USART_SendData
    hardwareserial.o(i._ZN14HardwareSerialC1EP13USART_TypeDef) refers to print.o(.constdata__ZTV5Print) for vtable for Print
    hardwareserial.o(i._ZN14HardwareSerialC1EP13USART_TypeDef) refers to hardwareserial.o(.constdata__ZTV6Stream) for vtable for Stream
    hardwareserial.o(i._ZN14HardwareSerialC1EP13USART_TypeDef) refers to hardwareserial.o(.constdata__ZTV14HardwareSerial) for vtable for HardwareSerial
    hardwareserial.o(i.__sti___18_HardwareSerial_cpp_cfa1b6a6) refers to hardwareserial.o(i._ZN14HardwareSerialC1EP13USART_TypeDef) for HardwareSerial::HardwareSerial(USART_TypeDef*)
    hardwareserial.o(i.__sti___18_HardwareSerial_cpp_cfa1b6a6) refers to hardwareserial.o(.bss) for Serial
    hardwareserial.o(.ARM.exidx) refers to hardwareserial.o(i._ZN14HardwareSerial10IRQHandlerEv) for i._ZN14HardwareSerial10IRQHandlerEv
    hardwareserial.o(.ARM.exidx) refers to hardwareserial.o(i.USART1_IRQHandler) for i.USART1_IRQHandler
    hardwareserial.o(.ARM.exidx) refers to hardwareserial.o(i.USART2_IRQHandler) for i.USART2_IRQHandler
    hardwareserial.o(.ARM.exidx) refers to hardwareserial.o(i.USART6_IRQHandler) for i.USART6_IRQHandler
    hardwareserial.o(.ARM.exidx) refers to hardwareserial.o(i._ZN14HardwareSerialC1EP13USART_TypeDef) for i._ZN14HardwareSerialC1EP13USART_TypeDef
    hardwareserial.o(.ARM.exidx) refers to hardwareserial.o(i._ZN14HardwareSerial5beginEj13SERIAL_Confighh) for i._ZN14HardwareSerial5beginEj13SERIAL_Confighh
    hardwareserial.o(.ARM.exidx) refers to hardwareserial.o(i._ZN14HardwareSerial5beginEj13SERIAL_Config) for i._ZN14HardwareSerial5beginEj13SERIAL_Config
    hardwareserial.o(.ARM.exidx) refers to hardwareserial.o(i._ZN14HardwareSerial5beginEj) for i._ZN14HardwareSerial5beginEj
    hardwareserial.o(.ARM.exidx) refers to hardwareserial.o(i._ZN14HardwareSerial3endEv) for i._ZN14HardwareSerial3endEv
    hardwareserial.o(.ARM.exidx) refers to hardwareserial.o(i._ZN14HardwareSerial15attachInterruptEPFvvE) for i._ZN14HardwareSerial15attachInterruptEPFvvE
    hardwareserial.o(.ARM.exidx) refers to hardwareserial.o(i._ZN14HardwareSerial9availableEv) for i._ZN14HardwareSerial9availableEv
    hardwareserial.o(.ARM.exidx) refers to hardwareserial.o(i._ZN14HardwareSerial4peekEv) for i._ZN14HardwareSerial4peekEv
    hardwareserial.o(.ARM.exidx) refers to hardwareserial.o(i._ZN14HardwareSerial4readEv) for i._ZN14HardwareSerial4readEv
    hardwareserial.o(.ARM.exidx) refers to hardwareserial.o(i._ZN14HardwareSerial5flushEv) for i._ZN14HardwareSerial5flushEv
    hardwareserial.o(.ARM.exidx) refers to hardwareserial.o(i._ZN14HardwareSerial5writeEh) for i._ZN14HardwareSerial5writeEh
    hardwareserial.o(.ARM.exidx) refers to hardwareserial.o(i.__sti___18_HardwareSerial_cpp_cfa1b6a6) for i.__sti___18_HardwareSerial_cpp_cfa1b6a6
    hardwareserial.o(.init_array) refers to hardwareserial.o(i.__sti___18_HardwareSerial_cpp_cfa1b6a6) for __sti___18_HardwareSerial_cpp_cfa1b6a6
    hardwareserial.o(.init_array) refers to init_aeabi.o(.text) for __cpp_initialize__aeabi_
    wirebase.o(i._ZN8WireBase11requestFromEii) refers to wirebase.o(i._ZN8WireBase11requestFromEhi) for WireBase::requestFrom(unsigned char, int)
    wirebase.o(i._ZN8WireBase17beginTransmissionEi) refers to wirebase.o(i._ZN8WireBase17beginTransmissionEh) for WireBase::beginTransmission(unsigned char)
    wirebase.o(i._ZN8WireBase5writeEPc) refers to wirebase.o(i._ZN8WireBase5writeEh) for WireBase::write(unsigned char)
    wirebase.o(i._ZN8WireBase5writeEPhi) refers to wirebase.o(i._ZN8WireBase5writeEh) for WireBase::write(unsigned char)
    wirebase.o(i._ZN8WireBase5writeEPii) refers to wirebase.o(i._ZN8WireBase5writeEPhi) for WireBase::write(unsigned char*, int)
    wirebase.o(i._ZN8WireBase5writeEi) refers to wirebase.o(i._ZN8WireBase5writeEh) for WireBase::write(unsigned char)
    wirebase.o(.ARM.exidx) refers to wirebase.o(i._ZN8WireBase5beginEh) for i._ZN8WireBase5beginEh
    wirebase.o(.ARM.exidx) refers to wirebase.o(i._ZN8WireBase8setClockEj) for i._ZN8WireBase8setClockEj
    wirebase.o(.ARM.exidx) refers to wirebase.o(i._ZN8WireBase17beginTransmissionEh) for i._ZN8WireBase17beginTransmissionEh
    wirebase.o(.ARM.exidx) refers to wirebase.o(i._ZN8WireBase17beginTransmissionEi) for i._ZN8WireBase17beginTransmissionEi
    wirebase.o(.ARM.exidx) refers to wirebase.o(i._ZN8WireBase15endTransmissionEv) for i._ZN8WireBase15endTransmissionEv
    wirebase.o(.ARM.exidx) refers to wirebase.o(i._ZN8WireBase11requestFromEhi) for i._ZN8WireBase11requestFromEhi
    wirebase.o(.ARM.exidx) refers to wirebase.o(i._ZN8WireBase11requestFromEii) for i._ZN8WireBase11requestFromEii
    wirebase.o(.ARM.exidx) refers to wirebase.o(i._ZN8WireBase5writeEh) for i._ZN8WireBase5writeEh
    wirebase.o(.ARM.exidx) refers to wirebase.o(i._ZN8WireBase5writeEPhi) for i._ZN8WireBase5writeEPhi
    wirebase.o(.ARM.exidx) refers to wirebase.o(i._ZN8WireBase5writeEi) for i._ZN8WireBase5writeEi
    wirebase.o(.ARM.exidx) refers to wirebase.o(i._ZN8WireBase5writeEPii) for i._ZN8WireBase5writeEPii
    wirebase.o(.ARM.exidx) refers to wirebase.o(i._ZN8WireBase5writeEPc) for i._ZN8WireBase5writeEPc
    wirebase.o(.ARM.exidx) refers to wirebase.o(i._ZN8WireBase9availableEv) for i._ZN8WireBase9availableEv
    wirebase.o(.ARM.exidx) refers to wirebase.o(i._ZN8WireBase4readEv) for i._ZN8WireBase4readEv
    wire.o(i._ZN7TwoWire11i2c_get_ackEv) refers to wire.o(i._ZN7TwoWire7set_sclEb) for TwoWire::set_scl(bool)
    wire.o(i._ZN7TwoWire11i2c_get_ackEv) refers to wire.o(i._ZN7TwoWire7set_sdaEb) for TwoWire::set_sda(bool)
    wire.o(i._ZN7TwoWire11i2c_get_ackEv) refers to arduino.o(i.digitalRead) for digitalRead
    wire.o(i._ZN7TwoWire12i2c_send_ackEv) refers to wire.o(i._ZN7TwoWire7set_sdaEb) for TwoWire::set_sda(bool)
    wire.o(i._ZN7TwoWire12i2c_send_ackEv) refers to wire.o(i._ZN7TwoWire7set_sclEb) for TwoWire::set_scl(bool)
    wire.o(i._ZN7TwoWire12i2c_shift_inEv) refers to wire.o(i._ZN7TwoWire7set_sdaEb) for TwoWire::set_sda(bool)
    wire.o(i._ZN7TwoWire12i2c_shift_inEv) refers to wire.o(i._ZN7TwoWire7set_sclEb) for TwoWire::set_scl(bool)
    wire.o(i._ZN7TwoWire12i2c_shift_inEv) refers to arduino.o(i.digitalRead) for digitalRead
    wire.o(i._ZN7TwoWire13i2c_send_nackEv) refers to wire.o(i._ZN7TwoWire7set_sdaEb) for TwoWire::set_sda(bool)
    wire.o(i._ZN7TwoWire13i2c_send_nackEv) refers to wire.o(i._ZN7TwoWire7set_sclEb) for TwoWire::set_scl(bool)
    wire.o(i._ZN7TwoWire13i2c_shift_outEh) refers to wire.o(i._ZN7TwoWire7set_sdaEb) for TwoWire::set_sda(bool)
    wire.o(i._ZN7TwoWire13i2c_shift_outEh) refers to wire.o(i._ZN7TwoWire7set_sclEb) for TwoWire::set_scl(bool)
    wire.o(i._ZN7TwoWire5beginEh) refers to arduino.o(i.pinMode) for pinMode
    wire.o(i._ZN7TwoWire5beginEh) refers to wire.o(i._ZN7TwoWire7set_sclEb) for TwoWire::set_scl(bool)
    wire.o(i._ZN7TwoWire5beginEh) refers to wire.o(i._ZN7TwoWire7set_sdaEb) for TwoWire::set_sda(bool)
    wire.o(i._ZN7TwoWire7processEv) refers to wire.o(i._ZN7TwoWire9i2c_startEv) for TwoWire::i2c_start()
    wire.o(i._ZN7TwoWire7processEv) refers to wire.o(i._ZN7TwoWire13i2c_shift_outEh) for TwoWire::i2c_shift_out(unsigned char)
    wire.o(i._ZN7TwoWire7processEv) refers to wire.o(i._ZN7TwoWire11i2c_get_ackEv) for TwoWire::i2c_get_ack()
    wire.o(i._ZN7TwoWire7processEv) refers to wire.o(i._ZN7TwoWire8i2c_stopEv) for TwoWire::i2c_stop()
    wire.o(i._ZN7TwoWire7processEv) refers to wire.o(i._ZN7TwoWire12i2c_shift_inEv) for TwoWire::i2c_shift_in()
    wire.o(i._ZN7TwoWire7processEv) refers to wire.o(i._ZN7TwoWire12i2c_send_ackEv) for TwoWire::i2c_send_ack()
    wire.o(i._ZN7TwoWire7processEv) refers to wire.o(i._ZN7TwoWire13i2c_send_nackEv) for TwoWire::i2c_send_nack()
    wire.o(i._ZN7TwoWire7set_sclEb) refers to delay.o(i.delay_us) for delay_us
    wire.o(i._ZN7TwoWire7set_sclEb) refers to arduino.o(i.digitalWrite) for digitalWrite
    wire.o(i._ZN7TwoWire7set_sclEb) refers to arduino.o(i.digitalRead) for digitalRead
    wire.o(i._ZN7TwoWire7set_sdaEb) refers to delay.o(i.delay_us) for delay_us
    wire.o(i._ZN7TwoWire7set_sdaEb) refers to arduino.o(i.digitalWrite) for digitalWrite
    wire.o(i._ZN7TwoWire8i2c_stopEv) refers to wire.o(i._ZN7TwoWire7set_sdaEb) for TwoWire::set_sda(bool)
    wire.o(i._ZN7TwoWire8i2c_stopEv) refers to wire.o(i._ZN7TwoWire7set_sclEb) for TwoWire::set_scl(bool)
    wire.o(i._ZN7TwoWire9i2c_startEv) refers to wire.o(i._ZN7TwoWire7set_sdaEb) for TwoWire::set_sda(bool)
    wire.o(i._ZN7TwoWire9i2c_startEv) refers to wire.o(i._ZN7TwoWire7set_sclEb) for TwoWire::set_scl(bool)
    wire.o(i._ZN7TwoWireC1Ehhh) refers to wirebase.o(.constdata__ZTV8WireBase) for vtable for WireBase
    wire.o(i._ZN7TwoWireC1Ehhh) refers to wire.o(.constdata__ZTV7TwoWire) for vtable for TwoWire
    wire.o(i._ZN7TwoWireD1Ev) refers to wire.o(.constdata__ZTV7TwoWire) for vtable for TwoWire
    wire.o(i.__sti___8_Wire_cpp_928ee5ff) refers to wire.o(i._ZN7TwoWireC1Ehhh) for TwoWire::TwoWire(unsigned char, unsigned char, unsigned char)
    wire.o(i.__sti___8_Wire_cpp_928ee5ff) refers to aeabi_atexit.o(.text) for __aeabi_atexit
    wire.o(i.__sti___8_Wire_cpp_928ee5ff) refers to wire.o(.bss) for Wire
    wire.o(i.__sti___8_Wire_cpp_928ee5ff) refers to wire.o(i._ZN7TwoWireD1Ev) for TwoWire::~TwoWire()
    wire.o(.ARM.exidx) refers to wire.o(i._ZN7TwoWire7set_sclEb) for i._ZN7TwoWire7set_sclEb
    wire.o(.ARM.exidx) refers to wire.o(i._ZN7TwoWire7set_sdaEb) for i._ZN7TwoWire7set_sdaEb
    wire.o(.ARM.exidx) refers to wire.o(i._ZN7TwoWire9i2c_startEv) for i._ZN7TwoWire9i2c_startEv
    wire.o(.ARM.exidx) refers to wire.o(i._ZN7TwoWire8i2c_stopEv) for i._ZN7TwoWire8i2c_stopEv
    wire.o(.ARM.exidx) refers to wire.o(i._ZN7TwoWire11i2c_get_ackEv) for i._ZN7TwoWire11i2c_get_ackEv
    wire.o(.ARM.exidx) refers to wire.o(i._ZN7TwoWire12i2c_send_ackEv) for i._ZN7TwoWire12i2c_send_ackEv
    wire.o(.ARM.exidx) refers to wire.o(i._ZN7TwoWire13i2c_send_nackEv) for i._ZN7TwoWire13i2c_send_nackEv
    wire.o(.ARM.exidx) refers to wire.o(i._ZN7TwoWire12i2c_shift_inEv) for i._ZN7TwoWire12i2c_shift_inEv
    wire.o(.ARM.exidx) refers to wire.o(i._ZN7TwoWire13i2c_shift_outEh) for i._ZN7TwoWire13i2c_shift_outEh
    wire.o(.ARM.exidx) refers to wire.o(i._ZN7TwoWire7processEv) for i._ZN7TwoWire7processEv
    wire.o(.ARM.exidx) refers to wire.o(i._ZN7TwoWireC1Ehhh) for i._ZN7TwoWireC1Ehhh
    wire.o(.ARM.exidx) refers to wire.o(i._ZN7TwoWire5beginEh) for i._ZN7TwoWire5beginEh
    wire.o(.ARM.exidx) refers to wire.o(i._ZN7TwoWireD1Ev) for i._ZN7TwoWireD1Ev
    wire.o(.ARM.exidx) refers to wire.o(i.__sti___8_Wire_cpp_928ee5ff) for i.__sti___8_Wire_cpp_928ee5ff
    wire.o(.init_array) refers to wire.o(i.__sti___8_Wire_cpp_928ee5ff) for __sti___8_Wire_cpp_928ee5ff
    wire.o(.init_array) refers to init_aeabi.o(.text) for __cpp_initialize__aeabi_
    spi.o(i._ZN8SPIClass10beginSlaveEv) refers to spi.o(i._ZN8SPIClass5beginEv) for SPIClass::begin()
    spi.o(i._ZN8SPIClass10beginSlaveEv) refers to spi.o(i._ZN8SPIClass12SPI_SettingsEP11SPI_TypeDeftttttt) for SPIClass::SPI_Settings(SPI_TypeDef*, unsigned short, unsigned short, unsigned short, unsigned short, unsigned short, unsigned short)
    spi.o(i._ZN8SPIClass10beginSlaveEv) refers to stm32f4xx_spi.o(i.SPI_Cmd) for SPI_Cmd
    spi.o(i._ZN8SPIClass11setBitOrderEt) refers to stm32f4xx_spi.o(i.SPI_Init) for SPI_Init
    spi.o(i._ZN8SPIClass11setBitOrderEt) refers to stm32f4xx_spi.o(i.SPI_Cmd) for SPI_Cmd
    spi.o(i._ZN8SPIClass11setDataModeEh) refers to stm32f4xx_spi.o(i.SPI_Cmd) for SPI_Cmd
    spi.o(i._ZN8SPIClass11setDataModeEh) refers to stm32f4xx_spi.o(i.SPI_Init) for SPI_Init
    spi.o(i._ZN8SPIClass11setDataSizeEt) refers to stm32f4xx_spi.o(i.SPI_Init) for SPI_Init
    spi.o(i._ZN8SPIClass11setDataSizeEt) refers to stm32f4xx_spi.o(i.SPI_Cmd) for SPI_Cmd
    spi.o(i._ZN8SPIClass12SPI_SettingsEP11SPI_TypeDeftttttt) refers to stm32f4xx_spi.o(i.SPI_Cmd) for SPI_Cmd
    spi.o(i._ZN8SPIClass12SPI_SettingsEP11SPI_TypeDeftttttt) refers to stm32f4xx_spi.o(i.SPI_Init) for SPI_Init
    spi.o(i._ZN8SPIClass14endTransactionEv) refers to stm32f4xx_spi.o(i.SPI_Cmd) for SPI_Cmd
    spi.o(i._ZN8SPIClass15setClockDividerEj) refers to spi.o(i._ZN8SPIClass8setClockEj) for SPIClass::setClock(unsigned)
    spi.o(i._ZN8SPIClass16beginTransactionE11SPISettings) refers to spi.o(i._ZN8SPIClass8setClockEj) for SPIClass::setClock(unsigned)
    spi.o(i._ZN8SPIClass16beginTransactionE11SPISettings) refers to spi.o(i._ZN8SPIClass11setBitOrderEt) for SPIClass::setBitOrder(unsigned short)
    spi.o(i._ZN8SPIClass16beginTransactionE11SPISettings) refers to spi.o(i._ZN8SPIClass11setDataModeEh) for SPIClass::setDataMode(unsigned char)
    spi.o(i._ZN8SPIClass16beginTransactionE11SPISettings) refers to spi.o(i._ZN8SPIClass11setDataSizeEt) for SPIClass::setDataSize(unsigned short)
    spi.o(i._ZN8SPIClass16beginTransactionE11SPISettings) refers to stm32f4xx_spi.o(i.SPI_Cmd) for SPI_Cmd
    spi.o(i._ZN8SPIClass21beginTransactionSlaveEv) refers to spi.o(i._ZN8SPIClass10beginSlaveEv) for SPIClass::beginSlave()
    spi.o(i._ZN8SPIClass3endEv) refers to stm32f4xx_spi.o(i.SPI_Cmd) for SPI_Cmd
    spi.o(i._ZN8SPIClass4recvEv) refers to spi.o(i._ZN8SPIClass4readEv) for SPIClass::read()
    spi.o(i._ZN8SPIClass4sendEPhj) refers to spi.o(i._ZN8SPIClass5writeEPKhj) for SPIClass::write(const unsigned char*, unsigned)
    spi.o(i._ZN8SPIClass4sendEh) refers to spi.o(i._ZN8SPIClass5writeEt) for SPIClass::write(unsigned short)
    spi.o(i._ZN8SPIClass5beginE11SPISettings) refers to spi.o(i._ZN8SPIClass5beginEv) for SPIClass::begin()
    spi.o(i._ZN8SPIClass5beginE11SPISettings) refers to spi.o(i._ZN8SPIClass8setClockEj) for SPIClass::setClock(unsigned)
    spi.o(i._ZN8SPIClass5beginE11SPISettings) refers to spi.o(i._ZN8SPIClass11setBitOrderEt) for SPIClass::setBitOrder(unsigned short)
    spi.o(i._ZN8SPIClass5beginE11SPISettings) refers to spi.o(i._ZN8SPIClass11setDataModeEh) for SPIClass::setDataMode(unsigned char)
    spi.o(i._ZN8SPIClass5beginE11SPISettings) refers to stm32f4xx_spi.o(i.SPI_Cmd) for SPI_Cmd
    spi.o(i._ZN8SPIClass5beginEjtt) refers to spi.o(i._ZN8SPIClass5beginEv) for SPIClass::begin()
    spi.o(i._ZN8SPIClass5beginEjtt) refers to spi.o(i._ZN8SPIClass8setClockEj) for SPIClass::setClock(unsigned)
    spi.o(i._ZN8SPIClass5beginEjtt) refers to spi.o(i._ZN8SPIClass11setBitOrderEt) for SPIClass::setBitOrder(unsigned short)
    spi.o(i._ZN8SPIClass5beginEjtt) refers to spi.o(i._ZN8SPIClass11setDataModeEh) for SPIClass::setDataMode(unsigned char)
    spi.o(i._ZN8SPIClass5beginEjtt) refers to stm32f4xx_spi.o(i.SPI_Cmd) for SPI_Cmd
    spi.o(i._ZN8SPIClass5beginEv) refers to stm32f4xx_rcc.o(i.RCC_APB2PeriphClockCmd) for RCC_APB2PeriphClockCmd
    spi.o(i._ZN8SPIClass5beginEv) refers to arduino.o(i.pinMode) for pinMode
    spi.o(i._ZN8SPIClass5beginEv) refers to stm32f4xx_gpio.o(i.GPIO_PinAFConfig) for GPIO_PinAFConfig
    spi.o(i._ZN8SPIClass5beginEv) refers to stm32f4xx_rcc.o(i.RCC_APB2PeriphResetCmd) for RCC_APB2PeriphResetCmd
    spi.o(i._ZN8SPIClass5beginEv) refers to stm32f4xx_rcc.o(i.RCC_APB1PeriphClockCmd) for RCC_APB1PeriphClockCmd
    spi.o(i._ZN8SPIClass5beginEv) refers to stm32f4xx_rcc.o(i.RCC_APB1PeriphResetCmd) for RCC_APB1PeriphResetCmd
    spi.o(i._ZN8SPIClass5beginEv) refers to spi.o(i._ZN8SPIClass12SPI_SettingsEP11SPI_TypeDeftttttt) for SPIClass::SPI_Settings(SPI_TypeDef*, unsigned short, unsigned short, unsigned short, unsigned short, unsigned short, unsigned short)
    spi.o(i._ZN8SPIClass5beginEv) refers to system_stm32f4xx.o(.data) for SystemCoreClock
    spi.o(i._ZN8SPIClass8setClockEj) refers to stm32f4xx_spi.o(i.SPI_Init) for SPI_Init
    spi.o(i._ZN8SPIClass8setClockEj) refers to stm32f4xx_spi.o(i.SPI_Cmd) for SPI_Cmd
    spi.o(i.__sti___7_SPI_cpp_ce5662b4) refers to spi.o(i._ZN8SPIClassC1EP11SPI_TypeDef) for SPIClass::SPIClass(SPI_TypeDef*)
    spi.o(i.__sti___7_SPI_cpp_ce5662b4) refers to spi.o(.bss) for SPI
    spi.o(.ARM.exidx) refers to spi.o(i._ZN8SPIClassC1EP11SPI_TypeDef) for i._ZN8SPIClassC1EP11SPI_TypeDef
    spi.o(.ARM.exidx) refers to spi.o(i._ZN8SPIClass12SPI_SettingsEP11SPI_TypeDeftttttt) for i._ZN8SPIClass12SPI_SettingsEP11SPI_TypeDeftttttt
    spi.o(.ARM.exidx) refers to spi.o(i._ZN8SPIClass5beginEv) for i._ZN8SPIClass5beginEv
    spi.o(.ARM.exidx) refers to spi.o(i._ZN8SPIClass11setDataModeEh) for i._ZN8SPIClass11setDataModeEh
    spi.o(.ARM.exidx) refers to spi.o(i._ZN8SPIClass11setBitOrderEt) for i._ZN8SPIClass11setBitOrderEt
    spi.o(.ARM.exidx) refers to spi.o(i._ZN8SPIClass8setClockEj) for i._ZN8SPIClass8setClockEj
    spi.o(.ARM.exidx) refers to spi.o(i._ZN8SPIClass5beginEjtt) for i._ZN8SPIClass5beginEjtt
    spi.o(.ARM.exidx) refers to spi.o(i._ZN8SPIClass5beginE11SPISettings) for i._ZN8SPIClass5beginE11SPISettings
    spi.o(.ARM.exidx) refers to spi.o(i._ZN8SPIClass10beginSlaveEv) for i._ZN8SPIClass10beginSlaveEv
    spi.o(.ARM.exidx) refers to spi.o(i._ZN8SPIClass21beginTransactionSlaveEv) for i._ZN8SPIClass21beginTransactionSlaveEv
    spi.o(.ARM.exidx) refers to spi.o(i._ZN8SPIClass11setDataSizeEt) for i._ZN8SPIClass11setDataSizeEt
    spi.o(.ARM.exidx) refers to spi.o(i._ZN8SPIClass16beginTransactionE11SPISettings) for i._ZN8SPIClass16beginTransactionE11SPISettings
    spi.o(.ARM.exidx) refers to spi.o(i._ZN8SPIClass14endTransactionEv) for i._ZN8SPIClass14endTransactionEv
    spi.o(.ARM.exidx) refers to spi.o(i._ZN8SPIClass3endEv) for i._ZN8SPIClass3endEv
    spi.o(.ARM.exidx) refers to spi.o(i._ZN8SPIClass15setClockDividerEj) for i._ZN8SPIClass15setClockDividerEj
    spi.o(.ARM.exidx) refers to spi.o(i._ZN8SPIClass4readEv) for i._ZN8SPIClass4readEv
    spi.o(.ARM.exidx) refers to spi.o(i._ZN8SPIClass4readEPhj) for i._ZN8SPIClass4readEPhj
    spi.o(.ARM.exidx) refers to spi.o(i._ZN8SPIClass5writeEt) for i._ZN8SPIClass5writeEt
    spi.o(.ARM.exidx) refers to spi.o(i._ZN8SPIClass5writeEtj) for i._ZN8SPIClass5writeEtj
    spi.o(.ARM.exidx) refers to spi.o(i._ZN8SPIClass5writeEPKhj) for i._ZN8SPIClass5writeEPKhj
    spi.o(.ARM.exidx) refers to spi.o(i._ZN8SPIClass5writeEPKtj) for i._ZN8SPIClass5writeEPKtj
    spi.o(.ARM.exidx) refers to spi.o(i._ZNK8SPIClass8transferEh) for i._ZNK8SPIClass8transferEh
    spi.o(.ARM.exidx) refers to spi.o(i._ZNK8SPIClass10transfer16Et) for i._ZNK8SPIClass10transfer16Et
    spi.o(.ARM.exidx) refers to spi.o(i._ZN8SPIClass4sendEh) for i._ZN8SPIClass4sendEh
    spi.o(.ARM.exidx) refers to spi.o(i._ZN8SPIClass4sendEPhj) for i._ZN8SPIClass4sendEPhj
    spi.o(.ARM.exidx) refers to spi.o(i._ZN8SPIClass4recvEv) for i._ZN8SPIClass4recvEv
    spi.o(.ARM.exidx) refers to spi.o(i.__sti___7_SPI_cpp_ce5662b4) for i.__sti___7_SPI_cpp_ce5662b4
    spi.o(.init_array) refers to spi.o(i.__sti___7_SPI_cpp_ce5662b4) for __sti___7_SPI_cpp_ce5662b4
    spi.o(.init_array) refers to init_aeabi.o(.text) for __cpp_initialize__aeabi_
    tone.o(i._Z12toneSetTimerP11TIM_TypeDef) refers to tone.o(.data) for ToneTimer
    tone.o(i._Z16toneBlock_Volumnhjjj) refers to delay.o(i.millis) for millis
    tone.o(i._Z16toneBlock_Volumnhjjj) refers to delay.o(i.delay_us) for delay_us
    tone.o(i._Z16toneBlock_Volumnhjjj) refers to gpio.o(.constdata) for PIN_MAP
    tone.o(i._Z17tone_TimerHandlerv) refers to delay.o(i.millis) for millis
    tone.o(i._Z17tone_TimerHandlerv) refers to tone.o(i._Z6noToneh) for noTone(unsigned char)
    tone.o(i._Z17tone_TimerHandlerv) refers to gpio.o(.constdata) for PIN_MAP
    tone.o(i._Z17tone_TimerHandlerv) refers to tone.o(.data) for tone_Pin
    tone.o(i._Z19toneBlock_Volumn_ushjjj) refers to delay.o(i.micros) for micros
    tone.o(i._Z19toneBlock_Volumn_ushjjj) refers to delay.o(i.delay_us) for delay_us
    tone.o(i._Z19toneBlock_Volumn_ushjjj) refers to gpio.o(.constdata) for PIN_MAP
    tone.o(i._Z4tonehj) refers to tone.o(i._Z6noToneh) for noTone(unsigned char)
    tone.o(i._Z4tonehj) refers to timer.o(i.Timer_SetInterruptBase) for Timer_SetInterruptBase
    tone.o(i._Z4tonehj) refers to timer.o(i.Timer_SetInterruptTimeUpdate) for Timer_SetInterruptTimeUpdate
    tone.o(i._Z4tonehj) refers to stm32f4xx_tim.o(i.TIM_Cmd) for TIM_Cmd
    tone.o(i._Z4tonehj) refers to tone.o(.data) for tone_Pin
    tone.o(i._Z4tonehj) refers to tone.o(i._Z17tone_TimerHandlerv) for tone_TimerHandler()
    tone.o(i._Z4tonehjj) refers to tone.o(i._Z6noToneh) for noTone(unsigned char)
    tone.o(i._Z4tonehjj) refers to tone.o(i._Z4tonehj) for tone(unsigned char, unsigned)
    tone.o(i._Z4tonehjj) refers to delay.o(i.millis) for millis
    tone.o(i._Z4tonehjj) refers to tone.o(.data) for tone_StopTimePoint
    tone.o(i._Z6noToneh) refers to stm32f4xx_tim.o(i.TIM_Cmd) for TIM_Cmd
    tone.o(i._Z6noToneh) refers to arduino.o(i.digitalWrite) for digitalWrite
    tone.o(i._Z6noToneh) refers to tone.o(.data) for ToneTimer
    tone.o(i._Z9toneBlockhjj) refers to delay.o(i.millis) for millis
    tone.o(i._Z9toneBlockhjj) refers to delay.o(i.delay_us) for delay_us
    tone.o(i._Z9toneBlockhjj) refers to gpio.o(.constdata) for PIN_MAP
    tone.o(.ARM.exidx) refers to tone.o(i._Z6noToneh) for i._Z6noToneh
    tone.o(.ARM.exidx) refers to tone.o(i._Z17tone_TimerHandlerv) for i._Z17tone_TimerHandlerv
    tone.o(.ARM.exidx) refers to tone.o(i._Z12toneSetTimerP11TIM_TypeDef) for i._Z12toneSetTimerP11TIM_TypeDef
    tone.o(.ARM.exidx) refers to tone.o(i._Z4tonehj) for i._Z4tonehj
    tone.o(.ARM.exidx) refers to tone.o(i._Z4tonehjj) for i._Z4tonehjj
    tone.o(.ARM.exidx) refers to tone.o(i._Z9toneBlockhjj) for i._Z9toneBlockhjj
    tone.o(.ARM.exidx) refers to tone.o(i._Z16toneBlock_Volumnhjjj) for i._Z16toneBlock_Volumnhjjj
    tone.o(.ARM.exidx) refers to tone.o(i._Z19toneBlock_Volumn_ushjjj) for i._Z19toneBlock_Volumn_ushjjj
    adc.o(i.ADC_DMA_Config) refers to stm32f4xx_dma.o(i.DMA_DeInit) for DMA_DeInit
    adc.o(i.ADC_DMA_Config) refers to stm32f4xx_rcc.o(i.RCC_AHB1PeriphClockCmd) for RCC_AHB1PeriphClockCmd
    adc.o(i.ADC_DMA_Config) refers to stm32f4xx_dma.o(i.DMA_GetCmdStatus) for DMA_GetCmdStatus
    adc.o(i.ADC_DMA_Config) refers to stm32f4xx_dma.o(i.DMA_Init) for DMA_Init
    adc.o(i.ADC_DMA_Config) refers to stm32f4xx_dma.o(i.DMA_Cmd) for DMA_Cmd
    adc.o(i.ADC_DMA_Config) refers to adc.o(.bss) for ADC_DMA_ConvertedValue
    adc.o(i.ADC_DMA_Config) refers to adc.o(.data) for ADC_DMA_RegCnt
    adc.o(i.ADC_DMA_GetValue) refers to adc.o(i.ADC_DMA_SearchChannel) for ADC_DMA_SearchChannel
    adc.o(i.ADC_DMA_GetValue) refers to adc.o(.bss) for ADC_DMA_ConvertedValue
    adc.o(i.ADC_DMA_Init) refers to stm32f4xx_rcc.o(i.RCC_APB2PeriphClockCmd) for RCC_APB2PeriphClockCmd
    adc.o(i.ADC_DMA_Init) refers to adc.o(i.ADC_DMA_Config) for ADC_DMA_Config
    adc.o(i.ADC_DMA_Init) refers to stm32f4xx_adc.o(i.ADC_DeInit) for ADC_DeInit
    adc.o(i.ADC_DMA_Init) refers to stm32f4xx_adc.o(i.ADC_CommonInit) for ADC_CommonInit
    adc.o(i.ADC_DMA_Init) refers to stm32f4xx_adc.o(i.ADC_Init) for ADC_Init
    adc.o(i.ADC_DMA_Init) refers to stm32f4xx_adc.o(i.ADC_Cmd) for ADC_Cmd
    adc.o(i.ADC_DMA_Init) refers to stm32f4xx_adc.o(i.ADC_RegularChannelConfig) for ADC_RegularChannelConfig
    adc.o(i.ADC_DMA_Init) refers to stm32f4xx_adc.o(i.ADC_TempSensorVrefintCmd) for ADC_TempSensorVrefintCmd
    adc.o(i.ADC_DMA_Init) refers to stm32f4xx_adc.o(i.ADC_DMARequestAfterLastTransferCmd) for ADC_DMARequestAfterLastTransferCmd
    adc.o(i.ADC_DMA_Init) refers to stm32f4xx_adc.o(i.ADC_DMACmd) for ADC_DMACmd
    adc.o(i.ADC_DMA_Init) refers to stm32f4xx_adc.o(i.ADC_SoftwareStartConv) for ADC_SoftwareStartConv
    adc.o(i.ADC_DMA_Init) refers to adc.o(.data) for ADC_DMA_RegCnt
    adc.o(i.ADC_DMA_Init) refers to adc.o(.bss) for ADC_DMA_RegChannelList
    adc.o(i.ADC_DMA_Register) refers to adc.o(i.ADC_DMA_SearchChannel) for ADC_DMA_SearchChannel
    adc.o(i.ADC_DMA_Register) refers to adc.o(.data) for IsInit
    adc.o(i.ADC_DMA_Register) refers to adc.o(.bss) for ADC_DMA_RegChannelList
    adc.o(i.ADC_DMA_SearchChannel) refers to adc.o(.bss) for ADC_DMA_RegChannelList
    adc.o(i.ADC_DMA_SearchChannel) refers to adc.o(.data) for ADC_DMA_RegCnt
    adc.o(i.ADCx_GetValue) refers to stm32f4xx_adc.o(i.ADC_RegularChannelConfig) for ADC_RegularChannelConfig
    adc.o(i.ADCx_GetValue) refers to stm32f4xx_adc.o(i.ADC_SoftwareStartConv) for ADC_SoftwareStartConv
    adc.o(i.ADCx_GetValue) refers to stm32f4xx_adc.o(i.ADC_GetFlagStatus) for ADC_GetFlagStatus
    adc.o(i.ADCx_GetValue) refers to stm32f4xx_adc.o(i.ADC_GetConversionValue) for ADC_GetConversionValue
    adc.o(i.ADCx_Init) refers to stm32f4xx_rcc.o(i.RCC_APB2PeriphResetCmd) for RCC_APB2PeriphResetCmd
    adc.o(i.ADCx_Init) refers to stm32f4xx_rcc.o(i.RCC_APB2PeriphClockCmd) for RCC_APB2PeriphClockCmd
    adc.o(i.ADCx_Init) refers to stm32f4xx_adc.o(i.ADC_CommonInit) for ADC_CommonInit
    adc.o(i.ADCx_Init) refers to stm32f4xx_adc.o(i.ADC_Init) for ADC_Init
    adc.o(i.ADCx_Init) refers to stm32f4xx_adc.o(i.ADC_Cmd) for ADC_Cmd
    delay.o(i.Delay_Init) refers to system_stm32f4xx.o(i.SystemCoreClockUpdate) for SystemCoreClockUpdate
    delay.o(i.Delay_Init) refers to delay.o(i.__NVIC_SetPriority) for __NVIC_SetPriority
    delay.o(i.Delay_Init) refers to system_stm32f4xx.o(.data) for SystemCoreClock
    delay.o(i.SysTick_Handler) refers to delay.o(.data) for System_ms
    delay.o(i.delay_ms) refers to delay.o(.data) for System_ms
    delay.o(i.delay_us) refers to system_stm32f4xx.o(.data) for SystemCoreClock
    delay.o(i.micros) refers to system_stm32f4xx.o(.data) for SystemCoreClock
    delay.o(i.micros) refers to delay.o(.data) for System_ms
    delay.o(i.millis) refers to delay.o(.data) for System_ms
    exti.o(i.EXTI0_IRQHandler) refers to stm32f4xx_exti.o(i.EXTI_GetITStatus) for EXTI_GetITStatus
    exti.o(i.EXTI0_IRQHandler) refers to stm32f4xx_exti.o(i.EXTI_ClearITPendingBit) for EXTI_ClearITPendingBit
    exti.o(i.EXTI0_IRQHandler) refers to exti.o(.bss) for EXTI_Function
    exti.o(i.EXTI15_10_IRQHandler) refers to stm32f4xx_exti.o(i.EXTI_GetITStatus) for EXTI_GetITStatus
    exti.o(i.EXTI15_10_IRQHandler) refers to stm32f4xx_exti.o(i.EXTI_ClearITPendingBit) for EXTI_ClearITPendingBit
    exti.o(i.EXTI15_10_IRQHandler) refers to exti.o(.bss) for EXTI_Function
    exti.o(i.EXTI1_IRQHandler) refers to stm32f4xx_exti.o(i.EXTI_GetITStatus) for EXTI_GetITStatus
    exti.o(i.EXTI1_IRQHandler) refers to stm32f4xx_exti.o(i.EXTI_ClearITPendingBit) for EXTI_ClearITPendingBit
    exti.o(i.EXTI1_IRQHandler) refers to exti.o(.bss) for EXTI_Function
    exti.o(i.EXTI2_IRQHandler) refers to stm32f4xx_exti.o(i.EXTI_GetITStatus) for EXTI_GetITStatus
    exti.o(i.EXTI2_IRQHandler) refers to stm32f4xx_exti.o(i.EXTI_ClearITPendingBit) for EXTI_ClearITPendingBit
    exti.o(i.EXTI2_IRQHandler) refers to exti.o(.bss) for EXTI_Function
    exti.o(i.EXTI3_IRQHandler) refers to stm32f4xx_exti.o(i.EXTI_GetITStatus) for EXTI_GetITStatus
    exti.o(i.EXTI3_IRQHandler) refers to stm32f4xx_exti.o(i.EXTI_ClearITPendingBit) for EXTI_ClearITPendingBit
    exti.o(i.EXTI3_IRQHandler) refers to exti.o(.bss) for EXTI_Function
    exti.o(i.EXTI4_IRQHandler) refers to stm32f4xx_exti.o(i.EXTI_GetITStatus) for EXTI_GetITStatus
    exti.o(i.EXTI4_IRQHandler) refers to stm32f4xx_exti.o(i.EXTI_ClearITPendingBit) for EXTI_ClearITPendingBit
    exti.o(i.EXTI4_IRQHandler) refers to exti.o(.bss) for EXTI_Function
    exti.o(i.EXTI9_5_IRQHandler) refers to stm32f4xx_exti.o(i.EXTI_GetITStatus) for EXTI_GetITStatus
    exti.o(i.EXTI9_5_IRQHandler) refers to stm32f4xx_exti.o(i.EXTI_ClearITPendingBit) for EXTI_ClearITPendingBit
    exti.o(i.EXTI9_5_IRQHandler) refers to exti.o(.bss) for EXTI_Function
    exti.o(i.EXTI_GetIRQn) refers to gpio.o(i.GPIO_GetPinNum) for GPIO_GetPinNum
    exti.o(i.EXTIx_Init) refers to gpio.o(i.GPIO_GetPinNum) for GPIO_GetPinNum
    exti.o(i.EXTIx_Init) refers to stm32f4xx_rcc.o(i.RCC_APB2PeriphClockCmd) for RCC_APB2PeriphClockCmd
    exti.o(i.EXTIx_Init) refers to gpio.o(i.GPIO_GetPortNum) for GPIO_GetPortNum
    exti.o(i.EXTIx_Init) refers to stm32f4xx_syscfg.o(i.SYSCFG_EXTILineConfig) for SYSCFG_EXTILineConfig
    exti.o(i.EXTIx_Init) refers to stm32f4xx_exti.o(i.EXTI_Init) for EXTI_Init
    exti.o(i.EXTIx_Init) refers to exti.o(i.EXTI_GetIRQn) for EXTI_GetIRQn
    exti.o(i.EXTIx_Init) refers to misc.o(i.NVIC_Init) for NVIC_Init
    exti.o(i.EXTIx_Init) refers to exti.o(.bss) for EXTI_Function
    exti.o(i.attachInterrupt) refers to exti.o(i.EXTIx_Init) for EXTIx_Init
    exti.o(i.detachInterrupt) refers to exti.o(i.EXTI_GetIRQn) for EXTI_GetIRQn
    gpio.o(i.GPIO_GetPinNum) refers to gpio.o(i.GPIO_GetPinSource) for GPIO_GetPinSource
    gpio.o(i.GPIO_GetPinNum) refers to gpio.o(.constdata) for PIN_MAP
    gpio.o(i.GPIO_GetPortNum) refers to gpio.o(.constdata) for PIN_MAP
    gpio.o(i.GPIOx_Init) refers to stm32f4xx_rcc.o(i.RCC_AHB1PeriphClockCmd) for RCC_AHB1PeriphClockCmd
    gpio.o(i.GPIOx_Init) refers to stm32f4xx_gpio.o(i.GPIO_Init) for GPIO_Init
    pwm.o(i.PWM_Init) refers to arduino.o(i.pinMode) for pinMode
    pwm.o(i.PWM_Init) refers to pwm.o(i.TIM_GetGPIO_AF) for TIM_GetGPIO_AF
    pwm.o(i.PWM_Init) refers to gpio.o(i.GPIO_GetPinNum) for GPIO_GetPinNum
    pwm.o(i.PWM_Init) refers to stm32f4xx_gpio.o(i.GPIO_PinAFConfig) for GPIO_PinAFConfig
    pwm.o(i.PWM_Init) refers to stm32f4xx_tim.o(i.TIM_Cmd) for TIM_Cmd
    pwm.o(i.PWM_Init) refers to pwm.o(i.TIMx_OCxInit) for TIMx_OCxInit
    pwm.o(i.PWM_Init) refers to gpio.o(.constdata) for PIN_MAP
    pwm.o(i.PWM_Init) refers to system_stm32f4xx.o(.data) for SystemCoreClock
    pwm.o(i.TIM_GetGPIO_AF) refers to gpio.o(.constdata) for PIN_MAP
    pwm.o(i.TIMx_OCxInit) refers to timer.o(i.Timer_ClockCmd) for Timer_ClockCmd
    pwm.o(i.TIMx_OCxInit) refers to stm32f4xx_tim.o(i.TIM_TimeBaseInit) for TIM_TimeBaseInit
    pwm.o(i.TIMx_OCxInit) refers to stm32f4xx_tim.o(i.TIM_OC1Init) for TIM_OC1Init
    pwm.o(i.TIMx_OCxInit) refers to stm32f4xx_tim.o(i.TIM_OC1PreloadConfig) for TIM_OC1PreloadConfig
    pwm.o(i.TIMx_OCxInit) refers to stm32f4xx_tim.o(i.TIM_OC2Init) for TIM_OC2Init
    pwm.o(i.TIMx_OCxInit) refers to stm32f4xx_tim.o(i.TIM_OC2PreloadConfig) for TIM_OC2PreloadConfig
    pwm.o(i.TIMx_OCxInit) refers to stm32f4xx_tim.o(i.TIM_OC3Init) for TIM_OC3Init
    pwm.o(i.TIMx_OCxInit) refers to stm32f4xx_tim.o(i.TIM_OC3PreloadConfig) for TIM_OC3PreloadConfig
    pwm.o(i.TIMx_OCxInit) refers to stm32f4xx_tim.o(i.TIM_OC4Init) for TIM_OC4Init
    pwm.o(i.TIMx_OCxInit) refers to stm32f4xx_tim.o(i.TIM_OC4PreloadConfig) for TIM_OC4PreloadConfig
    pwm.o(i.TIMx_OCxInit) refers to stm32f4xx_tim.o(i.TIM_Cmd) for TIM_Cmd
    pwm.o(i.TIMx_OCxInit) refers to stm32f4xx_tim.o(i.TIM_CtrlPWMOutputs) for TIM_CtrlPWMOutputs
    pwm.o(i.pwmWrite) refers to gpio.o(.constdata) for PIN_MAP
    timer.o(i.TIM1_BRK_TIM9_IRQHandler) refers to stm32f4xx_tim.o(i.TIM_GetITStatus) for TIM_GetITStatus
    timer.o(i.TIM1_BRK_TIM9_IRQHandler) refers to stm32f4xx_tim.o(i.TIM_ClearITPendingBit) for TIM_ClearITPendingBit
    timer.o(i.TIM1_BRK_TIM9_IRQHandler) refers to timer.o(.bss) for TIMx_Function
    timer.o(i.TIM1_TRG_COM_TIM11_IRQHandler) refers to stm32f4xx_tim.o(i.TIM_GetITStatus) for TIM_GetITStatus
    timer.o(i.TIM1_TRG_COM_TIM11_IRQHandler) refers to stm32f4xx_tim.o(i.TIM_ClearITPendingBit) for TIM_ClearITPendingBit
    timer.o(i.TIM1_TRG_COM_TIM11_IRQHandler) refers to timer.o(.bss) for TIMx_Function
    timer.o(i.TIM1_UP_TIM10_IRQHandler) refers to stm32f4xx_tim.o(i.TIM_GetITStatus) for TIM_GetITStatus
    timer.o(i.TIM1_UP_TIM10_IRQHandler) refers to stm32f4xx_tim.o(i.TIM_ClearITPendingBit) for TIM_ClearITPendingBit
    timer.o(i.TIM1_UP_TIM10_IRQHandler) refers to timer.o(.bss) for TIMx_Function
    timer.o(i.TIM2_IRQHandler) refers to stm32f4xx_tim.o(i.TIM_GetITStatus) for TIM_GetITStatus
    timer.o(i.TIM2_IRQHandler) refers to stm32f4xx_tim.o(i.TIM_ClearITPendingBit) for TIM_ClearITPendingBit
    timer.o(i.TIM2_IRQHandler) refers to timer.o(.bss) for TIMx_Function
    timer.o(i.TIM3_IRQHandler) refers to stm32f4xx_tim.o(i.TIM_GetITStatus) for TIM_GetITStatus
    timer.o(i.TIM3_IRQHandler) refers to stm32f4xx_tim.o(i.TIM_ClearITPendingBit) for TIM_ClearITPendingBit
    timer.o(i.TIM3_IRQHandler) refers to timer.o(.bss) for TIMx_Function
    timer.o(i.TIM4_IRQHandler) refers to stm32f4xx_tim.o(i.TIM_GetITStatus) for TIM_GetITStatus
    timer.o(i.TIM4_IRQHandler) refers to stm32f4xx_tim.o(i.TIM_ClearITPendingBit) for TIM_ClearITPendingBit
    timer.o(i.TIM4_IRQHandler) refers to timer.o(.bss) for TIMx_Function
    timer.o(i.TIM5_IRQHandler) refers to stm32f4xx_tim.o(i.TIM_GetITStatus) for TIM_GetITStatus
    timer.o(i.TIM5_IRQHandler) refers to stm32f4xx_tim.o(i.TIM_ClearITPendingBit) for TIM_ClearITPendingBit
    timer.o(i.TIM5_IRQHandler) refers to timer.o(.bss) for TIMx_Function
    timer.o(i.TIM6_DAC_IRQHandler) refers to stm32f4xx_tim.o(i.TIM_GetITStatus) for TIM_GetITStatus
    timer.o(i.TIM6_DAC_IRQHandler) refers to stm32f4xx_tim.o(i.TIM_ClearITPendingBit) for TIM_ClearITPendingBit
    timer.o(i.TIM6_DAC_IRQHandler) refers to timer.o(.bss) for TIMx_Function
    timer.o(i.TIM7_IRQHandler) refers to stm32f4xx_tim.o(i.TIM_GetITStatus) for TIM_GetITStatus
    timer.o(i.TIM7_IRQHandler) refers to stm32f4xx_tim.o(i.TIM_ClearITPendingBit) for TIM_ClearITPendingBit
    timer.o(i.TIM7_IRQHandler) refers to timer.o(.bss) for TIMx_Function
    timer.o(i.TIM8_UP_TIM13_IRQHandler) refers to stm32f4xx_tim.o(i.TIM_GetITStatus) for TIM_GetITStatus
    timer.o(i.TIM8_UP_TIM13_IRQHandler) refers to stm32f4xx_tim.o(i.TIM_ClearITPendingBit) for TIM_ClearITPendingBit
    timer.o(i.TIM8_UP_TIM13_IRQHandler) refers to timer.o(.bss) for TIMx_Function
    timer.o(i.Timer_ClockCmd) refers to stm32f4xx_rcc.o(i.RCC_APB2PeriphClockCmd) for RCC_APB2PeriphClockCmd
    timer.o(i.Timer_ClockCmd) refers to stm32f4xx_rcc.o(i.RCC_APB1PeriphClockCmd) for RCC_APB1PeriphClockCmd
    timer.o(i.Timer_FreqToArrPsc) refers to timer.o(i.Qsqrt) for Qsqrt
    timer.o(i.Timer_GetClockOut) refers to system_stm32f4xx.o(.data) for SystemCoreClock
    timer.o(i.Timer_SetInterrupt) refers to timer.o(i.Timer_TimeToArrPsc) for Timer_TimeToArrPsc
    timer.o(i.Timer_SetInterrupt) refers to timer.o(i.Timer_SetInterruptBase) for Timer_SetInterruptBase
    timer.o(i.Timer_SetInterrupt) refers to system_stm32f4xx.o(.data) for SystemCoreClock
    timer.o(i.Timer_SetInterruptBase) refers to stm32f4xx_tim.o(i.TIM_DeInit) for TIM_DeInit
    timer.o(i.Timer_SetInterruptBase) refers to timer.o(i.Timer_ClockCmd) for Timer_ClockCmd
    timer.o(i.Timer_SetInterruptBase) refers to stm32f4xx_tim.o(i.TIM_TimeBaseInit) for TIM_TimeBaseInit
    timer.o(i.Timer_SetInterruptBase) refers to misc.o(i.NVIC_Init) for NVIC_Init
    timer.o(i.Timer_SetInterruptBase) refers to stm32f4xx_tim.o(i.TIM_ClearFlag) for TIM_ClearFlag
    timer.o(i.Timer_SetInterruptBase) refers to stm32f4xx_tim.o(i.TIM_ITConfig) for TIM_ITConfig
    timer.o(i.Timer_SetInterruptBase) refers to timer.o(.bss) for TIMx_Function
    timer.o(i.Timer_SetInterruptFreqUpdate) refers to timer.o(i.Timer_FreqToArrPsc) for Timer_FreqToArrPsc
    timer.o(i.Timer_SetInterruptFreqUpdate) refers to stm32f4xx_tim.o(i.TIM_SetAutoreload) for TIM_SetAutoreload
    timer.o(i.Timer_SetInterruptFreqUpdate) refers to stm32f4xx_tim.o(i.TIM_PrescalerConfig) for TIM_PrescalerConfig
    timer.o(i.Timer_SetInterruptFreqUpdate) refers to system_stm32f4xx.o(.data) for SystemCoreClock
    timer.o(i.Timer_SetInterruptTimeUpdate) refers to timer.o(i.Timer_TimeToArrPsc) for Timer_TimeToArrPsc
    timer.o(i.Timer_SetInterruptTimeUpdate) refers to stm32f4xx_tim.o(i.TIM_SetAutoreload) for TIM_SetAutoreload
    timer.o(i.Timer_SetInterruptTimeUpdate) refers to stm32f4xx_tim.o(i.TIM_PrescalerConfig) for TIM_PrescalerConfig
    timer.o(i.Timer_SetInterruptTimeUpdate) refers to system_stm32f4xx.o(.data) for SystemCoreClock
    battery.o(i._ZN7Battery15get_battery_lowEv) refers to battery.o(i._ZN7Battery20get_battery_notifierEv) for Battery::get_battery_notifier()
    battery.o(i._ZN7Battery20get_battery_notifierEv) refers to battery.o(i._ZN7Battery8get_voltEv) for Battery::get_volt()
    battery.o(i._ZN7Battery4initEv) refers to arduino.o(i.pinMode) for pinMode
    battery.o(i._ZN7Battery4initEv) refers to adc.o(i.ADC_DMA_Init) for ADC_DMA_Init
    battery.o(i._ZN7Battery8get_voltEv) refers to arduino.o(i.analogRead_DMA) for analogRead_DMA
    battery.o(i._ZN7Battery8get_voltEv) refers to dflt_clz.o(x$fpl$dfltu) for __aeabi_ui2d
    battery.o(i._ZN7Battery8get_voltEv) refers to dmul.o(x$fpl$dmul) for __aeabi_dmul
    battery.o(i._ZN7Battery8get_voltEv) refers to ddiv.o(x$fpl$ddiv) for __aeabi_ddiv
    battery.o(i._ZN7Battery8get_voltEv) refers to d2f.o(x$fpl$d2f) for __aeabi_d2f
    battery.o(.ARM.exidx) refers to battery.o(i._ZN7BatteryC1Efff) for i._ZN7BatteryC1Efff
    battery.o(.ARM.exidx) refers to battery.o(i._ZN7Battery4initEv) for i._ZN7Battery4initEv
    battery.o(.ARM.exidx) refers to battery.o(i._ZN7Battery8get_voltEv) for i._ZN7Battery8get_voltEv
    battery.o(.ARM.exidx) refers to battery.o(i._ZN7Battery20get_battery_notifierEv) for i._ZN7Battery20get_battery_notifierEv
    battery.o(.ARM.exidx) refers to battery.o(i._ZN7Battery15get_battery_lowEv) for i._ZN7Battery15get_battery_lowEv
    encoder.o(i.count_pos1) refers to gpio.o(.constdata) for PIN_MAP
    encoder.o(i.count_pos1) refers to encoder.o(.data) for en_pos1
    encoder.o(i.count_pos2) refers to gpio.o(.constdata) for PIN_MAP
    encoder.o(i.count_pos2) refers to encoder.o(.data) for en_pos2
    encoder.o(i.count_pos3) refers to gpio.o(.constdata) for PIN_MAP
    encoder.o(i.count_pos3) refers to encoder.o(.data) for en_pos3
    encoder.o(i.count_pos4) refers to gpio.o(.constdata) for PIN_MAP
    encoder.o(i.count_pos4) refers to encoder.o(.data) for en_pos4
    encoder.o(i.encoder_init) refers to arduino.o(i.pinMode) for pinMode
    encoder.o(i.encoder_init) refers to exti.o(i.attachInterrupt) for attachInterrupt
    encoder.o(i.encoder_init) refers to encoder.o(i.count_pos1) for count_pos1
    encoder.o(i.encoder_init) refers to encoder.o(i.count_pos2) for count_pos2
    encoder.o(i.encoder_init) refers to encoder.o(i.count_pos3) for count_pos3
    encoder.o(i.encoder_init) refers to encoder.o(i.count_pos4) for count_pos4
    pid.o(i._ZN3PID7computeEff) refers to f2d.o(x$fpl$f2d) for __aeabi_f2d
    pid.o(i._ZN3PID7computeEff) refers to daddsub_clz.o(x$fpl$dadd) for __aeabi_dadd
    pid.o(i._ZN3PID7computeEff) refers to daddsub_clz.o(x$fpl$dsub) for __aeabi_dsub
    pid.o(i._ZN3PID7computeEff) refers to deqf.o(x$fpl$deqf) for __aeabi_cdcmpeq
    pid.o(i._ZN3PID7computeEff) refers to dmul.o(x$fpl$dmul) for __aeabi_dmul
    pid.o(i._ZN3PID7computeEff) refers to drleqf.o(x$fpl$drleqf) for __aeabi_cdrcmple
    pid.o(i._ZN3PID7computeEff) refers to dleqf.o(x$fpl$dleqf) for __aeabi_cdcmple
    pid.o(.ARM.exidx) refers to pid.o(i._ZN3PIDC1Efffff) for i._ZN3PIDC1Efffff
    pid.o(.ARM.exidx) refers to pid.o(i._ZN3PID7computeEff) for i._ZN3PID7computeEff
    pid.o(.ARM.exidx) refers to pid.o(i._ZN3PID15updateConstantsEfff) for i._ZN3PID15updateConstantsEfff
    motor.o(i._ZN5Motor11updateSpeedEl) refers to delay.o(i.millis) for millis
    motor.o(i._ZN5Motor11updateSpeedEl) refers to dflt_clz.o(x$fpl$dfltu) for __aeabi_ui2d
    motor.o(i._ZN5Motor11updateSpeedEl) refers to ddiv.o(x$fpl$ddiv) for __aeabi_ddiv
    motor.o(i._ZN5Motor11updateSpeedEl) refers to dflt_clz.o(x$fpl$dflt) for __aeabi_i2d
    motor.o(i._ZN5Motor11updateSpeedEl) refers to dfix.o(x$fpl$dfix) for __aeabi_d2iz
    motor.o(i._ZN5Motor4initEv) refers to pwm.o(i.PWM_Init) for PWM_Init
    motor.o(i._ZN5Motor4initEv) refers to arduino.o(i.pinMode) for pinMode
    motor.o(i._ZN5Motor4initEv) refers to motor.o(.constdata) for MOTOR_PWM_PIN
    motor.o(i._ZN5Motor4spinEi) refers to arduino.o(i.digitalWrite) for digitalWrite
    motor.o(i._ZN5Motor4spinEi) refers to arduino.o(i.analogWrite) for analogWrite
    motor.o(i._ZN5Motor4spinEi) refers to motor.o(.constdata) for MOTOR_A_PIN
    motor.o(.ARM.exidx) refers to motor.o(i._ZN5MotorC1E13Motor_TypeDeftj) for i._ZN5MotorC1E13Motor_TypeDeftj
    motor.o(.ARM.exidx) refers to motor.o(i._ZN5Motor4initEv) for i._ZN5Motor4initEv
    motor.o(.ARM.exidx) refers to motor.o(i._ZN5Motor11updateSpeedEl) for i._ZN5Motor11updateSpeedEl
    motor.o(.ARM.exidx) refers to motor.o(i._ZN5Motor4spinEi) for i._ZN5Motor4spinEi
    kinematics.o(i._ZN10Kinematics6getRPMEfff) refers to kinematics.o(i._ZN10Kinematics12calculateRPMEfff) for Kinematics::calculateRPM(float, float, float)
    kinematics.o(.ARM.exidx) refers to kinematics.o(i._ZN10KinematicsC1Eifff) for i._ZN10KinematicsC1Eifff
    kinematics.o(.ARM.exidx) refers to kinematics.o(i._ZN10Kinematics13getVelocitiesEffff) for i._ZN10Kinematics13getVelocitiesEffff
    kinematics.o(.ARM.exidx) refers to kinematics.o(i._ZN10Kinematics12calculateRPMEfff) for i._ZN10Kinematics12calculateRPMEfff
    kinematics.o(.ARM.exidx) refers to kinematics.o(i._ZN10Kinematics6getRPMEfff) for i._ZN10Kinematics6getRPMEfff
    gy85.o(i._ZN4Gy8510send_valueEih) refers to wirebase.o(i._ZN8WireBase17beginTransmissionEi) for WireBase::beginTransmission(int)
    gy85.o(i._ZN4Gy8510send_valueEih) refers to wirebase.o(i._ZN8WireBase5writeEh) for WireBase::write(unsigned char)
    gy85.o(i._ZN4Gy8510send_valueEih) refers to wirebase.o(i._ZN8WireBase15endTransmissionEv) for WireBase::endTransmission()
    gy85.o(i._ZN4Gy8515check_gyroscopeEv) refers to gy85.o(i._ZN4Gy858check_idEih) for Gy85::check_id(int, unsigned char)
    gy85.o(i._ZN4Gy8515check_gyroscopeEv) refers to gy85.o(i._ZN4Gy8517write_to_registerEihh) for Gy85::write_to_register(int, unsigned char, unsigned char)
    gy85.o(i._ZN4Gy8517measure_gyroscopeEv) refers to gy85.o(i._ZN4Gy8510send_valueEih) for Gy85::send_value(int, unsigned char)
    gy85.o(i._ZN4Gy8517measure_gyroscopeEv) refers to wirebase.o(i._ZN8WireBase11requestFromEii) for WireBase::requestFrom(int, int)
    gy85.o(i._ZN4Gy8517measure_gyroscopeEv) refers to wirebase.o(i._ZN8WireBase4readEv) for WireBase::read()
    gy85.o(i._ZN4Gy8517measure_gyroscopeEv) refers to wirebase.o(i._ZN8WireBase9availableEv) for WireBase::available()
    gy85.o(i._ZN4Gy8517measure_gyroscopeEv) refers to f2d.o(x$fpl$f2d) for __aeabi_f2d
    gy85.o(i._ZN4Gy8517measure_gyroscopeEv) refers to dmul.o(x$fpl$dmul) for __aeabi_dmul
    gy85.o(i._ZN4Gy8517measure_gyroscopeEv) refers to d2f.o(x$fpl$d2f) for __aeabi_d2f
    gy85.o(i._ZN4Gy8517write_to_registerEihh) refers to wirebase.o(i._ZN8WireBase17beginTransmissionEi) for WireBase::beginTransmission(int)
    gy85.o(i._ZN4Gy8517write_to_registerEihh) refers to wirebase.o(i._ZN8WireBase5writeEh) for WireBase::write(unsigned char)
    gy85.o(i._ZN4Gy8517write_to_registerEihh) refers to wirebase.o(i._ZN8WireBase15endTransmissionEv) for WireBase::endTransmission()
    gy85.o(i._ZN4Gy8518check_magnetometerEv) refers to gy85.o(i._ZN4Gy8517write_to_registerEihh) for Gy85::write_to_register(int, unsigned char, unsigned char)
    gy85.o(i._ZN4Gy8519check_accelerometerEv) refers to gy85.o(i._ZN4Gy858check_idEih) for Gy85::check_id(int, unsigned char)
    gy85.o(i._ZN4Gy8519check_accelerometerEv) refers to gy85.o(i._ZN4Gy8517write_to_registerEihh) for Gy85::write_to_register(int, unsigned char, unsigned char)
    gy85.o(i._ZN4Gy8520measure_accelerationEv) refers to gy85.o(i._ZN4Gy8510send_valueEih) for Gy85::send_value(int, unsigned char)
    gy85.o(i._ZN4Gy8520measure_accelerationEv) refers to wirebase.o(i._ZN8WireBase11requestFromEii) for WireBase::requestFrom(int, int)
    gy85.o(i._ZN4Gy8520measure_accelerationEv) refers to wirebase.o(i._ZN8WireBase4readEv) for WireBase::read()
    gy85.o(i._ZN4Gy8520measure_accelerationEv) refers to wirebase.o(i._ZN8WireBase9availableEv) for WireBase::available()
    gy85.o(i._ZN4Gy8520measure_accelerationEv) refers to f2d.o(x$fpl$f2d) for __aeabi_f2d
    gy85.o(i._ZN4Gy8520measure_accelerationEv) refers to ddiv.o(x$fpl$ddiv) for __aeabi_ddiv
    gy85.o(i._ZN4Gy8520measure_accelerationEv) refers to d2f.o(x$fpl$d2f) for __aeabi_d2f
    gy85.o(i._ZN4Gy8520measure_magnetometerEv) refers to gy85.o(i._ZN4Gy8510send_valueEih) for Gy85::send_value(int, unsigned char)
    gy85.o(i._ZN4Gy8520measure_magnetometerEv) refers to wirebase.o(i._ZN8WireBase11requestFromEii) for WireBase::requestFrom(int, int)
    gy85.o(i._ZN4Gy8520measure_magnetometerEv) refers to wirebase.o(i._ZN8WireBase4readEv) for WireBase::read()
    gy85.o(i._ZN4Gy8520measure_magnetometerEv) refers to wirebase.o(i._ZN8WireBase9availableEv) for WireBase::available()
    gy85.o(i._ZN4Gy8520measure_magnetometerEv) refers to f2d.o(x$fpl$f2d) for __aeabi_f2d
    gy85.o(i._ZN4Gy8520measure_magnetometerEv) refers to dmul.o(x$fpl$dmul) for __aeabi_dmul
    gy85.o(i._ZN4Gy8520measure_magnetometerEv) refers to d2f.o(x$fpl$d2f) for __aeabi_d2f
    gy85.o(i._ZN4Gy8520measure_magnetometerEv) refers to gy85.o(i._ZN4Gy8517write_to_registerEihh) for Gy85::write_to_register(int, unsigned char, unsigned char)
    gy85.o(i._ZN4Gy854initEv) refers to wire.o(i._ZN7TwoWire5beginEh) for TwoWire::begin(unsigned char)
    gy85.o(i._ZN4Gy858check_idEih) refers to wirebase.o(i._ZN8WireBase17beginTransmissionEi) for WireBase::beginTransmission(int)
    gy85.o(i._ZN4Gy858check_idEih) refers to wirebase.o(i._ZN8WireBase5writeEh) for WireBase::write(unsigned char)
    gy85.o(i._ZN4Gy858check_idEih) refers to wirebase.o(i._ZN8WireBase15endTransmissionEv) for WireBase::endTransmission()
    gy85.o(i._ZN4Gy858check_idEih) refers to wirebase.o(i._ZN8WireBase11requestFromEii) for WireBase::requestFrom(int, int)
    gy85.o(i._ZN4Gy858check_idEih) refers to wirebase.o(i._ZN8WireBase4readEv) for WireBase::read()
    gy85.o(.ARM.exidx) refers to gy85.o(i._ZN4Gy854initEv) for i._ZN4Gy854initEv
    gy85.o(.ARM.exidx) refers to gy85.o(i._ZN4Gy8510send_valueEih) for i._ZN4Gy8510send_valueEih
    gy85.o(.ARM.exidx) refers to gy85.o(i._ZN4Gy858check_idEih) for i._ZN4Gy858check_idEih
    gy85.o(.ARM.exidx) refers to gy85.o(i._ZN4Gy8517write_to_registerEihh) for i._ZN4Gy8517write_to_registerEihh
    gy85.o(.ARM.exidx) refers to gy85.o(i._ZN4Gy8515check_gyroscopeEv) for i._ZN4Gy8515check_gyroscopeEv
    gy85.o(.ARM.exidx) refers to gy85.o(i._ZN4Gy8517measure_gyroscopeEv) for i._ZN4Gy8517measure_gyroscopeEv
    gy85.o(.ARM.exidx) refers to gy85.o(i._ZN4Gy8519check_accelerometerEv) for i._ZN4Gy8519check_accelerometerEv
    gy85.o(.ARM.exidx) refers to gy85.o(i._ZN4Gy8520measure_accelerationEv) for i._ZN4Gy8520measure_accelerationEv
    gy85.o(.ARM.exidx) refers to gy85.o(i._ZN4Gy8518check_magnetometerEv) for i._ZN4Gy8518check_magnetometerEv
    gy85.o(.ARM.exidx) refers to gy85.o(i._ZN4Gy8520measure_magnetometerEv) for i._ZN4Gy8520measure_magnetometerEv
    mpu6050.o(i._ZN7MPU605010getMotion6EPsS0_S0_S0_S0_S0_) refers to i2cdev.o(i._ZN6I2Cdev9readBytesEhhhPht) for I2Cdev::readBytes(unsigned char, unsigned char, unsigned char, unsigned char*, unsigned short)
    mpu6050.o(i._ZN7MPU605010getMotion6EPsS0_S0_S0_S0_S0_) refers to i2cdev.o(.data) for I2Cdev::readTimeout
    mpu6050.o(i._ZN7MPU605010getMotion9EPsS0_S0_S0_S0_S0_S0_S0_S0_) refers to mpu6050.o(i._ZN7MPU605010getMotion6EPsS0_S0_S0_S0_S0_) for MPU6050::getMotion6(short*, short*, short*, short*, short*, short*)
    mpu6050.o(i._ZN7MPU605010initializeEv) refers to mpu6050.o(i._ZN7MPU605014setClockSourceEh) for MPU6050::setClockSource(unsigned char)
    mpu6050.o(i._ZN7MPU605010initializeEv) refers to mpu6050.o(i._ZN7MPU605021setFullScaleGyroRangeEh) for MPU6050::setFullScaleGyroRange(unsigned char)
    mpu6050.o(i._ZN7MPU605010initializeEv) refers to mpu6050.o(i._ZN7MPU605022setFullScaleAccelRangeEh) for MPU6050::setFullScaleAccelRange(unsigned char)
    mpu6050.o(i._ZN7MPU605010initializeEv) refers to mpu6050.o(i._ZN7MPU605015setSleepEnabledEb) for MPU6050::setSleepEnabled(bool)
    mpu6050.o(i._ZN7MPU605011getDHPFModeEv) refers to i2cdev.o(i._ZN6I2Cdev8readBitsEhhhhPht) for I2Cdev::readBits(unsigned char, unsigned char, unsigned char, unsigned char, unsigned char*, unsigned short)
    mpu6050.o(i._ZN7MPU605011getDHPFModeEv) refers to i2cdev.o(.data) for I2Cdev::readTimeout
    mpu6050.o(i._ZN7MPU605011getDLPFModeEv) refers to i2cdev.o(i._ZN6I2Cdev8readBitsEhhhhPht) for I2Cdev::readBits(unsigned char, unsigned char, unsigned char, unsigned char, unsigned char*, unsigned short)
    mpu6050.o(i._ZN7MPU605011getDLPFModeEv) refers to i2cdev.o(.data) for I2Cdev::readTimeout
    mpu6050.o(i._ZN7MPU605011getDeviceIDEv) refers to i2cdev.o(i._ZN6I2Cdev8readBitsEhhhhPht) for I2Cdev::readBits(unsigned char, unsigned char, unsigned char, unsigned char, unsigned char*, unsigned short)
    mpu6050.o(i._ZN7MPU605011getDeviceIDEv) refers to i2cdev.o(.data) for I2Cdev::readTimeout
    mpu6050.o(i._ZN7MPU605011getFIFOByteEv) refers to i2cdev.o(i._ZN6I2Cdev8readByteEhhPht) for I2Cdev::readByte(unsigned char, unsigned char, unsigned char*, unsigned short)
    mpu6050.o(i._ZN7MPU605011getFIFOByteEv) refers to i2cdev.o(.data) for I2Cdev::readTimeout
    mpu6050.o(i._ZN7MPU605011getRotationEPsS0_S0_) refers to i2cdev.o(i._ZN6I2Cdev9readBytesEhhhPht) for I2Cdev::readBytes(unsigned char, unsigned char, unsigned char, unsigned char*, unsigned short)
    mpu6050.o(i._ZN7MPU605011getRotationEPsS0_S0_) refers to i2cdev.o(.data) for I2Cdev::readTimeout
    mpu6050.o(i._ZN7MPU605011setDHPFModeEh) refers to i2cdev.o(i._ZN6I2Cdev9writeBitsEhhhhh) for I2Cdev::writeBits(unsigned char, unsigned char, unsigned char, unsigned char, unsigned char)
    mpu6050.o(i._ZN7MPU605011setDLPFModeEh) refers to i2cdev.o(i._ZN6I2Cdev9writeBitsEhhhhh) for I2Cdev::writeBits(unsigned char, unsigned char, unsigned char, unsigned char, unsigned char)
    mpu6050.o(i._ZN7MPU605011setDeviceIDEh) refers to i2cdev.o(i._ZN6I2Cdev9writeBitsEhhhhh) for I2Cdev::writeBits(unsigned char, unsigned char, unsigned char, unsigned char, unsigned char)
    mpu6050.o(i._ZN7MPU605011setFIFOByteEh) refers to i2cdev.o(i._ZN6I2Cdev9writeByteEhhh) for I2Cdev::writeByte(unsigned char, unsigned char, unsigned char)
    mpu6050.o(i._ZN7MPU605012getFIFOBytesEPhh) refers to i2cdev.o(i._ZN6I2Cdev9readBytesEhhhPht) for I2Cdev::readBytes(unsigned char, unsigned char, unsigned char, unsigned char*, unsigned short)
    mpu6050.o(i._ZN7MPU605012getFIFOBytesEPhh) refers to i2cdev.o(.data) for I2Cdev::readTimeout
    mpu6050.o(i._ZN7MPU605012getFIFOCountEv) refers to i2cdev.o(i._ZN6I2Cdev9readBytesEhhhPht) for I2Cdev::readBytes(unsigned char, unsigned char, unsigned char, unsigned char*, unsigned short)
    mpu6050.o(i._ZN7MPU605012getFIFOCountEv) refers to i2cdev.o(.data) for I2Cdev::readTimeout
    mpu6050.o(i._ZN7MPU605012getIntStatusEv) refers to i2cdev.o(i._ZN6I2Cdev8readByteEhhPht) for I2Cdev::readByte(unsigned char, unsigned char, unsigned char*, unsigned short)
    mpu6050.o(i._ZN7MPU605012getIntStatusEv) refers to i2cdev.o(.data) for I2Cdev::readTimeout
    mpu6050.o(i._ZN7MPU605012getRotationXEv) refers to i2cdev.o(i._ZN6I2Cdev9readBytesEhhhPht) for I2Cdev::readBytes(unsigned char, unsigned char, unsigned char, unsigned char*, unsigned short)
    mpu6050.o(i._ZN7MPU605012getRotationXEv) refers to i2cdev.o(.data) for I2Cdev::readTimeout
    mpu6050.o(i._ZN7MPU605012getRotationYEv) refers to i2cdev.o(i._ZN6I2Cdev9readBytesEhhhPht) for I2Cdev::readBytes(unsigned char, unsigned char, unsigned char, unsigned char*, unsigned short)
    mpu6050.o(i._ZN7MPU605012getRotationYEv) refers to i2cdev.o(.data) for I2Cdev::readTimeout
    mpu6050.o(i._ZN7MPU605012getRotationZEv) refers to i2cdev.o(i._ZN6I2Cdev9readBytesEhhhPht) for I2Cdev::readBytes(unsigned char, unsigned char, unsigned char, unsigned char*, unsigned short)
    mpu6050.o(i._ZN7MPU605012getRotationZEv) refers to i2cdev.o(.data) for I2Cdev::readTimeout
    mpu6050.o(i._ZN7MPU605012getXFineGainEv) refers to i2cdev.o(i._ZN6I2Cdev8readByteEhhPht) for I2Cdev::readByte(unsigned char, unsigned char, unsigned char*, unsigned short)
    mpu6050.o(i._ZN7MPU605012getXFineGainEv) refers to i2cdev.o(.data) for I2Cdev::readTimeout
    mpu6050.o(i._ZN7MPU605012getYFineGainEv) refers to i2cdev.o(i._ZN6I2Cdev8readByteEhhPht) for I2Cdev::readByte(unsigned char, unsigned char, unsigned char*, unsigned short)
    mpu6050.o(i._ZN7MPU605012getYFineGainEv) refers to i2cdev.o(.data) for I2Cdev::readTimeout
    mpu6050.o(i._ZN7MPU605012getZFineGainEv) refers to i2cdev.o(i._ZN6I2Cdev8readByteEhhPht) for I2Cdev::readByte(unsigned char, unsigned char, unsigned char*, unsigned short)
    mpu6050.o(i._ZN7MPU605012getZFineGainEv) refers to i2cdev.o(.data) for I2Cdev::readTimeout
    mpu6050.o(i._ZN7MPU605012resetSensorsEv) refers to i2cdev.o(i._ZN6I2Cdev8writeBitEhhhh) for I2Cdev::writeBit(unsigned char, unsigned char, unsigned char, unsigned char)
    mpu6050.o(i._ZN7MPU605012setXFineGainEa) refers to i2cdev.o(i._ZN6I2Cdev9writeByteEhhh) for I2Cdev::writeByte(unsigned char, unsigned char, unsigned char)
    mpu6050.o(i._ZN7MPU605012setYFineGainEa) refers to i2cdev.o(i._ZN6I2Cdev9writeByteEhhh) for I2Cdev::writeByte(unsigned char, unsigned char, unsigned char)
    mpu6050.o(i._ZN7MPU605012setZFineGainEa) refers to i2cdev.o(i._ZN6I2Cdev9writeByteEhhh) for I2Cdev::writeByte(unsigned char, unsigned char, unsigned char)
    mpu6050.o(i._ZN7MPU605013getDMPConfig1Ev) refers to i2cdev.o(i._ZN6I2Cdev8readByteEhhPht) for I2Cdev::readByte(unsigned char, unsigned char, unsigned char*, unsigned short)
    mpu6050.o(i._ZN7MPU605013getDMPConfig1Ev) refers to i2cdev.o(.data) for I2Cdev::readTimeout
    mpu6050.o(i._ZN7MPU605013getDMPConfig2Ev) refers to i2cdev.o(i._ZN6I2Cdev8readByteEhhPht) for I2Cdev::readByte(unsigned char, unsigned char, unsigned char*, unsigned short)
    mpu6050.o(i._ZN7MPU605013getDMPConfig2Ev) refers to i2cdev.o(.data) for I2Cdev::readTimeout
    mpu6050.o(i._ZN7MPU605013getDMPEnabledEv) refers to i2cdev.o(i._ZN6I2Cdev7readBitEhhhPht) for I2Cdev::readBit(unsigned char, unsigned char, unsigned char, unsigned char*, unsigned short)
    mpu6050.o(i._ZN7MPU605013getDMPEnabledEv) refers to i2cdev.o(.data) for I2Cdev::readTimeout
    mpu6050.o(i._ZN7MPU605013getIntEnabledEv) refers to i2cdev.o(i._ZN6I2Cdev8readByteEhhPht) for I2Cdev::readByte(unsigned char, unsigned char, unsigned char*, unsigned short)
    mpu6050.o(i._ZN7MPU605013getIntEnabledEv) refers to i2cdev.o(.data) for I2Cdev::readTimeout
    mpu6050.o(i._ZN7MPU605013getSlave0NackEv) refers to i2cdev.o(i._ZN6I2Cdev7readBitEhhhPht) for I2Cdev::readBit(unsigned char, unsigned char, unsigned char, unsigned char*, unsigned short)
    mpu6050.o(i._ZN7MPU605013getSlave0NackEv) refers to i2cdev.o(.data) for I2Cdev::readTimeout
    mpu6050.o(i._ZN7MPU605013getSlave1NackEv) refers to i2cdev.o(i._ZN6I2Cdev7readBitEhhhPht) for I2Cdev::readBit(unsigned char, unsigned char, unsigned char, unsigned char*, unsigned short)
    mpu6050.o(i._ZN7MPU605013getSlave1NackEv) refers to i2cdev.o(.data) for I2Cdev::readTimeout
    mpu6050.o(i._ZN7MPU605013getSlave2NackEv) refers to i2cdev.o(i._ZN6I2Cdev7readBitEhhhPht) for I2Cdev::readBit(unsigned char, unsigned char, unsigned char, unsigned char*, unsigned short)
    mpu6050.o(i._ZN7MPU605013getSlave2NackEv) refers to i2cdev.o(.data) for I2Cdev::readTimeout
    mpu6050.o(i._ZN7MPU605013getSlave3NackEv) refers to i2cdev.o(i._ZN6I2Cdev7readBitEhhhPht) for I2Cdev::readBit(unsigned char, unsigned char, unsigned char, unsigned char*, unsigned short)
    mpu6050.o(i._ZN7MPU605013getSlave3NackEv) refers to i2cdev.o(.data) for I2Cdev::readTimeout
    mpu6050.o(i._ZN7MPU605013getSlave4NackEv) refers to i2cdev.o(i._ZN6I2Cdev7readBitEhhhPht) for I2Cdev::readBit(unsigned char, unsigned char, unsigned char, unsigned char*, unsigned short)
    mpu6050.o(i._ZN7MPU605013getSlave4NackEv) refers to i2cdev.o(.data) for I2Cdev::readTimeout
    mpu6050.o(i._ZN7MPU605013setDMPConfig1Eh) refers to i2cdev.o(i._ZN6I2Cdev9writeByteEhhh) for I2Cdev::writeByte(unsigned char, unsigned char, unsigned char)
    mpu6050.o(i._ZN7MPU605013setDMPConfig2Eh) refers to i2cdev.o(i._ZN6I2Cdev9writeByteEhhh) for I2Cdev::writeByte(unsigned char, unsigned char, unsigned char)
    mpu6050.o(i._ZN7MPU605013setDMPEnabledEb) refers to i2cdev.o(i._ZN6I2Cdev8writeBitEhhhh) for I2Cdev::writeBit(unsigned char, unsigned char, unsigned char, unsigned char)
    mpu6050.o(i._ZN7MPU605013setIntEnabledEh) refers to i2cdev.o(i._ZN6I2Cdev9writeByteEhhh) for I2Cdev::writeByte(unsigned char, unsigned char, unsigned char)
    mpu6050.o(i._ZN7MPU605013setMemoryBankEhbb) refers to i2cdev.o(i._ZN6I2Cdev9writeByteEhhh) for I2Cdev::writeByte(unsigned char, unsigned char, unsigned char)
    mpu6050.o(i._ZN7MPU605014getClockSourceEv) refers to i2cdev.o(i._ZN6I2Cdev8readBitsEhhhhPht) for I2Cdev::readBits(unsigned char, unsigned char, unsigned char, unsigned char, unsigned char*, unsigned short)
    mpu6050.o(i._ZN7MPU605014getClockSourceEv) refers to i2cdev.o(.data) for I2Cdev::readTimeout
    mpu6050.o(i._ZN7MPU605014getFIFOEnabledEv) refers to i2cdev.o(i._ZN6I2Cdev7readBitEhhhPht) for I2Cdev::readBit(unsigned char, unsigned char, unsigned char, unsigned char*, unsigned short)
    mpu6050.o(i._ZN7MPU605014getFIFOEnabledEv) refers to i2cdev.o(.data) for I2Cdev::readTimeout
    mpu6050.o(i._ZN7MPU605014getTemperatureEv) refers to i2cdev.o(i._ZN6I2Cdev9readBytesEhhhPht) for I2Cdev::readBytes(unsigned char, unsigned char, unsigned char, unsigned char*, unsigned short)
    mpu6050.o(i._ZN7MPU605014getTemperatureEv) refers to i2cdev.o(.data) for I2Cdev::readTimeout
    mpu6050.o(i._ZN7MPU605014getXGyroOffsetEv) refers to i2cdev.o(i._ZN6I2Cdev9readBytesEhhhPht) for I2Cdev::readBytes(unsigned char, unsigned char, unsigned char, unsigned char*, unsigned short)
    mpu6050.o(i._ZN7MPU605014getXGyroOffsetEv) refers to i2cdev.o(.data) for I2Cdev::readTimeout
    mpu6050.o(i._ZN7MPU605014getYGyroOffsetEv) refers to i2cdev.o(i._ZN6I2Cdev9readBytesEhhhPht) for I2Cdev::readBytes(unsigned char, unsigned char, unsigned char, unsigned char*, unsigned short)
    mpu6050.o(i._ZN7MPU605014getYGyroOffsetEv) refers to i2cdev.o(.data) for I2Cdev::readTimeout
    mpu6050.o(i._ZN7MPU605014getZGyroOffsetEv) refers to i2cdev.o(i._ZN6I2Cdev9readBytesEhhhPht) for I2Cdev::readBytes(unsigned char, unsigned char, unsigned char, unsigned char*, unsigned short)
    mpu6050.o(i._ZN7MPU605014getZGyroOffsetEv) refers to i2cdev.o(.data) for I2Cdev::readTimeout
    mpu6050.o(i._ZN7MPU605014readMemoryByteEv) refers to i2cdev.o(i._ZN6I2Cdev8readByteEhhPht) for I2Cdev::readByte(unsigned char, unsigned char, unsigned char*, unsigned short)
    mpu6050.o(i._ZN7MPU605014readMemoryByteEv) refers to i2cdev.o(.data) for I2Cdev::readTimeout
    mpu6050.o(i._ZN7MPU605014resetI2CMasterEv) refers to i2cdev.o(i._ZN6I2Cdev8writeBitEhhhh) for I2Cdev::writeBit(unsigned char, unsigned char, unsigned char, unsigned char)
    mpu6050.o(i._ZN7MPU605014setClockSourceEh) refers to i2cdev.o(i._ZN6I2Cdev9writeBitsEhhhhh) for I2Cdev::writeBits(unsigned char, unsigned char, unsigned char, unsigned char, unsigned char)
    mpu6050.o(i._ZN7MPU605014setFIFOEnabledEb) refers to i2cdev.o(i._ZN6I2Cdev8writeBitEhhhh) for I2Cdev::writeBit(unsigned char, unsigned char, unsigned char, unsigned char)
    mpu6050.o(i._ZN7MPU605014setXGyroOffsetEs) refers to i2cdev.o(i._ZN6I2Cdev9writeWordEhht) for I2Cdev::writeWord(unsigned char, unsigned char, unsigned short)
    mpu6050.o(i._ZN7MPU605014setYGyroOffsetEs) refers to i2cdev.o(i._ZN6I2Cdev9writeWordEhht) for I2Cdev::writeWord(unsigned char, unsigned char, unsigned short)
    mpu6050.o(i._ZN7MPU605014setZGyroOffsetEs) refers to i2cdev.o(i._ZN6I2Cdev9writeWordEhht) for I2Cdev::writeWord(unsigned char, unsigned char, unsigned short)
    mpu6050.o(i._ZN7MPU605014testConnectionEv) refers to mpu6050.o(i._ZN7MPU605011getDeviceIDEv) for MPU6050::getDeviceID()
    mpu6050.o(i._ZN7MPU605015getAccelerationEPsS0_S0_) refers to i2cdev.o(i._ZN6I2Cdev9readBytesEhhhPht) for I2Cdev::readBytes(unsigned char, unsigned char, unsigned char, unsigned char*, unsigned short)
    mpu6050.o(i._ZN7MPU605015getAccelerationEPsS0_S0_) refers to i2cdev.o(.data) for I2Cdev::readTimeout
    mpu6050.o(i._ZN7MPU605015getIntDMPStatusEv) refers to i2cdev.o(i._ZN6I2Cdev7readBitEhhhPht) for I2Cdev::readBit(unsigned char, unsigned char, unsigned char, unsigned char*, unsigned short)
    mpu6050.o(i._ZN7MPU605015getIntDMPStatusEv) refers to i2cdev.o(.data) for I2Cdev::readTimeout
    mpu6050.o(i._ZN7MPU605015getMotionStatusEv) refers to i2cdev.o(i._ZN6I2Cdev8readByteEhhPht) for I2Cdev::readByte(unsigned char, unsigned char, unsigned char*, unsigned short)
    mpu6050.o(i._ZN7MPU605015getMotionStatusEv) refers to i2cdev.o(.data) for I2Cdev::readTimeout
    mpu6050.o(i._ZN7MPU605015getOTPBankValidEv) refers to i2cdev.o(i._ZN6I2Cdev7readBitEhhhPht) for I2Cdev::readBit(unsigned char, unsigned char, unsigned char, unsigned char*, unsigned short)
    mpu6050.o(i._ZN7MPU605015getOTPBankValidEv) refers to i2cdev.o(.data) for I2Cdev::readTimeout
    mpu6050.o(i._ZN7MPU605015getSlave4IsDoneEv) refers to i2cdev.o(i._ZN6I2Cdev7readBitEhhhPht) for I2Cdev::readBit(unsigned char, unsigned char, unsigned char, unsigned char*, unsigned short)
    mpu6050.o(i._ZN7MPU605015getSlave4IsDoneEv) refers to i2cdev.o(.data) for I2Cdev::readTimeout
    mpu6050.o(i._ZN7MPU605015getSlaveAddressEh) refers to i2cdev.o(i._ZN6I2Cdev8readByteEhhPht) for I2Cdev::readByte(unsigned char, unsigned char, unsigned char*, unsigned short)
    mpu6050.o(i._ZN7MPU605015getSlaveAddressEh) refers to i2cdev.o(.data) for I2Cdev::readTimeout
    mpu6050.o(i._ZN7MPU605015getSlaveEnabledEh) refers to i2cdev.o(i._ZN6I2Cdev7readBitEhhhPht) for I2Cdev::readBit(unsigned char, unsigned char, unsigned char, unsigned char*, unsigned short)
    mpu6050.o(i._ZN7MPU605015getSlaveEnabledEh) refers to i2cdev.o(.data) for I2Cdev::readTimeout
    mpu6050.o(i._ZN7MPU605015getSleepEnabledEv) refers to i2cdev.o(i._ZN6I2Cdev7readBitEhhhPht) for I2Cdev::readBit(unsigned char, unsigned char, unsigned char, unsigned char*, unsigned short)
    mpu6050.o(i._ZN7MPU605015getSleepEnabledEv) refers to i2cdev.o(.data) for I2Cdev::readTimeout
    mpu6050.o(i._ZN7MPU605015getXAccelOffsetEv) refers to i2cdev.o(i._ZN6I2Cdev9readBytesEhhhPht) for I2Cdev::readBytes(unsigned char, unsigned char, unsigned char, unsigned char*, unsigned short)
    mpu6050.o(i._ZN7MPU605015getXAccelOffsetEv) refers to i2cdev.o(.data) for I2Cdev::readTimeout
    mpu6050.o(i._ZN7MPU605015getYAccelOffsetEv) refers to i2cdev.o(i._ZN6I2Cdev9readBytesEhhhPht) for I2Cdev::readBytes(unsigned char, unsigned char, unsigned char, unsigned char*, unsigned short)
    mpu6050.o(i._ZN7MPU605015getYAccelOffsetEv) refers to i2cdev.o(.data) for I2Cdev::readTimeout
    mpu6050.o(i._ZN7MPU605015getZAccelOffsetEv) refers to i2cdev.o(i._ZN6I2Cdev9readBytesEhhhPht) for I2Cdev::readBytes(unsigned char, unsigned char, unsigned char, unsigned char*, unsigned short)
    mpu6050.o(i._ZN7MPU605015getZAccelOffsetEv) refers to i2cdev.o(.data) for I2Cdev::readTimeout
    mpu6050.o(i._ZN7MPU605015readMemoryBlockEPhthh) refers to mpu6050.o(i._ZN7MPU605013setMemoryBankEhbb) for MPU6050::setMemoryBank(unsigned char, bool, bool)
    mpu6050.o(i._ZN7MPU605015readMemoryBlockEPhthh) refers to mpu6050.o(i._ZN7MPU605021setMemoryStartAddressEh) for MPU6050::setMemoryStartAddress(unsigned char)
    mpu6050.o(i._ZN7MPU605015readMemoryBlockEPhthh) refers to i2cdev.o(i._ZN6I2Cdev9readBytesEhhhPht) for I2Cdev::readBytes(unsigned char, unsigned char, unsigned char, unsigned char*, unsigned short)
    mpu6050.o(i._ZN7MPU605015readMemoryBlockEPhthh) refers to i2cdev.o(.data) for I2Cdev::readTimeout
    mpu6050.o(i._ZN7MPU605015setOTPBankValidEb) refers to i2cdev.o(i._ZN6I2Cdev8writeBitEhhhh) for I2Cdev::writeBit(unsigned char, unsigned char, unsigned char, unsigned char)
    mpu6050.o(i._ZN7MPU605015setSlaveAddressEhh) refers to i2cdev.o(i._ZN6I2Cdev9writeByteEhhh) for I2Cdev::writeByte(unsigned char, unsigned char, unsigned char)
    mpu6050.o(i._ZN7MPU605015setSlaveEnabledEhb) refers to i2cdev.o(i._ZN6I2Cdev8writeBitEhhhh) for I2Cdev::writeBit(unsigned char, unsigned char, unsigned char, unsigned char)
    mpu6050.o(i._ZN7MPU605015setSleepEnabledEb) refers to i2cdev.o(i._ZN6I2Cdev8writeBitEhhhh) for I2Cdev::writeBit(unsigned char, unsigned char, unsigned char, unsigned char)
    mpu6050.o(i._ZN7MPU605015setXAccelOffsetEs) refers to i2cdev.o(i._ZN6I2Cdev9writeWordEhht) for I2Cdev::writeWord(unsigned char, unsigned char, unsigned short)
    mpu6050.o(i._ZN7MPU605015setYAccelOffsetEs) refers to i2cdev.o(i._ZN6I2Cdev9writeWordEhht) for I2Cdev::writeWord(unsigned char, unsigned char, unsigned short)
    mpu6050.o(i._ZN7MPU605015setZAccelOffsetEs) refers to i2cdev.o(i._ZN6I2Cdev9writeWordEhht) for I2Cdev::writeWord(unsigned char, unsigned char, unsigned short)
    mpu6050.o(i._ZN7MPU605015writeMemoryByteEh) refers to i2cdev.o(i._ZN6I2Cdev9writeByteEhhh) for I2Cdev::writeByte(unsigned char, unsigned char, unsigned char)
    mpu6050.o(i._ZN7MPU605016getAccelerationXEv) refers to i2cdev.o(i._ZN6I2Cdev9readBytesEhhhPht) for I2Cdev::readBytes(unsigned char, unsigned char, unsigned char, unsigned char*, unsigned short)
    mpu6050.o(i._ZN7MPU605016getAccelerationXEv) refers to i2cdev.o(.data) for I2Cdev::readTimeout
    mpu6050.o(i._ZN7MPU605016getAccelerationYEv) refers to i2cdev.o(i._ZN6I2Cdev9readBytesEhhhPht) for I2Cdev::readBytes(unsigned char, unsigned char, unsigned char, unsigned char*, unsigned short)
    mpu6050.o(i._ZN7MPU605016getAccelerationYEv) refers to i2cdev.o(.data) for I2Cdev::readTimeout
    mpu6050.o(i._ZN7MPU605016getAccelerationZEv) refers to i2cdev.o(i._ZN6I2Cdev9readBytesEhhhPht) for I2Cdev::readBytes(unsigned char, unsigned char, unsigned char, unsigned char*, unsigned short)
    mpu6050.o(i._ZN7MPU605016getAccelerationZEv) refers to i2cdev.o(.data) for I2Cdev::readTimeout
    mpu6050.o(i._ZN7MPU605016getAuxVDDIOLevelEv) refers to i2cdev.o(i._ZN6I2Cdev7readBitEhhhPht) for I2Cdev::readBit(unsigned char, unsigned char, unsigned char, unsigned char*, unsigned short)
    mpu6050.o(i._ZN7MPU605016getAuxVDDIOLevelEv) refers to i2cdev.o(.data) for I2Cdev::readTimeout
    mpu6050.o(i._ZN7MPU605016getDMPInt0StatusEv) refers to i2cdev.o(i._ZN6I2Cdev7readBitEhhhPht) for I2Cdev::readBit(unsigned char, unsigned char, unsigned char, unsigned char*, unsigned short)
    mpu6050.o(i._ZN7MPU605016getDMPInt0StatusEv) refers to i2cdev.o(.data) for I2Cdev::readTimeout
    mpu6050.o(i._ZN7MPU605016getDMPInt1StatusEv) refers to i2cdev.o(i._ZN6I2Cdev7readBitEhhhPht) for I2Cdev::readBit(unsigned char, unsigned char, unsigned char, unsigned char*, unsigned short)
    mpu6050.o(i._ZN7MPU605016getDMPInt1StatusEv) refers to i2cdev.o(.data) for I2Cdev::readTimeout
    mpu6050.o(i._ZN7MPU605016getDMPInt2StatusEv) refers to i2cdev.o(i._ZN6I2Cdev7readBitEhhhPht) for I2Cdev::readBit(unsigned char, unsigned char, unsigned char, unsigned char*, unsigned short)
    mpu6050.o(i._ZN7MPU605016getDMPInt2StatusEv) refers to i2cdev.o(.data) for I2Cdev::readTimeout
    mpu6050.o(i._ZN7MPU605016getDMPInt3StatusEv) refers to i2cdev.o(i._ZN6I2Cdev7readBitEhhhPht) for I2Cdev::readBit(unsigned char, unsigned char, unsigned char, unsigned char*, unsigned short)
    mpu6050.o(i._ZN7MPU605016getDMPInt3StatusEv) refers to i2cdev.o(.data) for I2Cdev::readTimeout
    mpu6050.o(i._ZN7MPU605016getDMPInt4StatusEv) refers to i2cdev.o(i._ZN6I2Cdev7readBitEhhhPht) for I2Cdev::readBit(unsigned char, unsigned char, unsigned char, unsigned char*, unsigned short)
    mpu6050.o(i._ZN7MPU605016getDMPInt4StatusEv) refers to i2cdev.o(.data) for I2Cdev::readTimeout
    mpu6050.o(i._ZN7MPU605016getDMPInt5StatusEv) refers to i2cdev.o(i._ZN6I2Cdev7readBitEhhhPht) for I2Cdev::readBit(unsigned char, unsigned char, unsigned char, unsigned char*, unsigned short)
    mpu6050.o(i._ZN7MPU605016getDMPInt5StatusEv) refers to i2cdev.o(.data) for I2Cdev::readTimeout
    mpu6050.o(i._ZN7MPU605016getIntDMPEnabledEv) refers to i2cdev.o(i._ZN6I2Cdev7readBitEhhhPht) for I2Cdev::readBit(unsigned char, unsigned char, unsigned char, unsigned char*, unsigned short)
    mpu6050.o(i._ZN7MPU605016getIntDMPEnabledEv) refers to i2cdev.o(.data) for I2Cdev::readTimeout
    mpu6050.o(i._ZN7MPU605016getInterruptModeEv) refers to i2cdev.o(i._ZN6I2Cdev7readBitEhhhPht) for I2Cdev::readBit(unsigned char, unsigned char, unsigned char, unsigned char*, unsigned short)
    mpu6050.o(i._ZN7MPU605016getInterruptModeEv) refers to i2cdev.o(.data) for I2Cdev::readTimeout
    mpu6050.o(i._ZN7MPU605016getSlave4AddressEv) refers to i2cdev.o(i._ZN6I2Cdev8readByteEhhPht) for I2Cdev::readByte(unsigned char, unsigned char, unsigned char*, unsigned short)
    mpu6050.o(i._ZN7MPU605016getSlave4AddressEv) refers to i2cdev.o(.data) for I2Cdev::readTimeout
    mpu6050.o(i._ZN7MPU605016getSlave4EnabledEv) refers to i2cdev.o(i._ZN6I2Cdev7readBitEhhhPht) for I2Cdev::readBit(unsigned char, unsigned char, unsigned char, unsigned char*, unsigned short)
    mpu6050.o(i._ZN7MPU605016getSlave4EnabledEv) refers to i2cdev.o(.data) for I2Cdev::readTimeout
    mpu6050.o(i._ZN7MPU605016getSlaveRegisterEh) refers to i2cdev.o(i._ZN6I2Cdev8readByteEhhPht) for I2Cdev::readByte(unsigned char, unsigned char, unsigned char*, unsigned short)
    mpu6050.o(i._ZN7MPU605016getSlaveRegisterEh) refers to i2cdev.o(.data) for I2Cdev::readTimeout
    mpu6050.o(i._ZN7MPU605016getWakeFrequencyEv) refers to i2cdev.o(i._ZN6I2Cdev8readBitsEhhhhPht) for I2Cdev::readBits(unsigned char, unsigned char, unsigned char, unsigned char, unsigned char*, unsigned short)
    mpu6050.o(i._ZN7MPU605016getWakeFrequencyEv) refers to i2cdev.o(.data) for I2Cdev::readTimeout
    mpu6050.o(i._ZN7MPU605016getXGyroOffsetTCEv) refers to i2cdev.o(i._ZN6I2Cdev8readBitsEhhhhPht) for I2Cdev::readBits(unsigned char, unsigned char, unsigned char, unsigned char, unsigned char*, unsigned short)
    mpu6050.o(i._ZN7MPU605016getXGyroOffsetTCEv) refers to i2cdev.o(.data) for I2Cdev::readTimeout
    mpu6050.o(i._ZN7MPU605016getYGyroOffsetTCEv) refers to i2cdev.o(i._ZN6I2Cdev8readBitsEhhhhPht) for I2Cdev::readBits(unsigned char, unsigned char, unsigned char, unsigned char, unsigned char*, unsigned short)
    mpu6050.o(i._ZN7MPU605016getYGyroOffsetTCEv) refers to i2cdev.o(.data) for I2Cdev::readTimeout
    mpu6050.o(i._ZN7MPU605016getZGyroOffsetTCEv) refers to i2cdev.o(i._ZN6I2Cdev8readBitsEhhhhPht) for I2Cdev::readBits(unsigned char, unsigned char, unsigned char, unsigned char, unsigned char*, unsigned short)
    mpu6050.o(i._ZN7MPU605016getZGyroOffsetTCEv) refers to i2cdev.o(.data) for I2Cdev::readTimeout
    mpu6050.o(i._ZN7MPU605016setAuxVDDIOLevelEh) refers to i2cdev.o(i._ZN6I2Cdev8writeBitEhhhh) for I2Cdev::writeBit(unsigned char, unsigned char, unsigned char, unsigned char)
    mpu6050.o(i._ZN7MPU605016setIntDMPEnabledEb) refers to i2cdev.o(i._ZN6I2Cdev8writeBitEhhhh) for I2Cdev::writeBit(unsigned char, unsigned char, unsigned char, unsigned char)
    mpu6050.o(i._ZN7MPU605016setInterruptModeEb) refers to i2cdev.o(i._ZN6I2Cdev8writeBitEhhhh) for I2Cdev::writeBit(unsigned char, unsigned char, unsigned char, unsigned char)
    mpu6050.o(i._ZN7MPU605016setSlave4AddressEh) refers to i2cdev.o(i._ZN6I2Cdev9writeByteEhhh) for I2Cdev::writeByte(unsigned char, unsigned char, unsigned char)
    mpu6050.o(i._ZN7MPU605016setSlave4EnabledEb) refers to i2cdev.o(i._ZN6I2Cdev8writeBitEhhhh) for I2Cdev::writeBit(unsigned char, unsigned char, unsigned char, unsigned char)
    mpu6050.o(i._ZN7MPU605016setSlaveRegisterEhh) refers to i2cdev.o(i._ZN6I2Cdev9writeByteEhhh) for I2Cdev::writeByte(unsigned char, unsigned char, unsigned char)
    mpu6050.o(i._ZN7MPU605016setWakeFrequencyEh) refers to i2cdev.o(i._ZN6I2Cdev9writeBitsEhhhhh) for I2Cdev::writeBits(unsigned char, unsigned char, unsigned char, unsigned char, unsigned char)
    mpu6050.o(i._ZN7MPU605016setXGyroOffsetTCEa) refers to i2cdev.o(i._ZN6I2Cdev9writeBitsEhhhhh) for I2Cdev::writeBits(unsigned char, unsigned char, unsigned char, unsigned char, unsigned char)
    mpu6050.o(i._ZN7MPU605016setYGyroOffsetTCEa) refers to i2cdev.o(i._ZN6I2Cdev9writeBitsEhhhhh) for I2Cdev::writeBits(unsigned char, unsigned char, unsigned char, unsigned char, unsigned char)
    mpu6050.o(i._ZN7MPU605016setZGyroOffsetTCEa) refers to i2cdev.o(i._ZN6I2Cdev9writeBitsEhhhhh) for I2Cdev::writeBits(unsigned char, unsigned char, unsigned char, unsigned char, unsigned char)
    mpu6050.o(i._ZN7MPU605016switchSPIEnabledEb) refers to i2cdev.o(i._ZN6I2Cdev8writeBitEhhhh) for I2Cdev::writeBit(unsigned char, unsigned char, unsigned char, unsigned char)
    mpu6050.o(i._ZN7MPU605016writeMemoryBlockEPKhthhbb) refers to mpu6050.o(i._ZN7MPU605013setMemoryBankEhbb) for MPU6050::setMemoryBank(unsigned char, bool, bool)
    mpu6050.o(i._ZN7MPU605016writeMemoryBlockEPKhthhbb) refers to mpu6050.o(i._ZN7MPU605021setMemoryStartAddressEh) for MPU6050::setMemoryStartAddress(unsigned char)
    mpu6050.o(i._ZN7MPU605016writeMemoryBlockEPKhthhbb) refers to h1_alloc.o(.text) for malloc
    mpu6050.o(i._ZN7MPU605016writeMemoryBlockEPKhthhbb) refers to i2cdev.o(i._ZN6I2Cdev10writeBytesEhhhPh) for I2Cdev::writeBytes(unsigned char, unsigned char, unsigned char, unsigned char*)
    mpu6050.o(i._ZN7MPU605016writeMemoryBlockEPKhthhbb) refers to i2cdev.o(i._ZN6I2Cdev9readBytesEhhhPht) for I2Cdev::readBytes(unsigned char, unsigned char, unsigned char, unsigned char*, unsigned short)
    mpu6050.o(i._ZN7MPU605016writeMemoryBlockEPKhthhbb) refers to memcmp.o(.text) for memcmp
    mpu6050.o(i._ZN7MPU605016writeMemoryBlockEPKhthhbb) refers to h1_free.o(.text) for free
    mpu6050.o(i._ZN7MPU605016writeMemoryBlockEPKhthhbb) refers to i2cdev.o(.data) for I2Cdev::readTimeout
    mpu6050.o(i._ZN7MPU605017getAccelXSelfTestEv) refers to i2cdev.o(i._ZN6I2Cdev7readBitEhhhPht) for I2Cdev::readBit(unsigned char, unsigned char, unsigned char, unsigned char*, unsigned short)
    mpu6050.o(i._ZN7MPU605017getAccelXSelfTestEv) refers to i2cdev.o(.data) for I2Cdev::readTimeout
    mpu6050.o(i._ZN7MPU605017getAccelYSelfTestEv) refers to i2cdev.o(i._ZN6I2Cdev7readBitEhhhPht) for I2Cdev::readBit(unsigned char, unsigned char, unsigned char, unsigned char*, unsigned short)
    mpu6050.o(i._ZN7MPU605017getAccelYSelfTestEv) refers to i2cdev.o(.data) for I2Cdev::readTimeout
    mpu6050.o(i._ZN7MPU605017getAccelZSelfTestEv) refers to i2cdev.o(i._ZN6I2Cdev7readBitEhhhPht) for I2Cdev::readBit(unsigned char, unsigned char, unsigned char, unsigned char*, unsigned short)
    mpu6050.o(i._ZN7MPU605017getAccelZSelfTestEv) refers to i2cdev.o(.data) for I2Cdev::readTimeout
    mpu6050.o(i._ZN7MPU605017getInterruptDriveEv) refers to i2cdev.o(i._ZN6I2Cdev7readBitEhhhPht) for I2Cdev::readBit(unsigned char, unsigned char, unsigned char, unsigned char*, unsigned short)
    mpu6050.o(i._ZN7MPU605017getInterruptDriveEv) refers to i2cdev.o(.data) for I2Cdev::readTimeout
    mpu6050.o(i._ZN7MPU605017getInterruptLatchEv) refers to i2cdev.o(i._ZN6I2Cdev7readBitEhhhPht) for I2Cdev::readBit(unsigned char, unsigned char, unsigned char, unsigned char*, unsigned short)
    mpu6050.o(i._ZN7MPU605017getInterruptLatchEv) refers to i2cdev.o(.data) for I2Cdev::readTimeout
    mpu6050.o(i._ZN7MPU605017getSlave4RegisterEv) refers to i2cdev.o(i._ZN6I2Cdev8readByteEhhPht) for I2Cdev::readByte(unsigned char, unsigned char, unsigned char*, unsigned short)
    mpu6050.o(i._ZN7MPU605017getSlave4RegisterEv) refers to i2cdev.o(.data) for I2Cdev::readTimeout
    mpu6050.o(i._ZN7MPU605017getSlaveWriteModeEh) refers to i2cdev.o(i._ZN6I2Cdev7readBitEhhhPht) for I2Cdev::readBit(unsigned char, unsigned char, unsigned char, unsigned char*, unsigned short)
    mpu6050.o(i._ZN7MPU605017getSlaveWriteModeEh) refers to i2cdev.o(.data) for I2Cdev::readTimeout
    mpu6050.o(i._ZN7MPU605017setAccelXSelfTestEb) refers to i2cdev.o(i._ZN6I2Cdev8writeBitEhhhh) for I2Cdev::writeBit(unsigned char, unsigned char, unsigned char, unsigned char)
    mpu6050.o(i._ZN7MPU605017setAccelYSelfTestEb) refers to i2cdev.o(i._ZN6I2Cdev8writeBitEhhhh) for I2Cdev::writeBit(unsigned char, unsigned char, unsigned char, unsigned char)
    mpu6050.o(i._ZN7MPU605017setAccelZSelfTestEb) refers to i2cdev.o(i._ZN6I2Cdev8writeBitEhhhh) for I2Cdev::writeBit(unsigned char, unsigned char, unsigned char, unsigned char)
    mpu6050.o(i._ZN7MPU605017setInterruptDriveEb) refers to i2cdev.o(i._ZN6I2Cdev8writeBitEhhhh) for I2Cdev::writeBit(unsigned char, unsigned char, unsigned char, unsigned char)
    mpu6050.o(i._ZN7MPU605017setInterruptLatchEb) refers to i2cdev.o(i._ZN6I2Cdev8writeBitEhhhh) for I2Cdev::writeBit(unsigned char, unsigned char, unsigned char, unsigned char)
    mpu6050.o(i._ZN7MPU605017setSlave4RegisterEh) refers to i2cdev.o(i._ZN6I2Cdev9writeByteEhhh) for I2Cdev::writeByte(unsigned char, unsigned char, unsigned char)
    mpu6050.o(i._ZN7MPU605017setSlaveWriteModeEhb) refers to i2cdev.o(i._ZN6I2Cdev8writeBitEhhhh) for I2Cdev::writeBit(unsigned char, unsigned char, unsigned char, unsigned char)
    mpu6050.o(i._ZN7MPU605018getIntMotionStatusEv) refers to i2cdev.o(i._ZN6I2Cdev7readBitEhhhPht) for I2Cdev::readBit(unsigned char, unsigned char, unsigned char, unsigned char*, unsigned short)
    mpu6050.o(i._ZN7MPU605018getIntMotionStatusEv) refers to i2cdev.o(.data) for I2Cdev::readTimeout
    mpu6050.o(i._ZN7MPU605018getLostArbitrationEv) refers to i2cdev.o(i._ZN6I2Cdev7readBitEhhhPht) for I2Cdev::readBit(unsigned char, unsigned char, unsigned char, unsigned char*, unsigned short)
    mpu6050.o(i._ZN7MPU605018getLostArbitrationEv) refers to i2cdev.o(.data) for I2Cdev::readTimeout
    mpu6050.o(i._ZN7MPU605018getSlate4InputByteEv) refers to i2cdev.o(i._ZN6I2Cdev8readByteEhhPht) for I2Cdev::readByte(unsigned char, unsigned char, unsigned char*, unsigned short)
    mpu6050.o(i._ZN7MPU605018getSlate4InputByteEv) refers to i2cdev.o(.data) for I2Cdev::readTimeout
    mpu6050.o(i._ZN7MPU605018getSlave4WriteModeEv) refers to i2cdev.o(i._ZN6I2Cdev7readBitEhhhPht) for I2Cdev::readBit(unsigned char, unsigned char, unsigned char, unsigned char*, unsigned short)
    mpu6050.o(i._ZN7MPU605018getSlave4WriteModeEv) refers to i2cdev.o(.data) for I2Cdev::readTimeout
    mpu6050.o(i._ZN7MPU605018getSlaveDataLengthEh) refers to i2cdev.o(i._ZN6I2Cdev8readBitsEhhhhPht) for I2Cdev::readBits(unsigned char, unsigned char, unsigned char, unsigned char, unsigned char*, unsigned short)
    mpu6050.o(i._ZN7MPU605018getSlaveDataLengthEh) refers to i2cdev.o(.data) for I2Cdev::readTimeout
    mpu6050.o(i._ZN7MPU605018getTempFIFOEnabledEv) refers to i2cdev.o(i._ZN6I2Cdev7readBitEhhhPht) for I2Cdev::readBit(unsigned char, unsigned char, unsigned char, unsigned char*, unsigned short)
    mpu6050.o(i._ZN7MPU605018getTempFIFOEnabledEv) refers to i2cdev.o(.data) for I2Cdev::readTimeout
    mpu6050.o(i._ZN7MPU605018resetGyroscopePathEv) refers to i2cdev.o(i._ZN6I2Cdev8writeBitEhhhh) for I2Cdev::writeBit(unsigned char, unsigned char, unsigned char, unsigned char)
    mpu6050.o(i._ZN7MPU605018setSlave4WriteModeEb) refers to i2cdev.o(i._ZN6I2Cdev8writeBitEhhhh) for I2Cdev::writeBit(unsigned char, unsigned char, unsigned char, unsigned char)
    mpu6050.o(i._ZN7MPU605018setSlaveDataLengthEhh) refers to i2cdev.o(i._ZN6I2Cdev9writeBitsEhhhhh) for I2Cdev::writeBits(unsigned char, unsigned char, unsigned char, unsigned char, unsigned char)
    mpu6050.o(i._ZN7MPU605018setSlaveOutputByteEhh) refers to i2cdev.o(i._ZN6I2Cdev9writeByteEhhh) for I2Cdev::writeByte(unsigned char, unsigned char, unsigned char)
    mpu6050.o(i._ZN7MPU605018setTempFIFOEnabledEb) refers to i2cdev.o(i._ZN6I2Cdev8writeBitEhhhh) for I2Cdev::writeBit(unsigned char, unsigned char, unsigned char, unsigned char)
    mpu6050.o(i._ZN7MPU605019getAccelFIFOEnabledEv) refers to i2cdev.o(i._ZN6I2Cdev7readBitEhhhPht) for I2Cdev::readBit(unsigned char, unsigned char, unsigned char, unsigned char*, unsigned short)
    mpu6050.o(i._ZN7MPU605019getAccelFIFOEnabledEv) refers to i2cdev.o(.data) for I2Cdev::readTimeout
    mpu6050.o(i._ZN7MPU605019getI2CBypassEnabledEv) refers to i2cdev.o(i._ZN6I2Cdev7readBitEhhhPht) for I2Cdev::readBit(unsigned char, unsigned char, unsigned char, unsigned char*, unsigned short)
    mpu6050.o(i._ZN7MPU605019getI2CBypassEnabledEv) refers to i2cdev.o(.data) for I2Cdev::readTimeout
    mpu6050.o(i._ZN7MPU605019getIntMotionEnabledEv) refers to i2cdev.o(i._ZN6I2Cdev7readBitEhhhPht) for I2Cdev::readBit(unsigned char, unsigned char, unsigned char, unsigned char*, unsigned short)
    mpu6050.o(i._ZN7MPU605019getIntMotionEnabledEv) refers to i2cdev.o(.data) for I2Cdev::readTimeout
    mpu6050.o(i._ZN7MPU605019getMasterClockSpeedEv) refers to i2cdev.o(i._ZN6I2Cdev8readBitsEhhhhPht) for I2Cdev::readBits(unsigned char, unsigned char, unsigned char, unsigned char, unsigned char*, unsigned short)
    mpu6050.o(i._ZN7MPU605019getMasterClockSpeedEv) refers to i2cdev.o(.data) for I2Cdev::readTimeout
    mpu6050.o(i._ZN7MPU605019getWakeCycleEnabledEv) refers to i2cdev.o(i._ZN6I2Cdev7readBitEhhhPht) for I2Cdev::readBit(unsigned char, unsigned char, unsigned char, unsigned char*, unsigned short)
    mpu6050.o(i._ZN7MPU605019getWakeCycleEnabledEv) refers to i2cdev.o(.data) for I2Cdev::readTimeout
    mpu6050.o(i._ZN7MPU605019getXGyroFIFOEnabledEv) refers to i2cdev.o(i._ZN6I2Cdev7readBitEhhhPht) for I2Cdev::readBit(unsigned char, unsigned char, unsigned char, unsigned char*, unsigned short)
    mpu6050.o(i._ZN7MPU605019getXGyroFIFOEnabledEv) refers to i2cdev.o(.data) for I2Cdev::readTimeout
    mpu6050.o(i._ZN7MPU605019getYGyroFIFOEnabledEv) refers to i2cdev.o(i._ZN6I2Cdev7readBitEhhhPht) for I2Cdev::readBit(unsigned char, unsigned char, unsigned char, unsigned char*, unsigned short)
    mpu6050.o(i._ZN7MPU605019getYGyroFIFOEnabledEv) refers to i2cdev.o(.data) for I2Cdev::readTimeout
    mpu6050.o(i._ZN7MPU605019getZGyroFIFOEnabledEv) refers to i2cdev.o(i._ZN6I2Cdev7readBitEhhhPht) for I2Cdev::readBit(unsigned char, unsigned char, unsigned char, unsigned char*, unsigned short)
    mpu6050.o(i._ZN7MPU605019getZGyroFIFOEnabledEv) refers to i2cdev.o(.data) for I2Cdev::readTimeout
    mpu6050.o(i._ZN7MPU605019setAccelFIFOEnabledEb) refers to i2cdev.o(i._ZN6I2Cdev8writeBitEhhhh) for I2Cdev::writeBit(unsigned char, unsigned char, unsigned char, unsigned char)
    mpu6050.o(i._ZN7MPU605019setI2CBypassEnabledEb) refers to i2cdev.o(i._ZN6I2Cdev8writeBitEhhhh) for I2Cdev::writeBit(unsigned char, unsigned char, unsigned char, unsigned char)
    mpu6050.o(i._ZN7MPU605019setIntMotionEnabledEb) refers to i2cdev.o(i._ZN6I2Cdev8writeBitEhhhh) for I2Cdev::writeBit(unsigned char, unsigned char, unsigned char, unsigned char)
    mpu6050.o(i._ZN7MPU605019setMasterClockSpeedEh) refers to i2cdev.o(i._ZN6I2Cdev9writeBitsEhhhhh) for I2Cdev::writeBits(unsigned char, unsigned char, unsigned char, unsigned char, unsigned char)
    mpu6050.o(i._ZN7MPU605019setSlave4OutputByteEh) refers to i2cdev.o(i._ZN6I2Cdev9writeByteEhhh) for I2Cdev::writeByte(unsigned char, unsigned char, unsigned char)
    mpu6050.o(i._ZN7MPU605019setWakeCycleEnabledEb) refers to i2cdev.o(i._ZN6I2Cdev8writeBitEhhhh) for I2Cdev::writeBit(unsigned char, unsigned char, unsigned char, unsigned char)
    mpu6050.o(i._ZN7MPU605019setXGyroFIFOEnabledEb) refers to i2cdev.o(i._ZN6I2Cdev8writeBitEhhhh) for I2Cdev::writeBit(unsigned char, unsigned char, unsigned char, unsigned char)
    mpu6050.o(i._ZN7MPU605019setYGyroFIFOEnabledEb) refers to i2cdev.o(i._ZN6I2Cdev8writeBitEhhhh) for I2Cdev::writeBit(unsigned char, unsigned char, unsigned char, unsigned char)
    mpu6050.o(i._ZN7MPU605019setZGyroFIFOEnabledEb) refers to i2cdev.o(i._ZN6I2Cdev8writeBitEhhhh) for I2Cdev::writeBit(unsigned char, unsigned char, unsigned char, unsigned char)
    mpu6050.o(i._ZN7MPU605020getExternalFrameSyncEv) refers to i2cdev.o(i._ZN6I2Cdev8readBitsEhhhhPht) for I2Cdev::readBits(unsigned char, unsigned char, unsigned char, unsigned char, unsigned char*, unsigned short)
    mpu6050.o(i._ZN7MPU605020getExternalFrameSyncEv) refers to i2cdev.o(.data) for I2Cdev::readTimeout
    mpu6050.o(i._ZN7MPU605020getIntFreefallStatusEv) refers to i2cdev.o(i._ZN6I2Cdev7readBitEhhhPht) for I2Cdev::readBit(unsigned char, unsigned char, unsigned char, unsigned char*, unsigned short)
    mpu6050.o(i._ZN7MPU605020getIntFreefallStatusEv) refers to i2cdev.o(.data) for I2Cdev::readTimeout
    mpu6050.o(i._ZN7MPU605020getIntPLLReadyStatusEv) refers to i2cdev.o(i._ZN6I2Cdev7readBitEhhhPht) for I2Cdev::readBit(unsigned char, unsigned char, unsigned char, unsigned char*, unsigned short)
    mpu6050.o(i._ZN7MPU605020getIntPLLReadyStatusEv) refers to i2cdev.o(.data) for I2Cdev::readTimeout
    mpu6050.o(i._ZN7MPU605020getPassthroughStatusEv) refers to i2cdev.o(i._ZN6I2Cdev7readBitEhhhPht) for I2Cdev::readBit(unsigned char, unsigned char, unsigned char, unsigned char*, unsigned short)
    mpu6050.o(i._ZN7MPU605020getPassthroughStatusEv) refers to i2cdev.o(.data) for I2Cdev::readTimeout
    mpu6050.o(i._ZN7MPU605020getSlave0FIFOEnabledEv) refers to i2cdev.o(i._ZN6I2Cdev7readBitEhhhPht) for I2Cdev::readBit(unsigned char, unsigned char, unsigned char, unsigned char*, unsigned short)
    mpu6050.o(i._ZN7MPU605020getSlave0FIFOEnabledEv) refers to i2cdev.o(.data) for I2Cdev::readTimeout
    mpu6050.o(i._ZN7MPU605020getSlave1FIFOEnabledEv) refers to i2cdev.o(i._ZN6I2Cdev7readBitEhhhPht) for I2Cdev::readBit(unsigned char, unsigned char, unsigned char, unsigned char*, unsigned short)
    mpu6050.o(i._ZN7MPU605020getSlave1FIFOEnabledEv) refers to i2cdev.o(.data) for I2Cdev::readTimeout
    mpu6050.o(i._ZN7MPU605020getSlave2FIFOEnabledEv) refers to i2cdev.o(i._ZN6I2Cdev7readBitEhhhPht) for I2Cdev::readBit(unsigned char, unsigned char, unsigned char, unsigned char*, unsigned short)
    mpu6050.o(i._ZN7MPU605020getSlave2FIFOEnabledEv) refers to i2cdev.o(.data) for I2Cdev::readTimeout
    mpu6050.o(i._ZN7MPU605020getSlave3FIFOEnabledEv) refers to i2cdev.o(i._ZN6I2Cdev7readBitEhhhPht) for I2Cdev::readBit(unsigned char, unsigned char, unsigned char, unsigned char*, unsigned short)
    mpu6050.o(i._ZN7MPU605020getSlave3FIFOEnabledEv) refers to i2cdev.o(.data) for I2Cdev::readTimeout
    mpu6050.o(i._ZN7MPU605020getSlave4MasterDelayEv) refers to i2cdev.o(i._ZN6I2Cdev8readBitsEhhhhPht) for I2Cdev::readBits(unsigned char, unsigned char, unsigned char, unsigned char, unsigned char*, unsigned short)
    mpu6050.o(i._ZN7MPU605020getSlave4MasterDelayEv) refers to i2cdev.o(.data) for I2Cdev::readTimeout
    mpu6050.o(i._ZN7MPU605020getSlaveDelayEnabledEh) refers to i2cdev.o(i._ZN6I2Cdev7readBitEhhhPht) for I2Cdev::readBit(unsigned char, unsigned char, unsigned char, unsigned char*, unsigned short)
    mpu6050.o(i._ZN7MPU605020getSlaveDelayEnabledEh) refers to i2cdev.o(.data) for I2Cdev::readTimeout
    mpu6050.o(i._ZN7MPU605020getSlaveWordByteSwapEh) refers to i2cdev.o(i._ZN6I2Cdev7readBitEhhhPht) for I2Cdev::readBit(unsigned char, unsigned char, unsigned char, unsigned char*, unsigned short)
    mpu6050.o(i._ZN7MPU605020getSlaveWordByteSwapEh) refers to i2cdev.o(.data) for I2Cdev::readTimeout
    mpu6050.o(i._ZN7MPU605020getTempSensorEnabledEv) refers to i2cdev.o(i._ZN6I2Cdev7readBitEhhhPht) for I2Cdev::readBit(unsigned char, unsigned char, unsigned char, unsigned char*, unsigned short)
    mpu6050.o(i._ZN7MPU605020getTempSensorEnabledEv) refers to i2cdev.o(.data) for I2Cdev::readTimeout
    mpu6050.o(i._ZN7MPU605020resetTemperaturePathEv) refers to i2cdev.o(i._ZN6I2Cdev8writeBitEhhhh) for I2Cdev::writeBit(unsigned char, unsigned char, unsigned char, unsigned char)
    mpu6050.o(i._ZN7MPU605020setExternalFrameSyncEh) refers to i2cdev.o(i._ZN6I2Cdev9writeBitsEhhhhh) for I2Cdev::writeBits(unsigned char, unsigned char, unsigned char, unsigned char, unsigned char)
    mpu6050.o(i._ZN7MPU605020setSlave0FIFOEnabledEb) refers to i2cdev.o(i._ZN6I2Cdev8writeBitEhhhh) for I2Cdev::writeBit(unsigned char, unsigned char, unsigned char, unsigned char)
    mpu6050.o(i._ZN7MPU605020setSlave1FIFOEnabledEb) refers to i2cdev.o(i._ZN6I2Cdev8writeBitEhhhh) for I2Cdev::writeBit(unsigned char, unsigned char, unsigned char, unsigned char)
    mpu6050.o(i._ZN7MPU605020setSlave2FIFOEnabledEb) refers to i2cdev.o(i._ZN6I2Cdev8writeBitEhhhh) for I2Cdev::writeBit(unsigned char, unsigned char, unsigned char, unsigned char)
    mpu6050.o(i._ZN7MPU605020setSlave3FIFOEnabledEb) refers to i2cdev.o(i._ZN6I2Cdev8writeBitEhhhh) for I2Cdev::writeBit(unsigned char, unsigned char, unsigned char, unsigned char)
    mpu6050.o(i._ZN7MPU605020setSlave4MasterDelayEh) refers to i2cdev.o(i._ZN6I2Cdev9writeBitsEhhhhh) for I2Cdev::writeBits(unsigned char, unsigned char, unsigned char, unsigned char, unsigned char)
    mpu6050.o(i._ZN7MPU605020setSlaveDelayEnabledEhb) refers to i2cdev.o(i._ZN6I2Cdev8writeBitEhhhh) for I2Cdev::writeBit(unsigned char, unsigned char, unsigned char, unsigned char)
    mpu6050.o(i._ZN7MPU605020setSlaveWordByteSwapEhb) refers to i2cdev.o(i._ZN6I2Cdev8writeBitEhhhh) for I2Cdev::writeBit(unsigned char, unsigned char, unsigned char, unsigned char)
    mpu6050.o(i._ZN7MPU605020setTempSensorEnabledEb) refers to i2cdev.o(i._ZN6I2Cdev8writeBitEhhhh) for I2Cdev::writeBit(unsigned char, unsigned char, unsigned char, unsigned char)
    mpu6050.o(i._ZN7MPU605020writeProgMemoryBlockEPKhthhb) refers to mpu6050.o(i._ZN7MPU605016writeMemoryBlockEPKhthhbb) for MPU6050::writeMemoryBlock(const unsigned char*, unsigned short, unsigned char, unsigned char, bool, bool)
    mpu6050.o(i._ZN7MPU605021getClockOutputEnabledEv) refers to i2cdev.o(i._ZN6I2Cdev7readBitEhhhPht) for I2Cdev::readBit(unsigned char, unsigned char, unsigned char, unsigned char*, unsigned short)
    mpu6050.o(i._ZN7MPU605021getClockOutputEnabledEv) refers to i2cdev.o(.data) for I2Cdev::readTimeout
    mpu6050.o(i._ZN7MPU605021getExternalSensorByteEi) refers to i2cdev.o(i._ZN6I2Cdev8readByteEhhPht) for I2Cdev::readByte(unsigned char, unsigned char, unsigned char*, unsigned short)
    mpu6050.o(i._ZN7MPU605021getExternalSensorByteEi) refers to i2cdev.o(.data) for I2Cdev::readTimeout
    mpu6050.o(i._ZN7MPU605021getExternalSensorWordEi) refers to i2cdev.o(i._ZN6I2Cdev9readBytesEhhhPht) for I2Cdev::readBytes(unsigned char, unsigned char, unsigned char, unsigned char*, unsigned short)
    mpu6050.o(i._ZN7MPU605021getExternalSensorWordEi) refers to i2cdev.o(.data) for I2Cdev::readTimeout
    mpu6050.o(i._ZN7MPU605021getFullScaleGyroRangeEv) refers to i2cdev.o(i._ZN6I2Cdev8readBitsEhhhhPht) for I2Cdev::readBits(unsigned char, unsigned char, unsigned char, unsigned char, unsigned char*, unsigned short)
    mpu6050.o(i._ZN7MPU605021getFullScaleGyroRangeEv) refers to i2cdev.o(.data) for I2Cdev::readTimeout
    mpu6050.o(i._ZN7MPU605021getIntDataReadyStatusEv) refers to i2cdev.o(i._ZN6I2Cdev7readBitEhhhPht) for I2Cdev::readBit(unsigned char, unsigned char, unsigned char, unsigned char*, unsigned short)
    mpu6050.o(i._ZN7MPU605021getIntDataReadyStatusEv) refers to i2cdev.o(.data) for I2Cdev::readTimeout
    mpu6050.o(i._ZN7MPU605021getIntFreefallEnabledEv) refers to i2cdev.o(i._ZN6I2Cdev7readBitEhhhPht) for I2Cdev::readBit(unsigned char, unsigned char, unsigned char, unsigned char*, unsigned short)
    mpu6050.o(i._ZN7MPU605021getIntFreefallEnabledEv) refers to i2cdev.o(.data) for I2Cdev::readTimeout
    mpu6050.o(i._ZN7MPU605021getIntI2CMasterStatusEv) refers to i2cdev.o(i._ZN6I2Cdev7readBitEhhhPht) for I2Cdev::readBit(unsigned char, unsigned char, unsigned char, unsigned char*, unsigned short)
    mpu6050.o(i._ZN7MPU605021getIntI2CMasterStatusEv) refers to i2cdev.o(.data) for I2Cdev::readTimeout
    mpu6050.o(i._ZN7MPU605021getIntPLLReadyEnabledEv) refers to i2cdev.o(i._ZN6I2Cdev7readBitEhhhPht) for I2Cdev::readBit(unsigned char, unsigned char, unsigned char, unsigned char*, unsigned short)
    mpu6050.o(i._ZN7MPU605021getIntPLLReadyEnabledEv) refers to i2cdev.o(.data) for I2Cdev::readTimeout
    mpu6050.o(i._ZN7MPU605021getMultiMasterEnabledEv) refers to i2cdev.o(i._ZN6I2Cdev7readBitEhhhPht) for I2Cdev::readBit(unsigned char, unsigned char, unsigned char, unsigned char*, unsigned short)
    mpu6050.o(i._ZN7MPU605021getMultiMasterEnabledEv) refers to i2cdev.o(.data) for I2Cdev::readTimeout
    mpu6050.o(i._ZN7MPU605021getXNegMotionDetectedEv) refers to i2cdev.o(i._ZN6I2Cdev7readBitEhhhPht) for I2Cdev::readBit(unsigned char, unsigned char, unsigned char, unsigned char*, unsigned short)
    mpu6050.o(i._ZN7MPU605021getXNegMotionDetectedEv) refers to i2cdev.o(.data) for I2Cdev::readTimeout
    mpu6050.o(i._ZN7MPU605021getXPosMotionDetectedEv) refers to i2cdev.o(i._ZN6I2Cdev7readBitEhhhPht) for I2Cdev::readBit(unsigned char, unsigned char, unsigned char, unsigned char*, unsigned short)
    mpu6050.o(i._ZN7MPU605021getXPosMotionDetectedEv) refers to i2cdev.o(.data) for I2Cdev::readTimeout
    mpu6050.o(i._ZN7MPU605021getYNegMotionDetectedEv) refers to i2cdev.o(i._ZN6I2Cdev7readBitEhhhPht) for I2Cdev::readBit(unsigned char, unsigned char, unsigned char, unsigned char*, unsigned short)
    mpu6050.o(i._ZN7MPU605021getYNegMotionDetectedEv) refers to i2cdev.o(.data) for I2Cdev::readTimeout
    mpu6050.o(i._ZN7MPU605021getYPosMotionDetectedEv) refers to i2cdev.o(i._ZN6I2Cdev7readBitEhhhPht) for I2Cdev::readBit(unsigned char, unsigned char, unsigned char, unsigned char*, unsigned short)
    mpu6050.o(i._ZN7MPU605021getYPosMotionDetectedEv) refers to i2cdev.o(.data) for I2Cdev::readTimeout
    mpu6050.o(i._ZN7MPU605021getZNegMotionDetectedEv) refers to i2cdev.o(i._ZN6I2Cdev7readBitEhhhPht) for I2Cdev::readBit(unsigned char, unsigned char, unsigned char, unsigned char*, unsigned short)
    mpu6050.o(i._ZN7MPU605021getZNegMotionDetectedEv) refers to i2cdev.o(.data) for I2Cdev::readTimeout
    mpu6050.o(i._ZN7MPU605021getZPosMotionDetectedEv) refers to i2cdev.o(i._ZN6I2Cdev7readBitEhhhPht) for I2Cdev::readBit(unsigned char, unsigned char, unsigned char, unsigned char*, unsigned short)
    mpu6050.o(i._ZN7MPU605021getZPosMotionDetectedEv) refers to i2cdev.o(.data) for I2Cdev::readTimeout
    mpu6050.o(i._ZN7MPU605021getZeroMotionDetectedEv) refers to i2cdev.o(i._ZN6I2Cdev7readBitEhhhPht) for I2Cdev::readBit(unsigned char, unsigned char, unsigned char, unsigned char*, unsigned short)
    mpu6050.o(i._ZN7MPU605021getZeroMotionDetectedEv) refers to i2cdev.o(.data) for I2Cdev::readTimeout
    mpu6050.o(i._ZN7MPU605021setClockOutputEnabledEb) refers to i2cdev.o(i._ZN6I2Cdev8writeBitEhhhh) for I2Cdev::writeBit(unsigned char, unsigned char, unsigned char, unsigned char)
    mpu6050.o(i._ZN7MPU605021setFullScaleGyroRangeEh) refers to i2cdev.o(i._ZN6I2Cdev9writeBitsEhhhhh) for I2Cdev::writeBits(unsigned char, unsigned char, unsigned char, unsigned char, unsigned char)
    mpu6050.o(i._ZN7MPU605021setIntFreefallEnabledEb) refers to i2cdev.o(i._ZN6I2Cdev8writeBitEhhhh) for I2Cdev::writeBit(unsigned char, unsigned char, unsigned char, unsigned char)
    mpu6050.o(i._ZN7MPU605021setIntPLLReadyEnabledEb) refers to i2cdev.o(i._ZN6I2Cdev8writeBitEhhhh) for I2Cdev::writeBit(unsigned char, unsigned char, unsigned char, unsigned char)
    mpu6050.o(i._ZN7MPU605021setMemoryStartAddressEh) refers to i2cdev.o(i._ZN6I2Cdev9writeByteEhhh) for I2Cdev::writeByte(unsigned char, unsigned char, unsigned char)
    mpu6050.o(i._ZN7MPU605021setMultiMasterEnabledEb) refers to i2cdev.o(i._ZN6I2Cdev8writeBitEhhhh) for I2Cdev::writeBit(unsigned char, unsigned char, unsigned char, unsigned char)
    mpu6050.o(i._ZN7MPU605022getExternalSensorDWordEi) refers to i2cdev.o(i._ZN6I2Cdev9readBytesEhhhPht) for I2Cdev::readBytes(unsigned char, unsigned char, unsigned char, unsigned char*, unsigned short)
    mpu6050.o(i._ZN7MPU605022getExternalSensorDWordEi) refers to i2cdev.o(.data) for I2Cdev::readTimeout
    mpu6050.o(i._ZN7MPU605022getFSyncInterruptLevelEv) refers to i2cdev.o(i._ZN6I2Cdev7readBitEhhhPht) for I2Cdev::readBit(unsigned char, unsigned char, unsigned char, unsigned char*, unsigned short)
    mpu6050.o(i._ZN7MPU605022getFSyncInterruptLevelEv) refers to i2cdev.o(.data) for I2Cdev::readTimeout
    mpu6050.o(i._ZN7MPU605022getFullScaleAccelRangeEv) refers to i2cdev.o(i._ZN6I2Cdev8readBitsEhhhhPht) for I2Cdev::readBits(unsigned char, unsigned char, unsigned char, unsigned char, unsigned char*, unsigned short)
    mpu6050.o(i._ZN7MPU605022getFullScaleAccelRangeEv) refers to i2cdev.o(.data) for I2Cdev::readTimeout
    mpu6050.o(i._ZN7MPU605022getIntDataReadyEnabledEv) refers to i2cdev.o(i._ZN6I2Cdev7readBitEhhhPht) for I2Cdev::readBit(unsigned char, unsigned char, unsigned char, unsigned char*, unsigned short)
    mpu6050.o(i._ZN7MPU605022getIntDataReadyEnabledEv) refers to i2cdev.o(.data) for I2Cdev::readTimeout
    mpu6050.o(i._ZN7MPU605022getIntI2CMasterEnabledEv) refers to i2cdev.o(i._ZN6I2Cdev7readBitEhhhPht) for I2Cdev::readBit(unsigned char, unsigned char, unsigned char, unsigned char*, unsigned short)
    mpu6050.o(i._ZN7MPU605022getIntI2CMasterEnabledEv) refers to i2cdev.o(.data) for I2Cdev::readTimeout
    mpu6050.o(i._ZN7MPU605022getIntZeroMotionStatusEv) refers to i2cdev.o(i._ZN6I2Cdev7readBitEhhhPht) for I2Cdev::readBit(unsigned char, unsigned char, unsigned char, unsigned char*, unsigned short)
    mpu6050.o(i._ZN7MPU605022getIntZeroMotionStatusEv) refers to i2cdev.o(.data) for I2Cdev::readTimeout
    mpu6050.o(i._ZN7MPU605022getInterruptLatchClearEv) refers to i2cdev.o(i._ZN6I2Cdev7readBitEhhhPht) for I2Cdev::readBit(unsigned char, unsigned char, unsigned char, unsigned char*, unsigned short)
    mpu6050.o(i._ZN7MPU605022getInterruptLatchClearEv) refers to i2cdev.o(.data) for I2Cdev::readTimeout
    mpu6050.o(i._ZN7MPU605022getStandbyXGyroEnabledEv) refers to i2cdev.o(i._ZN6I2Cdev7readBitEhhhPht) for I2Cdev::readBit(unsigned char, unsigned char, unsigned char, unsigned char*, unsigned short)
    mpu6050.o(i._ZN7MPU605022getStandbyXGyroEnabledEv) refers to i2cdev.o(.data) for I2Cdev::readTimeout
    mpu6050.o(i._ZN7MPU605022getStandbyYGyroEnabledEv) refers to i2cdev.o(i._ZN6I2Cdev7readBitEhhhPht) for I2Cdev::readBit(unsigned char, unsigned char, unsigned char, unsigned char*, unsigned short)
    mpu6050.o(i._ZN7MPU605022getStandbyYGyroEnabledEv) refers to i2cdev.o(.data) for I2Cdev::readTimeout
    mpu6050.o(i._ZN7MPU605022getStandbyZGyroEnabledEv) refers to i2cdev.o(i._ZN6I2Cdev7readBitEhhhPht) for I2Cdev::readBit(unsigned char, unsigned char, unsigned char, unsigned char*, unsigned short)
    mpu6050.o(i._ZN7MPU605022getStandbyZGyroEnabledEv) refers to i2cdev.o(.data) for I2Cdev::readTimeout
    mpu6050.o(i._ZN7MPU605022resetAccelerometerPathEv) refers to i2cdev.o(i._ZN6I2Cdev8writeBitEhhhh) for I2Cdev::writeBit(unsigned char, unsigned char, unsigned char, unsigned char)
    mpu6050.o(i._ZN7MPU605022setFSyncInterruptLevelEb) refers to i2cdev.o(i._ZN6I2Cdev8writeBitEhhhh) for I2Cdev::writeBit(unsigned char, unsigned char, unsigned char, unsigned char)
    mpu6050.o(i._ZN7MPU605022setFullScaleAccelRangeEh) refers to i2cdev.o(i._ZN6I2Cdev9writeBitsEhhhhh) for I2Cdev::writeBits(unsigned char, unsigned char, unsigned char, unsigned char, unsigned char)
    mpu6050.o(i._ZN7MPU605022setIntDataReadyEnabledEb) refers to i2cdev.o(i._ZN6I2Cdev8writeBitEhhhh) for I2Cdev::writeBit(unsigned char, unsigned char, unsigned char, unsigned char)
    mpu6050.o(i._ZN7MPU605022setIntI2CMasterEnabledEb) refers to i2cdev.o(i._ZN6I2Cdev8writeBitEhhhh) for I2Cdev::writeBit(unsigned char, unsigned char, unsigned char, unsigned char)
    mpu6050.o(i._ZN7MPU605022setInterruptLatchClearEb) refers to i2cdev.o(i._ZN6I2Cdev8writeBitEhhhh) for I2Cdev::writeBit(unsigned char, unsigned char, unsigned char, unsigned char)
    mpu6050.o(i._ZN7MPU605022setStandbyXGyroEnabledEb) refers to i2cdev.o(i._ZN6I2Cdev8writeBitEhhhh) for I2Cdev::writeBit(unsigned char, unsigned char, unsigned char, unsigned char)
    mpu6050.o(i._ZN7MPU605022setStandbyYGyroEnabledEb) refers to i2cdev.o(i._ZN6I2Cdev8writeBitEhhhh) for I2Cdev::writeBit(unsigned char, unsigned char, unsigned char, unsigned char)
    mpu6050.o(i._ZN7MPU605022setStandbyZGyroEnabledEb) refers to i2cdev.o(i._ZN6I2Cdev8writeBitEhhhh) for I2Cdev::writeBit(unsigned char, unsigned char, unsigned char, unsigned char)
    mpu6050.o(i._ZN7MPU605023getI2CMasterModeEnabledEv) refers to i2cdev.o(i._ZN6I2Cdev7readBitEhhhPht) for I2Cdev::readBit(unsigned char, unsigned char, unsigned char, unsigned char*, unsigned short)
    mpu6050.o(i._ZN7MPU605023getI2CMasterModeEnabledEv) refers to i2cdev.o(.data) for I2Cdev::readTimeout
    mpu6050.o(i._ZN7MPU605023getIntZeroMotionEnabledEv) refers to i2cdev.o(i._ZN6I2Cdev7readBitEhhhPht) for I2Cdev::readBit(unsigned char, unsigned char, unsigned char, unsigned char*, unsigned short)
    mpu6050.o(i._ZN7MPU605023getIntZeroMotionEnabledEv) refers to i2cdev.o(.data) for I2Cdev::readTimeout
    mpu6050.o(i._ZN7MPU605023getSlaveWordGroupOffsetEh) refers to i2cdev.o(i._ZN6I2Cdev7readBitEhhhPht) for I2Cdev::readBit(unsigned char, unsigned char, unsigned char, unsigned char*, unsigned short)
    mpu6050.o(i._ZN7MPU605023getSlaveWordGroupOffsetEh) refers to i2cdev.o(.data) for I2Cdev::readTimeout
    mpu6050.o(i._ZN7MPU605023getStandbyXAccelEnabledEv) refers to i2cdev.o(i._ZN6I2Cdev7readBitEhhhPht) for I2Cdev::readBit(unsigned char, unsigned char, unsigned char, unsigned char*, unsigned short)
    mpu6050.o(i._ZN7MPU605023getStandbyXAccelEnabledEv) refers to i2cdev.o(.data) for I2Cdev::readTimeout
    mpu6050.o(i._ZN7MPU605023getStandbyYAccelEnabledEv) refers to i2cdev.o(i._ZN6I2Cdev7readBitEhhhPht) for I2Cdev::readBit(unsigned char, unsigned char, unsigned char, unsigned char*, unsigned short)
    mpu6050.o(i._ZN7MPU605023getStandbyYAccelEnabledEv) refers to i2cdev.o(.data) for I2Cdev::readTimeout
    mpu6050.o(i._ZN7MPU605023getStandbyZAccelEnabledEv) refers to i2cdev.o(i._ZN6I2Cdev7readBitEhhhPht) for I2Cdev::readBit(unsigned char, unsigned char, unsigned char, unsigned char*, unsigned short)
    mpu6050.o(i._ZN7MPU605023getStandbyZAccelEnabledEv) refers to i2cdev.o(.data) for I2Cdev::readTimeout
    mpu6050.o(i._ZN7MPU605023setI2CMasterModeEnabledEb) refers to i2cdev.o(i._ZN6I2Cdev8writeBitEhhhh) for I2Cdev::writeBit(unsigned char, unsigned char, unsigned char, unsigned char)
    mpu6050.o(i._ZN7MPU605023setIntZeroMotionEnabledEb) refers to i2cdev.o(i._ZN6I2Cdev8writeBitEhhhh) for I2Cdev::writeBit(unsigned char, unsigned char, unsigned char, unsigned char)
    mpu6050.o(i._ZN7MPU605023setSlaveWordGroupOffsetEhb) refers to i2cdev.o(i._ZN6I2Cdev8writeBitEhhhh) for I2Cdev::writeBit(unsigned char, unsigned char, unsigned char, unsigned char)
    mpu6050.o(i._ZN7MPU605023setStandbyXAccelEnabledEb) refers to i2cdev.o(i._ZN6I2Cdev8writeBitEhhhh) for I2Cdev::writeBit(unsigned char, unsigned char, unsigned char, unsigned char)
    mpu6050.o(i._ZN7MPU605023setStandbyYAccelEnabledEb) refers to i2cdev.o(i._ZN6I2Cdev8writeBitEhhhh) for I2Cdev::writeBit(unsigned char, unsigned char, unsigned char, unsigned char)
    mpu6050.o(i._ZN7MPU605023setStandbyZAccelEnabledEb) refers to i2cdev.o(i._ZN6I2Cdev8writeBitEhhhh) for I2Cdev::writeBit(unsigned char, unsigned char, unsigned char, unsigned char)
    mpu6050.o(i._ZN7MPU605024getFSyncInterruptEnabledEv) refers to i2cdev.o(i._ZN6I2Cdev7readBitEhhhPht) for I2Cdev::readBit(unsigned char, unsigned char, unsigned char, unsigned char*, unsigned short)
    mpu6050.o(i._ZN7MPU605024getFSyncInterruptEnabledEv) refers to i2cdev.o(.data) for I2Cdev::readTimeout
    mpu6050.o(i._ZN7MPU605024setFSyncInterruptEnabledEb) refers to i2cdev.o(i._ZN6I2Cdev8writeBitEhhhh) for I2Cdev::writeBit(unsigned char, unsigned char, unsigned char, unsigned char)
    mpu6050.o(i._ZN7MPU605024writeDMPConfigurationSetEPKhtb) refers to h1_alloc.o(.text) for malloc
    mpu6050.o(i._ZN7MPU605024writeDMPConfigurationSetEPKhtb) refers to h1_realloc.o(.text) for realloc
    mpu6050.o(i._ZN7MPU605024writeDMPConfigurationSetEPKhtb) refers to mpu6050.o(i._ZN7MPU605016writeMemoryBlockEPKhthhbb) for MPU6050::writeMemoryBlock(const unsigned char*, unsigned short, unsigned char, unsigned char, bool, bool)
    mpu6050.o(i._ZN7MPU605024writeDMPConfigurationSetEPKhtb) refers to i2cdev.o(i._ZN6I2Cdev9writeByteEhhh) for I2Cdev::writeByte(unsigned char, unsigned char, unsigned char)
    mpu6050.o(i._ZN7MPU605024writeDMPConfigurationSetEPKhtb) refers to h1_free.o(.text) for free
    mpu6050.o(i._ZN7MPU605025getSlave4InterruptEnabledEv) refers to i2cdev.o(i._ZN6I2Cdev7readBitEhhhPht) for I2Cdev::readBit(unsigned char, unsigned char, unsigned char, unsigned char*, unsigned short)
    mpu6050.o(i._ZN7MPU605025getSlave4InterruptEnabledEv) refers to i2cdev.o(.data) for I2Cdev::readTimeout
    mpu6050.o(i._ZN7MPU605025setSlave4InterruptEnabledEb) refers to i2cdev.o(i._ZN6I2Cdev8writeBitEhhhh) for I2Cdev::writeBit(unsigned char, unsigned char, unsigned char, unsigned char)
    mpu6050.o(i._ZN7MPU605026getMotionDetectionDurationEv) refers to i2cdev.o(i._ZN6I2Cdev8readByteEhhPht) for I2Cdev::readByte(unsigned char, unsigned char, unsigned char*, unsigned short)
    mpu6050.o(i._ZN7MPU605026getMotionDetectionDurationEv) refers to i2cdev.o(.data) for I2Cdev::readTimeout
    mpu6050.o(i._ZN7MPU605026setMotionDetectionDurationEh) refers to i2cdev.o(i._ZN6I2Cdev9writeByteEhhh) for I2Cdev::writeByte(unsigned char, unsigned char, unsigned char)
    mpu6050.o(i._ZN7MPU605027getGyroXSelfTestFactoryTrimEv) refers to i2cdev.o(i._ZN6I2Cdev8readByteEhhPht) for I2Cdev::readByte(unsigned char, unsigned char, unsigned char*, unsigned short)
    mpu6050.o(i._ZN7MPU605027getGyroXSelfTestFactoryTrimEv) refers to i2cdev.o(.data) for I2Cdev::readTimeout
    mpu6050.o(i._ZN7MPU605027getGyroYSelfTestFactoryTrimEv) refers to i2cdev.o(i._ZN6I2Cdev8readByteEhhPht) for I2Cdev::readByte(unsigned char, unsigned char, unsigned char*, unsigned short)
    mpu6050.o(i._ZN7MPU605027getGyroYSelfTestFactoryTrimEv) refers to i2cdev.o(.data) for I2Cdev::readTimeout
    mpu6050.o(i._ZN7MPU605027getGyroZSelfTestFactoryTrimEv) refers to i2cdev.o(i._ZN6I2Cdev8readByteEhhPht) for I2Cdev::readByte(unsigned char, unsigned char, unsigned char*, unsigned short)
    mpu6050.o(i._ZN7MPU605027getGyroZSelfTestFactoryTrimEv) refers to i2cdev.o(.data) for I2Cdev::readTimeout
    mpu6050.o(i._ZN7MPU605027getMotionDetectionThresholdEv) refers to i2cdev.o(i._ZN6I2Cdev8readByteEhhPht) for I2Cdev::readByte(unsigned char, unsigned char, unsigned char*, unsigned short)
    mpu6050.o(i._ZN7MPU605027getMotionDetectionThresholdEv) refers to i2cdev.o(.data) for I2Cdev::readTimeout
    mpu6050.o(i._ZN7MPU605027setMotionDetectionThresholdEh) refers to i2cdev.o(i._ZN6I2Cdev9writeByteEhhh) for I2Cdev::writeByte(unsigned char, unsigned char, unsigned char)
    mpu6050.o(i._ZN7MPU605028getAccelXSelfTestFactoryTrimEv) refers to i2cdev.o(i._ZN6I2Cdev8readByteEhhPht) for I2Cdev::readByte(unsigned char, unsigned char, unsigned char*, unsigned short)
    mpu6050.o(i._ZN7MPU605028getAccelXSelfTestFactoryTrimEv) refers to i2cdev.o(.data) for I2Cdev::readTimeout
    mpu6050.o(i._ZN7MPU605028getAccelYSelfTestFactoryTrimEv) refers to i2cdev.o(i._ZN6I2Cdev8readByteEhhPht) for I2Cdev::readByte(unsigned char, unsigned char, unsigned char*, unsigned short)
    mpu6050.o(i._ZN7MPU605028getAccelYSelfTestFactoryTrimEv) refers to i2cdev.o(.data) for I2Cdev::readTimeout
    mpu6050.o(i._ZN7MPU605028getAccelZSelfTestFactoryTrimEv) refers to i2cdev.o(i._ZN6I2Cdev9readBytesEhhhPht) for I2Cdev::readBytes(unsigned char, unsigned char, unsigned char, unsigned char*, unsigned short)
    mpu6050.o(i._ZN7MPU605028getAccelZSelfTestFactoryTrimEv) refers to i2cdev.o(.data) for I2Cdev::readTimeout
    mpu6050.o(i._ZN7MPU605028getAccelerometerPowerOnDelayEv) refers to i2cdev.o(i._ZN6I2Cdev8readBitsEhhhhPht) for I2Cdev::readBits(unsigned char, unsigned char, unsigned char, unsigned char, unsigned char*, unsigned short)
    mpu6050.o(i._ZN7MPU605028getAccelerometerPowerOnDelayEv) refers to i2cdev.o(.data) for I2Cdev::readTimeout
    mpu6050.o(i._ZN7MPU605028getFreefallDetectionDurationEv) refers to i2cdev.o(i._ZN6I2Cdev8readByteEhhPht) for I2Cdev::readByte(unsigned char, unsigned char, unsigned char*, unsigned short)
    mpu6050.o(i._ZN7MPU605028getFreefallDetectionDurationEv) refers to i2cdev.o(.data) for I2Cdev::readTimeout
    mpu6050.o(i._ZN7MPU605028setAccelerometerPowerOnDelayEh) refers to i2cdev.o(i._ZN6I2Cdev9writeBitsEhhhhh) for I2Cdev::writeBits(unsigned char, unsigned char, unsigned char, unsigned char, unsigned char)
    mpu6050.o(i._ZN7MPU605028setFreefallDetectionDurationEh) refers to i2cdev.o(i._ZN6I2Cdev9writeByteEhhh) for I2Cdev::writeByte(unsigned char, unsigned char, unsigned char)
    mpu6050.o(i._ZN7MPU605028writeProgDMPConfigurationSetEPKht) refers to mpu6050.o(i._ZN7MPU605024writeDMPConfigurationSetEPKhtb) for MPU6050::writeDMPConfigurationSet(const unsigned char*, unsigned short, bool)
    mpu6050.o(i._ZN7MPU605029getExternalShadowDelayEnabledEv) refers to i2cdev.o(i._ZN6I2Cdev7readBitEhhhPht) for I2Cdev::readBit(unsigned char, unsigned char, unsigned char, unsigned char*, unsigned short)
    mpu6050.o(i._ZN7MPU605029getExternalShadowDelayEnabledEv) refers to i2cdev.o(.data) for I2Cdev::readTimeout
    mpu6050.o(i._ZN7MPU605029getFreefallDetectionThresholdEv) refers to i2cdev.o(i._ZN6I2Cdev8readByteEhhPht) for I2Cdev::readByte(unsigned char, unsigned char, unsigned char*, unsigned short)
    mpu6050.o(i._ZN7MPU605029getFreefallDetectionThresholdEv) refers to i2cdev.o(.data) for I2Cdev::readTimeout
    mpu6050.o(i._ZN7MPU605029setExternalShadowDelayEnabledEb) refers to i2cdev.o(i._ZN6I2Cdev8writeBitEhhhh) for I2Cdev::writeBit(unsigned char, unsigned char, unsigned char, unsigned char)
    mpu6050.o(i._ZN7MPU605029setFreefallDetectionThresholdEh) refers to i2cdev.o(i._ZN6I2Cdev9writeByteEhhh) for I2Cdev::writeByte(unsigned char, unsigned char, unsigned char)
    mpu6050.o(i._ZN7MPU605030getIntFIFOBufferOverflowStatusEv) refers to i2cdev.o(i._ZN6I2Cdev7readBitEhhhPht) for I2Cdev::readBit(unsigned char, unsigned char, unsigned char, unsigned char*, unsigned short)
    mpu6050.o(i._ZN7MPU605030getIntFIFOBufferOverflowStatusEv) refers to i2cdev.o(.data) for I2Cdev::readTimeout
    mpu6050.o(i._ZN7MPU605030getZeroMotionDetectionDurationEv) refers to i2cdev.o(i._ZN6I2Cdev8readByteEhhPht) for I2Cdev::readByte(unsigned char, unsigned char, unsigned char*, unsigned short)
    mpu6050.o(i._ZN7MPU605030getZeroMotionDetectionDurationEv) refers to i2cdev.o(.data) for I2Cdev::readTimeout
    mpu6050.o(i._ZN7MPU605030setZeroMotionDetectionDurationEh) refers to i2cdev.o(i._ZN6I2Cdev9writeByteEhhh) for I2Cdev::writeByte(unsigned char, unsigned char, unsigned char)
    mpu6050.o(i._ZN7MPU605031getIntFIFOBufferOverflowEnabledEv) refers to i2cdev.o(i._ZN6I2Cdev7readBitEhhhPht) for I2Cdev::readBit(unsigned char, unsigned char, unsigned char, unsigned char*, unsigned short)
    mpu6050.o(i._ZN7MPU605031getIntFIFOBufferOverflowEnabledEv) refers to i2cdev.o(.data) for I2Cdev::readTimeout
    mpu6050.o(i._ZN7MPU605031getWaitForExternalSensorEnabledEv) refers to i2cdev.o(i._ZN6I2Cdev7readBitEhhhPht) for I2Cdev::readBit(unsigned char, unsigned char, unsigned char, unsigned char*, unsigned short)
    mpu6050.o(i._ZN7MPU605031getWaitForExternalSensorEnabledEv) refers to i2cdev.o(.data) for I2Cdev::readTimeout
    mpu6050.o(i._ZN7MPU605031getZeroMotionDetectionThresholdEv) refers to i2cdev.o(i._ZN6I2Cdev8readByteEhhPht) for I2Cdev::readByte(unsigned char, unsigned char, unsigned char*, unsigned short)
    mpu6050.o(i._ZN7MPU605031getZeroMotionDetectionThresholdEv) refers to i2cdev.o(.data) for I2Cdev::readTimeout
    mpu6050.o(i._ZN7MPU605031setIntFIFOBufferOverflowEnabledEb) refers to i2cdev.o(i._ZN6I2Cdev8writeBitEhhhh) for I2Cdev::writeBit(unsigned char, unsigned char, unsigned char, unsigned char)
    mpu6050.o(i._ZN7MPU605031setWaitForExternalSensorEnabledEb) refers to i2cdev.o(i._ZN6I2Cdev8writeBitEhhhh) for I2Cdev::writeBit(unsigned char, unsigned char, unsigned char, unsigned char)
    mpu6050.o(i._ZN7MPU605031setZeroMotionDetectionThresholdEh) refers to i2cdev.o(i._ZN6I2Cdev9writeByteEhhh) for I2Cdev::writeByte(unsigned char, unsigned char, unsigned char)
    mpu6050.o(i._ZN7MPU605034getMotionDetectionCounterDecrementEv) refers to i2cdev.o(i._ZN6I2Cdev8readBitsEhhhhPht) for I2Cdev::readBits(unsigned char, unsigned char, unsigned char, unsigned char, unsigned char*, unsigned short)
    mpu6050.o(i._ZN7MPU605034getMotionDetectionCounterDecrementEv) refers to i2cdev.o(.data) for I2Cdev::readTimeout
    mpu6050.o(i._ZN7MPU605034getSlaveReadWriteTransitionEnabledEv) refers to i2cdev.o(i._ZN6I2Cdev7readBitEhhhPht) for I2Cdev::readBit(unsigned char, unsigned char, unsigned char, unsigned char*, unsigned short)
    mpu6050.o(i._ZN7MPU605034getSlaveReadWriteTransitionEnabledEv) refers to i2cdev.o(.data) for I2Cdev::readTimeout
    mpu6050.o(i._ZN7MPU605034setMotionDetectionCounterDecrementEh) refers to i2cdev.o(i._ZN6I2Cdev9writeBitsEhhhhh) for I2Cdev::writeBits(unsigned char, unsigned char, unsigned char, unsigned char, unsigned char)
    mpu6050.o(i._ZN7MPU605034setSlaveReadWriteTransitionEnabledEb) refers to i2cdev.o(i._ZN6I2Cdev8writeBitEhhhh) for I2Cdev::writeBit(unsigned char, unsigned char, unsigned char, unsigned char)
    mpu6050.o(i._ZN7MPU605036getFreefallDetectionCounterDecrementEv) refers to i2cdev.o(i._ZN6I2Cdev8readBitsEhhhhPht) for I2Cdev::readBits(unsigned char, unsigned char, unsigned char, unsigned char, unsigned char*, unsigned short)
    mpu6050.o(i._ZN7MPU605036getFreefallDetectionCounterDecrementEv) refers to i2cdev.o(.data) for I2Cdev::readTimeout
    mpu6050.o(i._ZN7MPU605036setFreefallDetectionCounterDecrementEh) refers to i2cdev.o(i._ZN6I2Cdev9writeBitsEhhhhh) for I2Cdev::writeBits(unsigned char, unsigned char, unsigned char, unsigned char, unsigned char)
    mpu6050.o(i._ZN7MPU60505resetEv) refers to i2cdev.o(i._ZN6I2Cdev8writeBitEhhhh) for I2Cdev::writeBit(unsigned char, unsigned char, unsigned char, unsigned char)
    mpu6050.o(i._ZN7MPU60507getRateEv) refers to i2cdev.o(i._ZN6I2Cdev8readByteEhhPht) for I2Cdev::readByte(unsigned char, unsigned char, unsigned char*, unsigned short)
    mpu6050.o(i._ZN7MPU60507getRateEv) refers to i2cdev.o(.data) for I2Cdev::readTimeout
    mpu6050.o(i._ZN7MPU60507setRateEh) refers to i2cdev.o(i._ZN6I2Cdev9writeByteEhhh) for I2Cdev::writeByte(unsigned char, unsigned char, unsigned char)
    mpu6050.o(i._ZN7MPU60508resetDMPEv) refers to i2cdev.o(i._ZN6I2Cdev8writeBitEhhhh) for I2Cdev::writeBit(unsigned char, unsigned char, unsigned char, unsigned char)
    mpu6050.o(i._ZN7MPU60509resetFIFOEv) refers to i2cdev.o(i._ZN6I2Cdev8writeBitEhhhh) for I2Cdev::writeBit(unsigned char, unsigned char, unsigned char, unsigned char)
    mpu6050.o(.ARM.exidx) refers to mpu6050.o(i._ZN7MPU6050C1Ev) for i._ZN7MPU6050C1Ev
    mpu6050.o(.ARM.exidx) refers to mpu6050.o(i._ZN7MPU6050C1Eh) for i._ZN7MPU6050C1Eh
    mpu6050.o(.ARM.exidx) refers to mpu6050.o(i._ZN7MPU605015setSleepEnabledEb) for i._ZN7MPU605015setSleepEnabledEb
    mpu6050.o(.ARM.exidx) refers to mpu6050.o(i._ZN7MPU605022setFullScaleAccelRangeEh) for i._ZN7MPU605022setFullScaleAccelRangeEh
    mpu6050.o(.ARM.exidx) refers to mpu6050.o(i._ZN7MPU605021setFullScaleGyroRangeEh) for i._ZN7MPU605021setFullScaleGyroRangeEh
    mpu6050.o(.ARM.exidx) refers to mpu6050.o(i._ZN7MPU605014setClockSourceEh) for i._ZN7MPU605014setClockSourceEh
    mpu6050.o(.ARM.exidx) refers to mpu6050.o(i._ZN7MPU605010initializeEv) for i._ZN7MPU605010initializeEv
    mpu6050.o(.ARM.exidx) refers to mpu6050.o(i._ZN7MPU605011getDeviceIDEv) for i._ZN7MPU605011getDeviceIDEv
    mpu6050.o(.ARM.exidx) refers to mpu6050.o(i._ZN7MPU605014testConnectionEv) for i._ZN7MPU605014testConnectionEv
    mpu6050.o(.ARM.exidx) refers to mpu6050.o(i._ZN7MPU605016getAuxVDDIOLevelEv) for i._ZN7MPU605016getAuxVDDIOLevelEv
    mpu6050.o(.ARM.exidx) refers to mpu6050.o(i._ZN7MPU605016setAuxVDDIOLevelEh) for i._ZN7MPU605016setAuxVDDIOLevelEh
    mpu6050.o(.ARM.exidx) refers to mpu6050.o(i._ZN7MPU60507getRateEv) for i._ZN7MPU60507getRateEv
    mpu6050.o(.ARM.exidx) refers to mpu6050.o(i._ZN7MPU60507setRateEh) for i._ZN7MPU60507setRateEh
    mpu6050.o(.ARM.exidx) refers to mpu6050.o(i._ZN7MPU605020getExternalFrameSyncEv) for i._ZN7MPU605020getExternalFrameSyncEv
    mpu6050.o(.ARM.exidx) refers to mpu6050.o(i._ZN7MPU605020setExternalFrameSyncEh) for i._ZN7MPU605020setExternalFrameSyncEh
    mpu6050.o(.ARM.exidx) refers to mpu6050.o(i._ZN7MPU605011getDLPFModeEv) for i._ZN7MPU605011getDLPFModeEv
    mpu6050.o(.ARM.exidx) refers to mpu6050.o(i._ZN7MPU605011setDLPFModeEh) for i._ZN7MPU605011setDLPFModeEh
    mpu6050.o(.ARM.exidx) refers to mpu6050.o(i._ZN7MPU605021getFullScaleGyroRangeEv) for i._ZN7MPU605021getFullScaleGyroRangeEv
    mpu6050.o(.ARM.exidx) refers to mpu6050.o(i._ZN7MPU605028getAccelXSelfTestFactoryTrimEv) for i._ZN7MPU605028getAccelXSelfTestFactoryTrimEv
    mpu6050.o(.ARM.exidx) refers to mpu6050.o(i._ZN7MPU605028getAccelYSelfTestFactoryTrimEv) for i._ZN7MPU605028getAccelYSelfTestFactoryTrimEv
    mpu6050.o(.ARM.exidx) refers to mpu6050.o(i._ZN7MPU605028getAccelZSelfTestFactoryTrimEv) for i._ZN7MPU605028getAccelZSelfTestFactoryTrimEv
    mpu6050.o(.ARM.exidx) refers to mpu6050.o(i._ZN7MPU605027getGyroXSelfTestFactoryTrimEv) for i._ZN7MPU605027getGyroXSelfTestFactoryTrimEv
    mpu6050.o(.ARM.exidx) refers to mpu6050.o(i._ZN7MPU605027getGyroYSelfTestFactoryTrimEv) for i._ZN7MPU605027getGyroYSelfTestFactoryTrimEv
    mpu6050.o(.ARM.exidx) refers to mpu6050.o(i._ZN7MPU605027getGyroZSelfTestFactoryTrimEv) for i._ZN7MPU605027getGyroZSelfTestFactoryTrimEv
    mpu6050.o(.ARM.exidx) refers to mpu6050.o(i._ZN7MPU605017getAccelXSelfTestEv) for i._ZN7MPU605017getAccelXSelfTestEv
    mpu6050.o(.ARM.exidx) refers to mpu6050.o(i._ZN7MPU605017setAccelXSelfTestEb) for i._ZN7MPU605017setAccelXSelfTestEb
    mpu6050.o(.ARM.exidx) refers to mpu6050.o(i._ZN7MPU605017getAccelYSelfTestEv) for i._ZN7MPU605017getAccelYSelfTestEv
    mpu6050.o(.ARM.exidx) refers to mpu6050.o(i._ZN7MPU605017setAccelYSelfTestEb) for i._ZN7MPU605017setAccelYSelfTestEb
    mpu6050.o(.ARM.exidx) refers to mpu6050.o(i._ZN7MPU605017getAccelZSelfTestEv) for i._ZN7MPU605017getAccelZSelfTestEv
    mpu6050.o(.ARM.exidx) refers to mpu6050.o(i._ZN7MPU605017setAccelZSelfTestEb) for i._ZN7MPU605017setAccelZSelfTestEb
    mpu6050.o(.ARM.exidx) refers to mpu6050.o(i._ZN7MPU605022getFullScaleAccelRangeEv) for i._ZN7MPU605022getFullScaleAccelRangeEv
    mpu6050.o(.ARM.exidx) refers to mpu6050.o(i._ZN7MPU605011getDHPFModeEv) for i._ZN7MPU605011getDHPFModeEv
    mpu6050.o(.ARM.exidx) refers to mpu6050.o(i._ZN7MPU605011setDHPFModeEh) for i._ZN7MPU605011setDHPFModeEh
    mpu6050.o(.ARM.exidx) refers to mpu6050.o(i._ZN7MPU605029getFreefallDetectionThresholdEv) for i._ZN7MPU605029getFreefallDetectionThresholdEv
    mpu6050.o(.ARM.exidx) refers to mpu6050.o(i._ZN7MPU605029setFreefallDetectionThresholdEh) for i._ZN7MPU605029setFreefallDetectionThresholdEh
    mpu6050.o(.ARM.exidx) refers to mpu6050.o(i._ZN7MPU605028getFreefallDetectionDurationEv) for i._ZN7MPU605028getFreefallDetectionDurationEv
    mpu6050.o(.ARM.exidx) refers to mpu6050.o(i._ZN7MPU605028setFreefallDetectionDurationEh) for i._ZN7MPU605028setFreefallDetectionDurationEh
    mpu6050.o(.ARM.exidx) refers to mpu6050.o(i._ZN7MPU605027getMotionDetectionThresholdEv) for i._ZN7MPU605027getMotionDetectionThresholdEv
    mpu6050.o(.ARM.exidx) refers to mpu6050.o(i._ZN7MPU605027setMotionDetectionThresholdEh) for i._ZN7MPU605027setMotionDetectionThresholdEh
    mpu6050.o(.ARM.exidx) refers to mpu6050.o(i._ZN7MPU605026getMotionDetectionDurationEv) for i._ZN7MPU605026getMotionDetectionDurationEv
    mpu6050.o(.ARM.exidx) refers to mpu6050.o(i._ZN7MPU605026setMotionDetectionDurationEh) for i._ZN7MPU605026setMotionDetectionDurationEh
    mpu6050.o(.ARM.exidx) refers to mpu6050.o(i._ZN7MPU605031getZeroMotionDetectionThresholdEv) for i._ZN7MPU605031getZeroMotionDetectionThresholdEv
    mpu6050.o(.ARM.exidx) refers to mpu6050.o(i._ZN7MPU605031setZeroMotionDetectionThresholdEh) for i._ZN7MPU605031setZeroMotionDetectionThresholdEh
    mpu6050.o(.ARM.exidx) refers to mpu6050.o(i._ZN7MPU605030getZeroMotionDetectionDurationEv) for i._ZN7MPU605030getZeroMotionDetectionDurationEv
    mpu6050.o(.ARM.exidx) refers to mpu6050.o(i._ZN7MPU605030setZeroMotionDetectionDurationEh) for i._ZN7MPU605030setZeroMotionDetectionDurationEh
    mpu6050.o(.ARM.exidx) refers to mpu6050.o(i._ZN7MPU605018getTempFIFOEnabledEv) for i._ZN7MPU605018getTempFIFOEnabledEv
    mpu6050.o(.ARM.exidx) refers to mpu6050.o(i._ZN7MPU605018setTempFIFOEnabledEb) for i._ZN7MPU605018setTempFIFOEnabledEb
    mpu6050.o(.ARM.exidx) refers to mpu6050.o(i._ZN7MPU605019getXGyroFIFOEnabledEv) for i._ZN7MPU605019getXGyroFIFOEnabledEv
    mpu6050.o(.ARM.exidx) refers to mpu6050.o(i._ZN7MPU605019setXGyroFIFOEnabledEb) for i._ZN7MPU605019setXGyroFIFOEnabledEb
    mpu6050.o(.ARM.exidx) refers to mpu6050.o(i._ZN7MPU605019getYGyroFIFOEnabledEv) for i._ZN7MPU605019getYGyroFIFOEnabledEv
    mpu6050.o(.ARM.exidx) refers to mpu6050.o(i._ZN7MPU605019setYGyroFIFOEnabledEb) for i._ZN7MPU605019setYGyroFIFOEnabledEb
    mpu6050.o(.ARM.exidx) refers to mpu6050.o(i._ZN7MPU605019getZGyroFIFOEnabledEv) for i._ZN7MPU605019getZGyroFIFOEnabledEv
    mpu6050.o(.ARM.exidx) refers to mpu6050.o(i._ZN7MPU605019setZGyroFIFOEnabledEb) for i._ZN7MPU605019setZGyroFIFOEnabledEb
    mpu6050.o(.ARM.exidx) refers to mpu6050.o(i._ZN7MPU605019getAccelFIFOEnabledEv) for i._ZN7MPU605019getAccelFIFOEnabledEv
    mpu6050.o(.ARM.exidx) refers to mpu6050.o(i._ZN7MPU605019setAccelFIFOEnabledEb) for i._ZN7MPU605019setAccelFIFOEnabledEb
    mpu6050.o(.ARM.exidx) refers to mpu6050.o(i._ZN7MPU605020getSlave2FIFOEnabledEv) for i._ZN7MPU605020getSlave2FIFOEnabledEv
    mpu6050.o(.ARM.exidx) refers to mpu6050.o(i._ZN7MPU605020setSlave2FIFOEnabledEb) for i._ZN7MPU605020setSlave2FIFOEnabledEb
    mpu6050.o(.ARM.exidx) refers to mpu6050.o(i._ZN7MPU605020getSlave1FIFOEnabledEv) for i._ZN7MPU605020getSlave1FIFOEnabledEv
    mpu6050.o(.ARM.exidx) refers to mpu6050.o(i._ZN7MPU605020setSlave1FIFOEnabledEb) for i._ZN7MPU605020setSlave1FIFOEnabledEb
    mpu6050.o(.ARM.exidx) refers to mpu6050.o(i._ZN7MPU605020getSlave0FIFOEnabledEv) for i._ZN7MPU605020getSlave0FIFOEnabledEv
    mpu6050.o(.ARM.exidx) refers to mpu6050.o(i._ZN7MPU605020setSlave0FIFOEnabledEb) for i._ZN7MPU605020setSlave0FIFOEnabledEb
    mpu6050.o(.ARM.exidx) refers to mpu6050.o(i._ZN7MPU605021getMultiMasterEnabledEv) for i._ZN7MPU605021getMultiMasterEnabledEv
    mpu6050.o(.ARM.exidx) refers to mpu6050.o(i._ZN7MPU605021setMultiMasterEnabledEb) for i._ZN7MPU605021setMultiMasterEnabledEb
    mpu6050.o(.ARM.exidx) refers to mpu6050.o(i._ZN7MPU605031getWaitForExternalSensorEnabledEv) for i._ZN7MPU605031getWaitForExternalSensorEnabledEv
    mpu6050.o(.ARM.exidx) refers to mpu6050.o(i._ZN7MPU605031setWaitForExternalSensorEnabledEb) for i._ZN7MPU605031setWaitForExternalSensorEnabledEb
    mpu6050.o(.ARM.exidx) refers to mpu6050.o(i._ZN7MPU605020getSlave3FIFOEnabledEv) for i._ZN7MPU605020getSlave3FIFOEnabledEv
    mpu6050.o(.ARM.exidx) refers to mpu6050.o(i._ZN7MPU605020setSlave3FIFOEnabledEb) for i._ZN7MPU605020setSlave3FIFOEnabledEb
    mpu6050.o(.ARM.exidx) refers to mpu6050.o(i._ZN7MPU605034getSlaveReadWriteTransitionEnabledEv) for i._ZN7MPU605034getSlaveReadWriteTransitionEnabledEv
    mpu6050.o(.ARM.exidx) refers to mpu6050.o(i._ZN7MPU605034setSlaveReadWriteTransitionEnabledEb) for i._ZN7MPU605034setSlaveReadWriteTransitionEnabledEb
    mpu6050.o(.ARM.exidx) refers to mpu6050.o(i._ZN7MPU605019getMasterClockSpeedEv) for i._ZN7MPU605019getMasterClockSpeedEv
    mpu6050.o(.ARM.exidx) refers to mpu6050.o(i._ZN7MPU605019setMasterClockSpeedEh) for i._ZN7MPU605019setMasterClockSpeedEh
    mpu6050.o(.ARM.exidx) refers to mpu6050.o(i._ZN7MPU605015getSlaveAddressEh) for i._ZN7MPU605015getSlaveAddressEh
    mpu6050.o(.ARM.exidx) refers to mpu6050.o(i._ZN7MPU605015setSlaveAddressEhh) for i._ZN7MPU605015setSlaveAddressEhh
    mpu6050.o(.ARM.exidx) refers to mpu6050.o(i._ZN7MPU605016getSlaveRegisterEh) for i._ZN7MPU605016getSlaveRegisterEh
    mpu6050.o(.ARM.exidx) refers to mpu6050.o(i._ZN7MPU605016setSlaveRegisterEhh) for i._ZN7MPU605016setSlaveRegisterEhh
    mpu6050.o(.ARM.exidx) refers to mpu6050.o(i._ZN7MPU605015getSlaveEnabledEh) for i._ZN7MPU605015getSlaveEnabledEh
    mpu6050.o(.ARM.exidx) refers to mpu6050.o(i._ZN7MPU605015setSlaveEnabledEhb) for i._ZN7MPU605015setSlaveEnabledEhb
    mpu6050.o(.ARM.exidx) refers to mpu6050.o(i._ZN7MPU605020getSlaveWordByteSwapEh) for i._ZN7MPU605020getSlaveWordByteSwapEh
    mpu6050.o(.ARM.exidx) refers to mpu6050.o(i._ZN7MPU605020setSlaveWordByteSwapEhb) for i._ZN7MPU605020setSlaveWordByteSwapEhb
    mpu6050.o(.ARM.exidx) refers to mpu6050.o(i._ZN7MPU605017getSlaveWriteModeEh) for i._ZN7MPU605017getSlaveWriteModeEh
    mpu6050.o(.ARM.exidx) refers to mpu6050.o(i._ZN7MPU605017setSlaveWriteModeEhb) for i._ZN7MPU605017setSlaveWriteModeEhb
    mpu6050.o(.ARM.exidx) refers to mpu6050.o(i._ZN7MPU605023getSlaveWordGroupOffsetEh) for i._ZN7MPU605023getSlaveWordGroupOffsetEh
    mpu6050.o(.ARM.exidx) refers to mpu6050.o(i._ZN7MPU605023setSlaveWordGroupOffsetEhb) for i._ZN7MPU605023setSlaveWordGroupOffsetEhb
    mpu6050.o(.ARM.exidx) refers to mpu6050.o(i._ZN7MPU605018getSlaveDataLengthEh) for i._ZN7MPU605018getSlaveDataLengthEh
    mpu6050.o(.ARM.exidx) refers to mpu6050.o(i._ZN7MPU605018setSlaveDataLengthEhh) for i._ZN7MPU605018setSlaveDataLengthEhh
    mpu6050.o(.ARM.exidx) refers to mpu6050.o(i._ZN7MPU605016getSlave4AddressEv) for i._ZN7MPU605016getSlave4AddressEv
    mpu6050.o(.ARM.exidx) refers to mpu6050.o(i._ZN7MPU605016setSlave4AddressEh) for i._ZN7MPU605016setSlave4AddressEh
    mpu6050.o(.ARM.exidx) refers to mpu6050.o(i._ZN7MPU605017getSlave4RegisterEv) for i._ZN7MPU605017getSlave4RegisterEv
    mpu6050.o(.ARM.exidx) refers to mpu6050.o(i._ZN7MPU605017setSlave4RegisterEh) for i._ZN7MPU605017setSlave4RegisterEh
    mpu6050.o(.ARM.exidx) refers to mpu6050.o(i._ZN7MPU605019setSlave4OutputByteEh) for i._ZN7MPU605019setSlave4OutputByteEh
    mpu6050.o(.ARM.exidx) refers to mpu6050.o(i._ZN7MPU605016getSlave4EnabledEv) for i._ZN7MPU605016getSlave4EnabledEv
    mpu6050.o(.ARM.exidx) refers to mpu6050.o(i._ZN7MPU605016setSlave4EnabledEb) for i._ZN7MPU605016setSlave4EnabledEb
    mpu6050.o(.ARM.exidx) refers to mpu6050.o(i._ZN7MPU605025getSlave4InterruptEnabledEv) for i._ZN7MPU605025getSlave4InterruptEnabledEv
    mpu6050.o(.ARM.exidx) refers to mpu6050.o(i._ZN7MPU605025setSlave4InterruptEnabledEb) for i._ZN7MPU605025setSlave4InterruptEnabledEb
    mpu6050.o(.ARM.exidx) refers to mpu6050.o(i._ZN7MPU605018getSlave4WriteModeEv) for i._ZN7MPU605018getSlave4WriteModeEv
    mpu6050.o(.ARM.exidx) refers to mpu6050.o(i._ZN7MPU605018setSlave4WriteModeEb) for i._ZN7MPU605018setSlave4WriteModeEb
    mpu6050.o(.ARM.exidx) refers to mpu6050.o(i._ZN7MPU605020getSlave4MasterDelayEv) for i._ZN7MPU605020getSlave4MasterDelayEv
    mpu6050.o(.ARM.exidx) refers to mpu6050.o(i._ZN7MPU605020setSlave4MasterDelayEh) for i._ZN7MPU605020setSlave4MasterDelayEh
    mpu6050.o(.ARM.exidx) refers to mpu6050.o(i._ZN7MPU605018getSlate4InputByteEv) for i._ZN7MPU605018getSlate4InputByteEv
    mpu6050.o(.ARM.exidx) refers to mpu6050.o(i._ZN7MPU605020getPassthroughStatusEv) for i._ZN7MPU605020getPassthroughStatusEv
    mpu6050.o(.ARM.exidx) refers to mpu6050.o(i._ZN7MPU605015getSlave4IsDoneEv) for i._ZN7MPU605015getSlave4IsDoneEv
    mpu6050.o(.ARM.exidx) refers to mpu6050.o(i._ZN7MPU605018getLostArbitrationEv) for i._ZN7MPU605018getLostArbitrationEv
    mpu6050.o(.ARM.exidx) refers to mpu6050.o(i._ZN7MPU605013getSlave4NackEv) for i._ZN7MPU605013getSlave4NackEv
    mpu6050.o(.ARM.exidx) refers to mpu6050.o(i._ZN7MPU605013getSlave3NackEv) for i._ZN7MPU605013getSlave3NackEv
    mpu6050.o(.ARM.exidx) refers to mpu6050.o(i._ZN7MPU605013getSlave2NackEv) for i._ZN7MPU605013getSlave2NackEv
    mpu6050.o(.ARM.exidx) refers to mpu6050.o(i._ZN7MPU605013getSlave1NackEv) for i._ZN7MPU605013getSlave1NackEv
    mpu6050.o(.ARM.exidx) refers to mpu6050.o(i._ZN7MPU605013getSlave0NackEv) for i._ZN7MPU605013getSlave0NackEv
    mpu6050.o(.ARM.exidx) refers to mpu6050.o(i._ZN7MPU605016getInterruptModeEv) for i._ZN7MPU605016getInterruptModeEv
    mpu6050.o(.ARM.exidx) refers to mpu6050.o(i._ZN7MPU605016setInterruptModeEb) for i._ZN7MPU605016setInterruptModeEb
    mpu6050.o(.ARM.exidx) refers to mpu6050.o(i._ZN7MPU605017getInterruptDriveEv) for i._ZN7MPU605017getInterruptDriveEv
    mpu6050.o(.ARM.exidx) refers to mpu6050.o(i._ZN7MPU605017setInterruptDriveEb) for i._ZN7MPU605017setInterruptDriveEb
    mpu6050.o(.ARM.exidx) refers to mpu6050.o(i._ZN7MPU605017getInterruptLatchEv) for i._ZN7MPU605017getInterruptLatchEv
    mpu6050.o(.ARM.exidx) refers to mpu6050.o(i._ZN7MPU605017setInterruptLatchEb) for i._ZN7MPU605017setInterruptLatchEb
    mpu6050.o(.ARM.exidx) refers to mpu6050.o(i._ZN7MPU605022getInterruptLatchClearEv) for i._ZN7MPU605022getInterruptLatchClearEv
    mpu6050.o(.ARM.exidx) refers to mpu6050.o(i._ZN7MPU605022setInterruptLatchClearEb) for i._ZN7MPU605022setInterruptLatchClearEb
    mpu6050.o(.ARM.exidx) refers to mpu6050.o(i._ZN7MPU605022getFSyncInterruptLevelEv) for i._ZN7MPU605022getFSyncInterruptLevelEv
    mpu6050.o(.ARM.exidx) refers to mpu6050.o(i._ZN7MPU605022setFSyncInterruptLevelEb) for i._ZN7MPU605022setFSyncInterruptLevelEb
    mpu6050.o(.ARM.exidx) refers to mpu6050.o(i._ZN7MPU605024getFSyncInterruptEnabledEv) for i._ZN7MPU605024getFSyncInterruptEnabledEv
    mpu6050.o(.ARM.exidx) refers to mpu6050.o(i._ZN7MPU605024setFSyncInterruptEnabledEb) for i._ZN7MPU605024setFSyncInterruptEnabledEb
    mpu6050.o(.ARM.exidx) refers to mpu6050.o(i._ZN7MPU605019getI2CBypassEnabledEv) for i._ZN7MPU605019getI2CBypassEnabledEv
    mpu6050.o(.ARM.exidx) refers to mpu6050.o(i._ZN7MPU605019setI2CBypassEnabledEb) for i._ZN7MPU605019setI2CBypassEnabledEb
    mpu6050.o(.ARM.exidx) refers to mpu6050.o(i._ZN7MPU605021getClockOutputEnabledEv) for i._ZN7MPU605021getClockOutputEnabledEv
    mpu6050.o(.ARM.exidx) refers to mpu6050.o(i._ZN7MPU605021setClockOutputEnabledEb) for i._ZN7MPU605021setClockOutputEnabledEb
    mpu6050.o(.ARM.exidx) refers to mpu6050.o(i._ZN7MPU605013getIntEnabledEv) for i._ZN7MPU605013getIntEnabledEv
    mpu6050.o(.ARM.exidx) refers to mpu6050.o(i._ZN7MPU605013setIntEnabledEh) for i._ZN7MPU605013setIntEnabledEh
    mpu6050.o(.ARM.exidx) refers to mpu6050.o(i._ZN7MPU605021getIntFreefallEnabledEv) for i._ZN7MPU605021getIntFreefallEnabledEv
    mpu6050.o(.ARM.exidx) refers to mpu6050.o(i._ZN7MPU605021setIntFreefallEnabledEb) for i._ZN7MPU605021setIntFreefallEnabledEb
    mpu6050.o(.ARM.exidx) refers to mpu6050.o(i._ZN7MPU605019getIntMotionEnabledEv) for i._ZN7MPU605019getIntMotionEnabledEv
    mpu6050.o(.ARM.exidx) refers to mpu6050.o(i._ZN7MPU605019setIntMotionEnabledEb) for i._ZN7MPU605019setIntMotionEnabledEb
    mpu6050.o(.ARM.exidx) refers to mpu6050.o(i._ZN7MPU605023getIntZeroMotionEnabledEv) for i._ZN7MPU605023getIntZeroMotionEnabledEv
    mpu6050.o(.ARM.exidx) refers to mpu6050.o(i._ZN7MPU605023setIntZeroMotionEnabledEb) for i._ZN7MPU605023setIntZeroMotionEnabledEb
    mpu6050.o(.ARM.exidx) refers to mpu6050.o(i._ZN7MPU605031getIntFIFOBufferOverflowEnabledEv) for i._ZN7MPU605031getIntFIFOBufferOverflowEnabledEv
    mpu6050.o(.ARM.exidx) refers to mpu6050.o(i._ZN7MPU605031setIntFIFOBufferOverflowEnabledEb) for i._ZN7MPU605031setIntFIFOBufferOverflowEnabledEb
    mpu6050.o(.ARM.exidx) refers to mpu6050.o(i._ZN7MPU605022getIntI2CMasterEnabledEv) for i._ZN7MPU605022getIntI2CMasterEnabledEv
    mpu6050.o(.ARM.exidx) refers to mpu6050.o(i._ZN7MPU605022setIntI2CMasterEnabledEb) for i._ZN7MPU605022setIntI2CMasterEnabledEb
    mpu6050.o(.ARM.exidx) refers to mpu6050.o(i._ZN7MPU605022getIntDataReadyEnabledEv) for i._ZN7MPU605022getIntDataReadyEnabledEv
    mpu6050.o(.ARM.exidx) refers to mpu6050.o(i._ZN7MPU605022setIntDataReadyEnabledEb) for i._ZN7MPU605022setIntDataReadyEnabledEb
    mpu6050.o(.ARM.exidx) refers to mpu6050.o(i._ZN7MPU605012getIntStatusEv) for i._ZN7MPU605012getIntStatusEv
    mpu6050.o(.ARM.exidx) refers to mpu6050.o(i._ZN7MPU605020getIntFreefallStatusEv) for i._ZN7MPU605020getIntFreefallStatusEv
    mpu6050.o(.ARM.exidx) refers to mpu6050.o(i._ZN7MPU605018getIntMotionStatusEv) for i._ZN7MPU605018getIntMotionStatusEv
    mpu6050.o(.ARM.exidx) refers to mpu6050.o(i._ZN7MPU605022getIntZeroMotionStatusEv) for i._ZN7MPU605022getIntZeroMotionStatusEv
    mpu6050.o(.ARM.exidx) refers to mpu6050.o(i._ZN7MPU605030getIntFIFOBufferOverflowStatusEv) for i._ZN7MPU605030getIntFIFOBufferOverflowStatusEv
    mpu6050.o(.ARM.exidx) refers to mpu6050.o(i._ZN7MPU605021getIntI2CMasterStatusEv) for i._ZN7MPU605021getIntI2CMasterStatusEv
    mpu6050.o(.ARM.exidx) refers to mpu6050.o(i._ZN7MPU605021getIntDataReadyStatusEv) for i._ZN7MPU605021getIntDataReadyStatusEv
    mpu6050.o(.ARM.exidx) refers to mpu6050.o(i._ZN7MPU605010getMotion6EPsS0_S0_S0_S0_S0_) for i._ZN7MPU605010getMotion6EPsS0_S0_S0_S0_S0_
    mpu6050.o(.ARM.exidx) refers to mpu6050.o(i._ZN7MPU605010getMotion9EPsS0_S0_S0_S0_S0_S0_S0_S0_) for i._ZN7MPU605010getMotion9EPsS0_S0_S0_S0_S0_S0_S0_S0_
    mpu6050.o(.ARM.exidx) refers to mpu6050.o(i._ZN7MPU605015getAccelerationEPsS0_S0_) for i._ZN7MPU605015getAccelerationEPsS0_S0_
    mpu6050.o(.ARM.exidx) refers to mpu6050.o(i._ZN7MPU605016getAccelerationXEv) for i._ZN7MPU605016getAccelerationXEv
    mpu6050.o(.ARM.exidx) refers to mpu6050.o(i._ZN7MPU605016getAccelerationYEv) for i._ZN7MPU605016getAccelerationYEv
    mpu6050.o(.ARM.exidx) refers to mpu6050.o(i._ZN7MPU605016getAccelerationZEv) for i._ZN7MPU605016getAccelerationZEv
    mpu6050.o(.ARM.exidx) refers to mpu6050.o(i._ZN7MPU605014getTemperatureEv) for i._ZN7MPU605014getTemperatureEv
    mpu6050.o(.ARM.exidx) refers to mpu6050.o(i._ZN7MPU605011getRotationEPsS0_S0_) for i._ZN7MPU605011getRotationEPsS0_S0_
    mpu6050.o(.ARM.exidx) refers to mpu6050.o(i._ZN7MPU605012getRotationXEv) for i._ZN7MPU605012getRotationXEv
    mpu6050.o(.ARM.exidx) refers to mpu6050.o(i._ZN7MPU605012getRotationYEv) for i._ZN7MPU605012getRotationYEv
    mpu6050.o(.ARM.exidx) refers to mpu6050.o(i._ZN7MPU605012getRotationZEv) for i._ZN7MPU605012getRotationZEv
    mpu6050.o(.ARM.exidx) refers to mpu6050.o(i._ZN7MPU605021getExternalSensorByteEi) for i._ZN7MPU605021getExternalSensorByteEi
    mpu6050.o(.ARM.exidx) refers to mpu6050.o(i._ZN7MPU605021getExternalSensorWordEi) for i._ZN7MPU605021getExternalSensorWordEi
    mpu6050.o(.ARM.exidx) refers to mpu6050.o(i._ZN7MPU605022getExternalSensorDWordEi) for i._ZN7MPU605022getExternalSensorDWordEi
    mpu6050.o(.ARM.exidx) refers to mpu6050.o(i._ZN7MPU605015getMotionStatusEv) for i._ZN7MPU605015getMotionStatusEv
    mpu6050.o(.ARM.exidx) refers to mpu6050.o(i._ZN7MPU605021getXNegMotionDetectedEv) for i._ZN7MPU605021getXNegMotionDetectedEv
    mpu6050.o(.ARM.exidx) refers to mpu6050.o(i._ZN7MPU605021getXPosMotionDetectedEv) for i._ZN7MPU605021getXPosMotionDetectedEv
    mpu6050.o(.ARM.exidx) refers to mpu6050.o(i._ZN7MPU605021getYNegMotionDetectedEv) for i._ZN7MPU605021getYNegMotionDetectedEv
    mpu6050.o(.ARM.exidx) refers to mpu6050.o(i._ZN7MPU605021getYPosMotionDetectedEv) for i._ZN7MPU605021getYPosMotionDetectedEv
    mpu6050.o(.ARM.exidx) refers to mpu6050.o(i._ZN7MPU605021getZNegMotionDetectedEv) for i._ZN7MPU605021getZNegMotionDetectedEv
    mpu6050.o(.ARM.exidx) refers to mpu6050.o(i._ZN7MPU605021getZPosMotionDetectedEv) for i._ZN7MPU605021getZPosMotionDetectedEv
    mpu6050.o(.ARM.exidx) refers to mpu6050.o(i._ZN7MPU605021getZeroMotionDetectedEv) for i._ZN7MPU605021getZeroMotionDetectedEv
    mpu6050.o(.ARM.exidx) refers to mpu6050.o(i._ZN7MPU605018setSlaveOutputByteEhh) for i._ZN7MPU605018setSlaveOutputByteEhh
    mpu6050.o(.ARM.exidx) refers to mpu6050.o(i._ZN7MPU605029getExternalShadowDelayEnabledEv) for i._ZN7MPU605029getExternalShadowDelayEnabledEv
    mpu6050.o(.ARM.exidx) refers to mpu6050.o(i._ZN7MPU605029setExternalShadowDelayEnabledEb) for i._ZN7MPU605029setExternalShadowDelayEnabledEb
    mpu6050.o(.ARM.exidx) refers to mpu6050.o(i._ZN7MPU605020getSlaveDelayEnabledEh) for i._ZN7MPU605020getSlaveDelayEnabledEh
    mpu6050.o(.ARM.exidx) refers to mpu6050.o(i._ZN7MPU605020setSlaveDelayEnabledEhb) for i._ZN7MPU605020setSlaveDelayEnabledEhb
    mpu6050.o(.ARM.exidx) refers to mpu6050.o(i._ZN7MPU605018resetGyroscopePathEv) for i._ZN7MPU605018resetGyroscopePathEv
    mpu6050.o(.ARM.exidx) refers to mpu6050.o(i._ZN7MPU605022resetAccelerometerPathEv) for i._ZN7MPU605022resetAccelerometerPathEv
    mpu6050.o(.ARM.exidx) refers to mpu6050.o(i._ZN7MPU605020resetTemperaturePathEv) for i._ZN7MPU605020resetTemperaturePathEv
    mpu6050.o(.ARM.exidx) refers to mpu6050.o(i._ZN7MPU605028getAccelerometerPowerOnDelayEv) for i._ZN7MPU605028getAccelerometerPowerOnDelayEv
    mpu6050.o(.ARM.exidx) refers to mpu6050.o(i._ZN7MPU605028setAccelerometerPowerOnDelayEh) for i._ZN7MPU605028setAccelerometerPowerOnDelayEh
    mpu6050.o(.ARM.exidx) refers to mpu6050.o(i._ZN7MPU605036getFreefallDetectionCounterDecrementEv) for i._ZN7MPU605036getFreefallDetectionCounterDecrementEv
    mpu6050.o(.ARM.exidx) refers to mpu6050.o(i._ZN7MPU605036setFreefallDetectionCounterDecrementEh) for i._ZN7MPU605036setFreefallDetectionCounterDecrementEh
    mpu6050.o(.ARM.exidx) refers to mpu6050.o(i._ZN7MPU605034getMotionDetectionCounterDecrementEv) for i._ZN7MPU605034getMotionDetectionCounterDecrementEv
    mpu6050.o(.ARM.exidx) refers to mpu6050.o(i._ZN7MPU605034setMotionDetectionCounterDecrementEh) for i._ZN7MPU605034setMotionDetectionCounterDecrementEh
    mpu6050.o(.ARM.exidx) refers to mpu6050.o(i._ZN7MPU605014getFIFOEnabledEv) for i._ZN7MPU605014getFIFOEnabledEv
    mpu6050.o(.ARM.exidx) refers to mpu6050.o(i._ZN7MPU605014setFIFOEnabledEb) for i._ZN7MPU605014setFIFOEnabledEb
    mpu6050.o(.ARM.exidx) refers to mpu6050.o(i._ZN7MPU605023getI2CMasterModeEnabledEv) for i._ZN7MPU605023getI2CMasterModeEnabledEv
    mpu6050.o(.ARM.exidx) refers to mpu6050.o(i._ZN7MPU605023setI2CMasterModeEnabledEb) for i._ZN7MPU605023setI2CMasterModeEnabledEb
    mpu6050.o(.ARM.exidx) refers to mpu6050.o(i._ZN7MPU605016switchSPIEnabledEb) for i._ZN7MPU605016switchSPIEnabledEb
    mpu6050.o(.ARM.exidx) refers to mpu6050.o(i._ZN7MPU60509resetFIFOEv) for i._ZN7MPU60509resetFIFOEv
    mpu6050.o(.ARM.exidx) refers to mpu6050.o(i._ZN7MPU605014resetI2CMasterEv) for i._ZN7MPU605014resetI2CMasterEv
    mpu6050.o(.ARM.exidx) refers to mpu6050.o(i._ZN7MPU605012resetSensorsEv) for i._ZN7MPU605012resetSensorsEv
    mpu6050.o(.ARM.exidx) refers to mpu6050.o(i._ZN7MPU60505resetEv) for i._ZN7MPU60505resetEv
    mpu6050.o(.ARM.exidx) refers to mpu6050.o(i._ZN7MPU605015getSleepEnabledEv) for i._ZN7MPU605015getSleepEnabledEv
    mpu6050.o(.ARM.exidx) refers to mpu6050.o(i._ZN7MPU605019getWakeCycleEnabledEv) for i._ZN7MPU605019getWakeCycleEnabledEv
    mpu6050.o(.ARM.exidx) refers to mpu6050.o(i._ZN7MPU605019setWakeCycleEnabledEb) for i._ZN7MPU605019setWakeCycleEnabledEb
    mpu6050.o(.ARM.exidx) refers to mpu6050.o(i._ZN7MPU605020getTempSensorEnabledEv) for i._ZN7MPU605020getTempSensorEnabledEv
    mpu6050.o(.ARM.exidx) refers to mpu6050.o(i._ZN7MPU605020setTempSensorEnabledEb) for i._ZN7MPU605020setTempSensorEnabledEb
    mpu6050.o(.ARM.exidx) refers to mpu6050.o(i._ZN7MPU605014getClockSourceEv) for i._ZN7MPU605014getClockSourceEv
    mpu6050.o(.ARM.exidx) refers to mpu6050.o(i._ZN7MPU605016getWakeFrequencyEv) for i._ZN7MPU605016getWakeFrequencyEv
    mpu6050.o(.ARM.exidx) refers to mpu6050.o(i._ZN7MPU605016setWakeFrequencyEh) for i._ZN7MPU605016setWakeFrequencyEh
    mpu6050.o(.ARM.exidx) refers to mpu6050.o(i._ZN7MPU605023getStandbyXAccelEnabledEv) for i._ZN7MPU605023getStandbyXAccelEnabledEv
    mpu6050.o(.ARM.exidx) refers to mpu6050.o(i._ZN7MPU605023setStandbyXAccelEnabledEb) for i._ZN7MPU605023setStandbyXAccelEnabledEb
    mpu6050.o(.ARM.exidx) refers to mpu6050.o(i._ZN7MPU605023getStandbyYAccelEnabledEv) for i._ZN7MPU605023getStandbyYAccelEnabledEv
    mpu6050.o(.ARM.exidx) refers to mpu6050.o(i._ZN7MPU605023setStandbyYAccelEnabledEb) for i._ZN7MPU605023setStandbyYAccelEnabledEb
    mpu6050.o(.ARM.exidx) refers to mpu6050.o(i._ZN7MPU605023getStandbyZAccelEnabledEv) for i._ZN7MPU605023getStandbyZAccelEnabledEv
    mpu6050.o(.ARM.exidx) refers to mpu6050.o(i._ZN7MPU605023setStandbyZAccelEnabledEb) for i._ZN7MPU605023setStandbyZAccelEnabledEb
    mpu6050.o(.ARM.exidx) refers to mpu6050.o(i._ZN7MPU605022getStandbyXGyroEnabledEv) for i._ZN7MPU605022getStandbyXGyroEnabledEv
    mpu6050.o(.ARM.exidx) refers to mpu6050.o(i._ZN7MPU605022setStandbyXGyroEnabledEb) for i._ZN7MPU605022setStandbyXGyroEnabledEb
    mpu6050.o(.ARM.exidx) refers to mpu6050.o(i._ZN7MPU605022getStandbyYGyroEnabledEv) for i._ZN7MPU605022getStandbyYGyroEnabledEv
    mpu6050.o(.ARM.exidx) refers to mpu6050.o(i._ZN7MPU605022setStandbyYGyroEnabledEb) for i._ZN7MPU605022setStandbyYGyroEnabledEb
    mpu6050.o(.ARM.exidx) refers to mpu6050.o(i._ZN7MPU605022getStandbyZGyroEnabledEv) for i._ZN7MPU605022getStandbyZGyroEnabledEv
    mpu6050.o(.ARM.exidx) refers to mpu6050.o(i._ZN7MPU605022setStandbyZGyroEnabledEb) for i._ZN7MPU605022setStandbyZGyroEnabledEb
    mpu6050.o(.ARM.exidx) refers to mpu6050.o(i._ZN7MPU605012getFIFOCountEv) for i._ZN7MPU605012getFIFOCountEv
    mpu6050.o(.ARM.exidx) refers to mpu6050.o(i._ZN7MPU605011getFIFOByteEv) for i._ZN7MPU605011getFIFOByteEv
    mpu6050.o(.ARM.exidx) refers to mpu6050.o(i._ZN7MPU605011setFIFOByteEh) for i._ZN7MPU605011setFIFOByteEh
    mpu6050.o(.ARM.exidx) refers to mpu6050.o(i._ZN7MPU605012getFIFOBytesEPhh) for i._ZN7MPU605012getFIFOBytesEPhh
    mpu6050.o(.ARM.exidx) refers to mpu6050.o(i._ZN7MPU605011setDeviceIDEh) for i._ZN7MPU605011setDeviceIDEh
    mpu6050.o(.ARM.exidx) refers to mpu6050.o(i._ZN7MPU605015getOTPBankValidEv) for i._ZN7MPU605015getOTPBankValidEv
    mpu6050.o(.ARM.exidx) refers to mpu6050.o(i._ZN7MPU605015setOTPBankValidEb) for i._ZN7MPU605015setOTPBankValidEb
    mpu6050.o(.ARM.exidx) refers to mpu6050.o(i._ZN7MPU605016getXGyroOffsetTCEv) for i._ZN7MPU605016getXGyroOffsetTCEv
    mpu6050.o(.ARM.exidx) refers to mpu6050.o(i._ZN7MPU605016setXGyroOffsetTCEa) for i._ZN7MPU605016setXGyroOffsetTCEa
    mpu6050.o(.ARM.exidx) refers to mpu6050.o(i._ZN7MPU605016getYGyroOffsetTCEv) for i._ZN7MPU605016getYGyroOffsetTCEv
    mpu6050.o(.ARM.exidx) refers to mpu6050.o(i._ZN7MPU605016setYGyroOffsetTCEa) for i._ZN7MPU605016setYGyroOffsetTCEa
    mpu6050.o(.ARM.exidx) refers to mpu6050.o(i._ZN7MPU605016getZGyroOffsetTCEv) for i._ZN7MPU605016getZGyroOffsetTCEv
    mpu6050.o(.ARM.exidx) refers to mpu6050.o(i._ZN7MPU605016setZGyroOffsetTCEa) for i._ZN7MPU605016setZGyroOffsetTCEa
    mpu6050.o(.ARM.exidx) refers to mpu6050.o(i._ZN7MPU605012getXFineGainEv) for i._ZN7MPU605012getXFineGainEv
    mpu6050.o(.ARM.exidx) refers to mpu6050.o(i._ZN7MPU605012setXFineGainEa) for i._ZN7MPU605012setXFineGainEa
    mpu6050.o(.ARM.exidx) refers to mpu6050.o(i._ZN7MPU605012getYFineGainEv) for i._ZN7MPU605012getYFineGainEv
    mpu6050.o(.ARM.exidx) refers to mpu6050.o(i._ZN7MPU605012setYFineGainEa) for i._ZN7MPU605012setYFineGainEa
    mpu6050.o(.ARM.exidx) refers to mpu6050.o(i._ZN7MPU605012getZFineGainEv) for i._ZN7MPU605012getZFineGainEv
    mpu6050.o(.ARM.exidx) refers to mpu6050.o(i._ZN7MPU605012setZFineGainEa) for i._ZN7MPU605012setZFineGainEa
    mpu6050.o(.ARM.exidx) refers to mpu6050.o(i._ZN7MPU605015getXAccelOffsetEv) for i._ZN7MPU605015getXAccelOffsetEv
    mpu6050.o(.ARM.exidx) refers to mpu6050.o(i._ZN7MPU605015setXAccelOffsetEs) for i._ZN7MPU605015setXAccelOffsetEs
    mpu6050.o(.ARM.exidx) refers to mpu6050.o(i._ZN7MPU605015getYAccelOffsetEv) for i._ZN7MPU605015getYAccelOffsetEv
    mpu6050.o(.ARM.exidx) refers to mpu6050.o(i._ZN7MPU605015setYAccelOffsetEs) for i._ZN7MPU605015setYAccelOffsetEs
    mpu6050.o(.ARM.exidx) refers to mpu6050.o(i._ZN7MPU605015getZAccelOffsetEv) for i._ZN7MPU605015getZAccelOffsetEv
    mpu6050.o(.ARM.exidx) refers to mpu6050.o(i._ZN7MPU605015setZAccelOffsetEs) for i._ZN7MPU605015setZAccelOffsetEs
    mpu6050.o(.ARM.exidx) refers to mpu6050.o(i._ZN7MPU605014getXGyroOffsetEv) for i._ZN7MPU605014getXGyroOffsetEv
    mpu6050.o(.ARM.exidx) refers to mpu6050.o(i._ZN7MPU605014setXGyroOffsetEs) for i._ZN7MPU605014setXGyroOffsetEs
    mpu6050.o(.ARM.exidx) refers to mpu6050.o(i._ZN7MPU605014getYGyroOffsetEv) for i._ZN7MPU605014getYGyroOffsetEv
    mpu6050.o(.ARM.exidx) refers to mpu6050.o(i._ZN7MPU605014setYGyroOffsetEs) for i._ZN7MPU605014setYGyroOffsetEs
    mpu6050.o(.ARM.exidx) refers to mpu6050.o(i._ZN7MPU605014getZGyroOffsetEv) for i._ZN7MPU605014getZGyroOffsetEv
    mpu6050.o(.ARM.exidx) refers to mpu6050.o(i._ZN7MPU605014setZGyroOffsetEs) for i._ZN7MPU605014setZGyroOffsetEs
    mpu6050.o(.ARM.exidx) refers to mpu6050.o(i._ZN7MPU605021getIntPLLReadyEnabledEv) for i._ZN7MPU605021getIntPLLReadyEnabledEv
    mpu6050.o(.ARM.exidx) refers to mpu6050.o(i._ZN7MPU605021setIntPLLReadyEnabledEb) for i._ZN7MPU605021setIntPLLReadyEnabledEb
    mpu6050.o(.ARM.exidx) refers to mpu6050.o(i._ZN7MPU605016getIntDMPEnabledEv) for i._ZN7MPU605016getIntDMPEnabledEv
    mpu6050.o(.ARM.exidx) refers to mpu6050.o(i._ZN7MPU605016setIntDMPEnabledEb) for i._ZN7MPU605016setIntDMPEnabledEb
    mpu6050.o(.ARM.exidx) refers to mpu6050.o(i._ZN7MPU605016getDMPInt5StatusEv) for i._ZN7MPU605016getDMPInt5StatusEv
    mpu6050.o(.ARM.exidx) refers to mpu6050.o(i._ZN7MPU605016getDMPInt4StatusEv) for i._ZN7MPU605016getDMPInt4StatusEv
    mpu6050.o(.ARM.exidx) refers to mpu6050.o(i._ZN7MPU605016getDMPInt3StatusEv) for i._ZN7MPU605016getDMPInt3StatusEv
    mpu6050.o(.ARM.exidx) refers to mpu6050.o(i._ZN7MPU605016getDMPInt2StatusEv) for i._ZN7MPU605016getDMPInt2StatusEv
    mpu6050.o(.ARM.exidx) refers to mpu6050.o(i._ZN7MPU605016getDMPInt1StatusEv) for i._ZN7MPU605016getDMPInt1StatusEv
    mpu6050.o(.ARM.exidx) refers to mpu6050.o(i._ZN7MPU605016getDMPInt0StatusEv) for i._ZN7MPU605016getDMPInt0StatusEv
    mpu6050.o(.ARM.exidx) refers to mpu6050.o(i._ZN7MPU605020getIntPLLReadyStatusEv) for i._ZN7MPU605020getIntPLLReadyStatusEv
    mpu6050.o(.ARM.exidx) refers to mpu6050.o(i._ZN7MPU605015getIntDMPStatusEv) for i._ZN7MPU605015getIntDMPStatusEv
    mpu6050.o(.ARM.exidx) refers to mpu6050.o(i._ZN7MPU605013getDMPEnabledEv) for i._ZN7MPU605013getDMPEnabledEv
    mpu6050.o(.ARM.exidx) refers to mpu6050.o(i._ZN7MPU605013setDMPEnabledEb) for i._ZN7MPU605013setDMPEnabledEb
    mpu6050.o(.ARM.exidx) refers to mpu6050.o(i._ZN7MPU60508resetDMPEv) for i._ZN7MPU60508resetDMPEv
    mpu6050.o(.ARM.exidx) refers to mpu6050.o(i._ZN7MPU605013setMemoryBankEhbb) for i._ZN7MPU605013setMemoryBankEhbb
    mpu6050.o(.ARM.exidx) refers to mpu6050.o(i._ZN7MPU605021setMemoryStartAddressEh) for i._ZN7MPU605021setMemoryStartAddressEh
    mpu6050.o(.ARM.exidx) refers to mpu6050.o(i._ZN7MPU605014readMemoryByteEv) for i._ZN7MPU605014readMemoryByteEv
    mpu6050.o(.ARM.exidx) refers to mpu6050.o(i._ZN7MPU605015writeMemoryByteEh) for i._ZN7MPU605015writeMemoryByteEh
    mpu6050.o(.ARM.exidx) refers to mpu6050.o(i._ZN7MPU605015readMemoryBlockEPhthh) for i._ZN7MPU605015readMemoryBlockEPhthh
    mpu6050.o(.ARM.exidx) refers to mpu6050.o(i._ZN7MPU605016writeMemoryBlockEPKhthhbb) for i._ZN7MPU605016writeMemoryBlockEPKhthhbb
    mpu6050.o(.ARM.exidx) refers to mpu6050.o(i._ZN7MPU605020writeProgMemoryBlockEPKhthhb) for i._ZN7MPU605020writeProgMemoryBlockEPKhthhb
    mpu6050.o(.ARM.exidx) refers to mpu6050.o(i._ZN7MPU605024writeDMPConfigurationSetEPKhtb) for i._ZN7MPU605024writeDMPConfigurationSetEPKhtb
    mpu6050.o(.ARM.exidx) refers to mpu6050.o(i._ZN7MPU605028writeProgDMPConfigurationSetEPKht) for i._ZN7MPU605028writeProgDMPConfigurationSetEPKht
    mpu6050.o(.ARM.exidx) refers to mpu6050.o(i._ZN7MPU605013getDMPConfig1Ev) for i._ZN7MPU605013getDMPConfig1Ev
    mpu6050.o(.ARM.exidx) refers to mpu6050.o(i._ZN7MPU605013setDMPConfig1Eh) for i._ZN7MPU605013setDMPConfig1Eh
    mpu6050.o(.ARM.exidx) refers to mpu6050.o(i._ZN7MPU605013getDMPConfig2Ev) for i._ZN7MPU605013getDMPConfig2Ev
    mpu6050.o(.ARM.exidx) refers to mpu6050.o(i._ZN7MPU605013setDMPConfig2Eh) for i._ZN7MPU605013setDMPConfig2Eh
    i2cdev.o(i._ZN6I2Cdev10writeBitsWEhhhht) refers to i2cdev.o(i._ZN6I2Cdev8readWordEhhPtt) for I2Cdev::readWord(unsigned char, unsigned char, unsigned short*, unsigned short)
    i2cdev.o(i._ZN6I2Cdev10writeBitsWEhhhht) refers to i2cdev.o(i._ZN6I2Cdev9writeWordEhht) for I2Cdev::writeWord(unsigned char, unsigned char, unsigned short)
    i2cdev.o(i._ZN6I2Cdev10writeBitsWEhhhht) refers to i2cdev.o(.data) for I2Cdev::readTimeout
    i2cdev.o(i._ZN6I2Cdev10writeBytesEhhhPh) refers to wirebase.o(i._ZN8WireBase17beginTransmissionEh) for WireBase::beginTransmission(unsigned char)
    i2cdev.o(i._ZN6I2Cdev10writeBytesEhhhPh) refers to wirebase.o(i._ZN8WireBase5writeEh) for WireBase::write(unsigned char)
    i2cdev.o(i._ZN6I2Cdev10writeBytesEhhhPh) refers to wirebase.o(i._ZN8WireBase15endTransmissionEv) for WireBase::endTransmission()
    i2cdev.o(i._ZN6I2Cdev10writeBytesEhhhPh) refers to wire.o(.bss) for Wire
    i2cdev.o(i._ZN6I2Cdev10writeWordsEhhhPt) refers to wirebase.o(i._ZN8WireBase17beginTransmissionEh) for WireBase::beginTransmission(unsigned char)
    i2cdev.o(i._ZN6I2Cdev10writeWordsEhhhPt) refers to wirebase.o(i._ZN8WireBase5writeEh) for WireBase::write(unsigned char)
    i2cdev.o(i._ZN6I2Cdev10writeWordsEhhhPt) refers to wirebase.o(i._ZN8WireBase15endTransmissionEv) for WireBase::endTransmission()
    i2cdev.o(i._ZN6I2Cdev10writeWordsEhhhPt) refers to wire.o(.bss) for Wire
    i2cdev.o(i._ZN6I2Cdev7readBitEhhhPht) refers to i2cdev.o(i._ZN6I2Cdev8readByteEhhPht) for I2Cdev::readByte(unsigned char, unsigned char, unsigned char*, unsigned short)
    i2cdev.o(i._ZN6I2Cdev8readBitWEhhhPtt) refers to i2cdev.o(i._ZN6I2Cdev8readWordEhhPtt) for I2Cdev::readWord(unsigned char, unsigned char, unsigned short*, unsigned short)
    i2cdev.o(i._ZN6I2Cdev8readBitsEhhhhPht) refers to i2cdev.o(i._ZN6I2Cdev8readByteEhhPht) for I2Cdev::readByte(unsigned char, unsigned char, unsigned char*, unsigned short)
    i2cdev.o(i._ZN6I2Cdev8readByteEhhPht) refers to i2cdev.o(i._ZN6I2Cdev9readBytesEhhhPht) for I2Cdev::readBytes(unsigned char, unsigned char, unsigned char, unsigned char*, unsigned short)
    i2cdev.o(i._ZN6I2Cdev8readWordEhhPtt) refers to i2cdev.o(i._ZN6I2Cdev9readWordsEhhhPtt) for I2Cdev::readWords(unsigned char, unsigned char, unsigned char, unsigned short*, unsigned short)
    i2cdev.o(i._ZN6I2Cdev8writeBitEhhhh) refers to i2cdev.o(i._ZN6I2Cdev8readByteEhhPht) for I2Cdev::readByte(unsigned char, unsigned char, unsigned char*, unsigned short)
    i2cdev.o(i._ZN6I2Cdev8writeBitEhhhh) refers to i2cdev.o(i._ZN6I2Cdev9writeByteEhhh) for I2Cdev::writeByte(unsigned char, unsigned char, unsigned char)
    i2cdev.o(i._ZN6I2Cdev8writeBitEhhhh) refers to i2cdev.o(.data) for I2Cdev::readTimeout
    i2cdev.o(i._ZN6I2Cdev9readBitsWEhhhhPtt) refers to i2cdev.o(i._ZN6I2Cdev8readWordEhhPtt) for I2Cdev::readWord(unsigned char, unsigned char, unsigned short*, unsigned short)
    i2cdev.o(i._ZN6I2Cdev9readBytesEhhhPht) refers to delay.o(i.millis) for millis
    i2cdev.o(i._ZN6I2Cdev9readBytesEhhhPht) refers to wirebase.o(i._ZN8WireBase17beginTransmissionEh) for WireBase::beginTransmission(unsigned char)
    i2cdev.o(i._ZN6I2Cdev9readBytesEhhhPht) refers to wirebase.o(i._ZN8WireBase5writeEh) for WireBase::write(unsigned char)
    i2cdev.o(i._ZN6I2Cdev9readBytesEhhhPht) refers to wirebase.o(i._ZN8WireBase15endTransmissionEv) for WireBase::endTransmission()
    i2cdev.o(i._ZN6I2Cdev9readBytesEhhhPht) refers to wirebase.o(i._ZN8WireBase11requestFromEhi) for WireBase::requestFrom(unsigned char, int)
    i2cdev.o(i._ZN6I2Cdev9readBytesEhhhPht) refers to wirebase.o(i._ZN8WireBase4readEv) for WireBase::read()
    i2cdev.o(i._ZN6I2Cdev9readBytesEhhhPht) refers to wirebase.o(i._ZN8WireBase9availableEv) for WireBase::available()
    i2cdev.o(i._ZN6I2Cdev9readBytesEhhhPht) refers to wire.o(.bss) for Wire
    i2cdev.o(i._ZN6I2Cdev9readWordsEhhhPtt) refers to delay.o(i.millis) for millis
    i2cdev.o(i._ZN6I2Cdev9readWordsEhhhPtt) refers to wirebase.o(i._ZN8WireBase17beginTransmissionEh) for WireBase::beginTransmission(unsigned char)
    i2cdev.o(i._ZN6I2Cdev9readWordsEhhhPtt) refers to wirebase.o(i._ZN8WireBase5writeEh) for WireBase::write(unsigned char)
    i2cdev.o(i._ZN6I2Cdev9readWordsEhhhPtt) refers to wirebase.o(i._ZN8WireBase15endTransmissionEv) for WireBase::endTransmission()
    i2cdev.o(i._ZN6I2Cdev9readWordsEhhhPtt) refers to wirebase.o(i._ZN8WireBase11requestFromEhi) for WireBase::requestFrom(unsigned char, int)
    i2cdev.o(i._ZN6I2Cdev9readWordsEhhhPtt) refers to wirebase.o(i._ZN8WireBase4readEv) for WireBase::read()
    i2cdev.o(i._ZN6I2Cdev9readWordsEhhhPtt) refers to wirebase.o(i._ZN8WireBase9availableEv) for WireBase::available()
    i2cdev.o(i._ZN6I2Cdev9readWordsEhhhPtt) refers to wire.o(.bss) for Wire
    i2cdev.o(i._ZN6I2Cdev9writeBitWEhhht) refers to i2cdev.o(i._ZN6I2Cdev8readWordEhhPtt) for I2Cdev::readWord(unsigned char, unsigned char, unsigned short*, unsigned short)
    i2cdev.o(i._ZN6I2Cdev9writeBitWEhhht) refers to i2cdev.o(i._ZN6I2Cdev9writeWordEhht) for I2Cdev::writeWord(unsigned char, unsigned char, unsigned short)
    i2cdev.o(i._ZN6I2Cdev9writeBitWEhhht) refers to i2cdev.o(.data) for I2Cdev::readTimeout
    i2cdev.o(i._ZN6I2Cdev9writeBitsEhhhhh) refers to i2cdev.o(i._ZN6I2Cdev8readByteEhhPht) for I2Cdev::readByte(unsigned char, unsigned char, unsigned char*, unsigned short)
    i2cdev.o(i._ZN6I2Cdev9writeBitsEhhhhh) refers to i2cdev.o(i._ZN6I2Cdev9writeByteEhhh) for I2Cdev::writeByte(unsigned char, unsigned char, unsigned char)
    i2cdev.o(i._ZN6I2Cdev9writeBitsEhhhhh) refers to i2cdev.o(.data) for I2Cdev::readTimeout
    i2cdev.o(i._ZN6I2Cdev9writeByteEhhh) refers to i2cdev.o(i._ZN6I2Cdev10writeBytesEhhhPh) for I2Cdev::writeBytes(unsigned char, unsigned char, unsigned char, unsigned char*)
    i2cdev.o(i._ZN6I2Cdev9writeWordEhht) refers to i2cdev.o(i._ZN6I2Cdev10writeWordsEhhhPt) for I2Cdev::writeWords(unsigned char, unsigned char, unsigned char, unsigned short*)
    i2cdev.o(.ARM.exidx) refers to i2cdev.o(i._ZN6I2CdevC1Ev) for i._ZN6I2CdevC1Ev
    i2cdev.o(.ARM.exidx) refers to i2cdev.o(i._ZN6I2Cdev9readBytesEhhhPht) for i._ZN6I2Cdev9readBytesEhhhPht
    i2cdev.o(.ARM.exidx) refers to i2cdev.o(i._ZN6I2Cdev8readByteEhhPht) for i._ZN6I2Cdev8readByteEhhPht
    i2cdev.o(.ARM.exidx) refers to i2cdev.o(i._ZN6I2Cdev7readBitEhhhPht) for i._ZN6I2Cdev7readBitEhhhPht
    i2cdev.o(.ARM.exidx) refers to i2cdev.o(i._ZN6I2Cdev9readWordsEhhhPtt) for i._ZN6I2Cdev9readWordsEhhhPtt
    i2cdev.o(.ARM.exidx) refers to i2cdev.o(i._ZN6I2Cdev8readWordEhhPtt) for i._ZN6I2Cdev8readWordEhhPtt
    i2cdev.o(.ARM.exidx) refers to i2cdev.o(i._ZN6I2Cdev8readBitWEhhhPtt) for i._ZN6I2Cdev8readBitWEhhhPtt
    i2cdev.o(.ARM.exidx) refers to i2cdev.o(i._ZN6I2Cdev8readBitsEhhhhPht) for i._ZN6I2Cdev8readBitsEhhhhPht
    i2cdev.o(.ARM.exidx) refers to i2cdev.o(i._ZN6I2Cdev9readBitsWEhhhhPtt) for i._ZN6I2Cdev9readBitsWEhhhhPtt
    i2cdev.o(.ARM.exidx) refers to i2cdev.o(i._ZN6I2Cdev10writeBytesEhhhPh) for i._ZN6I2Cdev10writeBytesEhhhPh
    i2cdev.o(.ARM.exidx) refers to i2cdev.o(i._ZN6I2Cdev9writeByteEhhh) for i._ZN6I2Cdev9writeByteEhhh
    i2cdev.o(.ARM.exidx) refers to i2cdev.o(i._ZN6I2Cdev8writeBitEhhhh) for i._ZN6I2Cdev8writeBitEhhhh
    i2cdev.o(.ARM.exidx) refers to i2cdev.o(i._ZN6I2Cdev10writeWordsEhhhPt) for i._ZN6I2Cdev10writeWordsEhhhPt
    i2cdev.o(.ARM.exidx) refers to i2cdev.o(i._ZN6I2Cdev9writeWordEhht) for i._ZN6I2Cdev9writeWordEhht
    i2cdev.o(.ARM.exidx) refers to i2cdev.o(i._ZN6I2Cdev9writeBitWEhhht) for i._ZN6I2Cdev9writeBitWEhhht
    i2cdev.o(.ARM.exidx) refers to i2cdev.o(i._ZN6I2Cdev9writeBitsEhhhhh) for i._ZN6I2Cdev9writeBitsEhhhhh
    i2cdev.o(.ARM.exidx) refers to i2cdev.o(i._ZN6I2Cdev10writeBitsWEhhhht) for i._ZN6I2Cdev10writeBitsWEhhhht
    stm32f4xx_adc.o(i.ADC_DeInit) refers to stm32f4xx_rcc.o(i.RCC_APB2PeriphResetCmd) for RCC_APB2PeriphResetCmd
    stm32f4xx_dac.o(i.DAC_DeInit) refers to stm32f4xx_rcc.o(i.RCC_APB1PeriphResetCmd) for RCC_APB1PeriphResetCmd
    stm32f4xx_flash.o(i.FLASH_EraseAllBank1Sectors) refers to stm32f4xx_flash.o(i.FLASH_WaitForLastOperation) for FLASH_WaitForLastOperation
    stm32f4xx_flash.o(i.FLASH_EraseAllBank2Sectors) refers to stm32f4xx_flash.o(i.FLASH_WaitForLastOperation) for FLASH_WaitForLastOperation
    stm32f4xx_flash.o(i.FLASH_EraseAllSectors) refers to stm32f4xx_flash.o(i.FLASH_WaitForLastOperation) for FLASH_WaitForLastOperation
    stm32f4xx_flash.o(i.FLASH_EraseSector) refers to stm32f4xx_flash.o(i.FLASH_WaitForLastOperation) for FLASH_WaitForLastOperation
    stm32f4xx_flash.o(i.FLASH_OB_Launch) refers to stm32f4xx_flash.o(i.FLASH_WaitForLastOperation) for FLASH_WaitForLastOperation
    stm32f4xx_flash.o(i.FLASH_OB_PCROP1Config) refers to stm32f4xx_flash.o(i.FLASH_WaitForLastOperation) for FLASH_WaitForLastOperation
    stm32f4xx_flash.o(i.FLASH_OB_PCROPConfig) refers to stm32f4xx_flash.o(i.FLASH_WaitForLastOperation) for FLASH_WaitForLastOperation
    stm32f4xx_flash.o(i.FLASH_OB_RDPConfig) refers to stm32f4xx_flash.o(i.FLASH_WaitForLastOperation) for FLASH_WaitForLastOperation
    stm32f4xx_flash.o(i.FLASH_OB_UserConfig) refers to stm32f4xx_flash.o(i.FLASH_WaitForLastOperation) for FLASH_WaitForLastOperation
    stm32f4xx_flash.o(i.FLASH_OB_WRP1Config) refers to stm32f4xx_flash.o(i.FLASH_WaitForLastOperation) for FLASH_WaitForLastOperation
    stm32f4xx_flash.o(i.FLASH_OB_WRPConfig) refers to stm32f4xx_flash.o(i.FLASH_WaitForLastOperation) for FLASH_WaitForLastOperation
    stm32f4xx_flash.o(i.FLASH_ProgramByte) refers to stm32f4xx_flash.o(i.FLASH_WaitForLastOperation) for FLASH_WaitForLastOperation
    stm32f4xx_flash.o(i.FLASH_ProgramDoubleWord) refers to stm32f4xx_flash.o(i.FLASH_WaitForLastOperation) for FLASH_WaitForLastOperation
    stm32f4xx_flash.o(i.FLASH_ProgramHalfWord) refers to stm32f4xx_flash.o(i.FLASH_WaitForLastOperation) for FLASH_WaitForLastOperation
    stm32f4xx_flash.o(i.FLASH_ProgramWord) refers to stm32f4xx_flash.o(i.FLASH_WaitForLastOperation) for FLASH_WaitForLastOperation
    stm32f4xx_flash.o(i.FLASH_WaitForLastOperation) refers to stm32f4xx_flash.o(i.FLASH_GetStatus) for FLASH_GetStatus
    stm32f4xx_gpio.o(i.GPIO_DeInit) refers to stm32f4xx_rcc.o(i.RCC_AHB1PeriphResetCmd) for RCC_AHB1PeriphResetCmd
    stm32f4xx_pwr.o(i.PWR_DeInit) refers to stm32f4xx_rcc.o(i.RCC_APB1PeriphResetCmd) for RCC_APB1PeriphResetCmd
    stm32f4xx_rcc.o(i.RCC_GetClocksFreq) refers to stm32f4xx_rcc.o(.data) for APBAHBPrescTable
    stm32f4xx_rcc.o(i.RCC_WaitForHSEStartUp) refers to stm32f4xx_rcc.o(i.RCC_GetFlagStatus) for RCC_GetFlagStatus
    stm32f4xx_rtc.o(i.RTC_CoarseCalibCmd) refers to stm32f4xx_rtc.o(i.RTC_EnterInitMode) for RTC_EnterInitMode
    stm32f4xx_rtc.o(i.RTC_CoarseCalibCmd) refers to stm32f4xx_rtc.o(i.RTC_ExitInitMode) for RTC_ExitInitMode
    stm32f4xx_rtc.o(i.RTC_CoarseCalibConfig) refers to stm32f4xx_rtc.o(i.RTC_EnterInitMode) for RTC_EnterInitMode
    stm32f4xx_rtc.o(i.RTC_CoarseCalibConfig) refers to stm32f4xx_rtc.o(i.RTC_ExitInitMode) for RTC_ExitInitMode
    stm32f4xx_rtc.o(i.RTC_DeInit) refers to stm32f4xx_rtc.o(i.RTC_EnterInitMode) for RTC_EnterInitMode
    stm32f4xx_rtc.o(i.RTC_DeInit) refers to stm32f4xx_rtc.o(i.RTC_WaitForSynchro) for RTC_WaitForSynchro
    stm32f4xx_rtc.o(i.RTC_GetAlarm) refers to stm32f4xx_rtc.o(i.RTC_Bcd2ToByte) for RTC_Bcd2ToByte
    stm32f4xx_rtc.o(i.RTC_GetDate) refers to stm32f4xx_rtc.o(i.RTC_Bcd2ToByte) for RTC_Bcd2ToByte
    stm32f4xx_rtc.o(i.RTC_GetTime) refers to stm32f4xx_rtc.o(i.RTC_Bcd2ToByte) for RTC_Bcd2ToByte
    stm32f4xx_rtc.o(i.RTC_GetTimeStamp) refers to stm32f4xx_rtc.o(i.RTC_Bcd2ToByte) for RTC_Bcd2ToByte
    stm32f4xx_rtc.o(i.RTC_Init) refers to stm32f4xx_rtc.o(i.RTC_EnterInitMode) for RTC_EnterInitMode
    stm32f4xx_rtc.o(i.RTC_Init) refers to stm32f4xx_rtc.o(i.RTC_ExitInitMode) for RTC_ExitInitMode
    stm32f4xx_rtc.o(i.RTC_RefClockCmd) refers to stm32f4xx_rtc.o(i.RTC_EnterInitMode) for RTC_EnterInitMode
    stm32f4xx_rtc.o(i.RTC_RefClockCmd) refers to stm32f4xx_rtc.o(i.RTC_ExitInitMode) for RTC_ExitInitMode
    stm32f4xx_rtc.o(i.RTC_SetAlarm) refers to stm32f4xx_rtc.o(i.RTC_Bcd2ToByte) for RTC_Bcd2ToByte
    stm32f4xx_rtc.o(i.RTC_SetAlarm) refers to stm32f4xx_rtc.o(i.RTC_ByteToBcd2) for RTC_ByteToBcd2
    stm32f4xx_rtc.o(i.RTC_SetDate) refers to stm32f4xx_rtc.o(i.RTC_Bcd2ToByte) for RTC_Bcd2ToByte
    stm32f4xx_rtc.o(i.RTC_SetDate) refers to stm32f4xx_rtc.o(i.RTC_ByteToBcd2) for RTC_ByteToBcd2
    stm32f4xx_rtc.o(i.RTC_SetDate) refers to stm32f4xx_rtc.o(i.RTC_EnterInitMode) for RTC_EnterInitMode
    stm32f4xx_rtc.o(i.RTC_SetDate) refers to stm32f4xx_rtc.o(i.RTC_ExitInitMode) for RTC_ExitInitMode
    stm32f4xx_rtc.o(i.RTC_SetDate) refers to stm32f4xx_rtc.o(i.RTC_WaitForSynchro) for RTC_WaitForSynchro
    stm32f4xx_rtc.o(i.RTC_SetTime) refers to stm32f4xx_rtc.o(i.RTC_Bcd2ToByte) for RTC_Bcd2ToByte
    stm32f4xx_rtc.o(i.RTC_SetTime) refers to stm32f4xx_rtc.o(i.RTC_ByteToBcd2) for RTC_ByteToBcd2
    stm32f4xx_rtc.o(i.RTC_SetTime) refers to stm32f4xx_rtc.o(i.RTC_EnterInitMode) for RTC_EnterInitMode
    stm32f4xx_rtc.o(i.RTC_SetTime) refers to stm32f4xx_rtc.o(i.RTC_ExitInitMode) for RTC_ExitInitMode
    stm32f4xx_rtc.o(i.RTC_SetTime) refers to stm32f4xx_rtc.o(i.RTC_WaitForSynchro) for RTC_WaitForSynchro
    stm32f4xx_rtc.o(i.RTC_SynchroShiftConfig) refers to stm32f4xx_rtc.o(i.RTC_WaitForSynchro) for RTC_WaitForSynchro
    stm32f4xx_spi.o(i.SPI_I2S_DeInit) refers to stm32f4xx_rcc.o(i.RCC_APB2PeriphResetCmd) for RCC_APB2PeriphResetCmd
    stm32f4xx_spi.o(i.SPI_I2S_DeInit) refers to stm32f4xx_rcc.o(i.RCC_APB1PeriphResetCmd) for RCC_APB1PeriphResetCmd
    stm32f4xx_syscfg.o(i.SYSCFG_DeInit) refers to stm32f4xx_rcc.o(i.RCC_APB2PeriphResetCmd) for RCC_APB2PeriphResetCmd
    stm32f4xx_tim.o(i.TIM_DeInit) refers to stm32f4xx_rcc.o(i.RCC_APB2PeriphResetCmd) for RCC_APB2PeriphResetCmd
    stm32f4xx_tim.o(i.TIM_DeInit) refers to stm32f4xx_rcc.o(i.RCC_APB1PeriphResetCmd) for RCC_APB1PeriphResetCmd
    stm32f4xx_tim.o(i.TIM_ETRClockMode1Config) refers to stm32f4xx_tim.o(i.TIM_ETRConfig) for TIM_ETRConfig
    stm32f4xx_tim.o(i.TIM_ETRClockMode2Config) refers to stm32f4xx_tim.o(i.TIM_ETRConfig) for TIM_ETRConfig
    stm32f4xx_tim.o(i.TIM_ICInit) refers to stm32f4xx_tim.o(i.TI1_Config) for TI1_Config
    stm32f4xx_tim.o(i.TIM_ICInit) refers to stm32f4xx_tim.o(i.TIM_SetIC1Prescaler) for TIM_SetIC1Prescaler
    stm32f4xx_tim.o(i.TIM_ICInit) refers to stm32f4xx_tim.o(i.TI2_Config) for TI2_Config
    stm32f4xx_tim.o(i.TIM_ICInit) refers to stm32f4xx_tim.o(i.TIM_SetIC2Prescaler) for TIM_SetIC2Prescaler
    stm32f4xx_tim.o(i.TIM_ICInit) refers to stm32f4xx_tim.o(i.TI3_Config) for TI3_Config
    stm32f4xx_tim.o(i.TIM_ICInit) refers to stm32f4xx_tim.o(i.TIM_SetIC3Prescaler) for TIM_SetIC3Prescaler
    stm32f4xx_tim.o(i.TIM_ICInit) refers to stm32f4xx_tim.o(i.TI4_Config) for TI4_Config
    stm32f4xx_tim.o(i.TIM_ICInit) refers to stm32f4xx_tim.o(i.TIM_SetIC4Prescaler) for TIM_SetIC4Prescaler
    stm32f4xx_tim.o(i.TIM_ITRxExternalClockConfig) refers to stm32f4xx_tim.o(i.TIM_SelectInputTrigger) for TIM_SelectInputTrigger
    stm32f4xx_tim.o(i.TIM_PWMIConfig) refers to stm32f4xx_tim.o(i.TI1_Config) for TI1_Config
    stm32f4xx_tim.o(i.TIM_PWMIConfig) refers to stm32f4xx_tim.o(i.TIM_SetIC1Prescaler) for TIM_SetIC1Prescaler
    stm32f4xx_tim.o(i.TIM_PWMIConfig) refers to stm32f4xx_tim.o(i.TI2_Config) for TI2_Config
    stm32f4xx_tim.o(i.TIM_PWMIConfig) refers to stm32f4xx_tim.o(i.TIM_SetIC2Prescaler) for TIM_SetIC2Prescaler
    stm32f4xx_tim.o(i.TIM_TIxExternalClockConfig) refers to stm32f4xx_tim.o(i.TI2_Config) for TI2_Config
    stm32f4xx_tim.o(i.TIM_TIxExternalClockConfig) refers to stm32f4xx_tim.o(i.TI1_Config) for TI1_Config
    stm32f4xx_tim.o(i.TIM_TIxExternalClockConfig) refers to stm32f4xx_tim.o(i.TIM_SelectInputTrigger) for TIM_SelectInputTrigger
    stm32f4xx_usart.o(i.USART_DeInit) refers to stm32f4xx_rcc.o(i.RCC_APB2PeriphResetCmd) for RCC_APB2PeriphResetCmd
    stm32f4xx_usart.o(i.USART_DeInit) refers to stm32f4xx_rcc.o(i.RCC_APB1PeriphResetCmd) for RCC_APB1PeriphResetCmd
    stm32f4xx_usart.o(i.USART_Init) refers to stm32f4xx_rcc.o(i.RCC_GetClocksFreq) for RCC_GetClocksFreq
    stm32f4xx_wwdg.o(i.WWDG_DeInit) refers to stm32f4xx_rcc.o(i.RCC_APB1PeriphResetCmd) for RCC_APB1PeriphResetCmd
    startup_stm32f411xe.o(STACK) refers (Special) to heapauxi.o(.text) for __use_two_region_memory
    startup_stm32f411xe.o(HEAP) refers (Special) to heapauxi.o(.text) for __use_two_region_memory
    startup_stm32f411xe.o(RESET) refers (Special) to heapauxi.o(.text) for __use_two_region_memory
    startup_stm32f411xe.o(RESET) refers to startup_stm32f411xe.o(STACK) for __initial_sp
    startup_stm32f411xe.o(RESET) refers to startup_stm32f411xe.o(.text) for Reset_Handler
    startup_stm32f411xe.o(RESET) refers to delay.o(i.SysTick_Handler) for SysTick_Handler
    startup_stm32f411xe.o(RESET) refers to exti.o(i.EXTI0_IRQHandler) for EXTI0_IRQHandler
    startup_stm32f411xe.o(RESET) refers to exti.o(i.EXTI1_IRQHandler) for EXTI1_IRQHandler
    startup_stm32f411xe.o(RESET) refers to exti.o(i.EXTI2_IRQHandler) for EXTI2_IRQHandler
    startup_stm32f411xe.o(RESET) refers to exti.o(i.EXTI3_IRQHandler) for EXTI3_IRQHandler
    startup_stm32f411xe.o(RESET) refers to exti.o(i.EXTI4_IRQHandler) for EXTI4_IRQHandler
    startup_stm32f411xe.o(RESET) refers to exti.o(i.EXTI9_5_IRQHandler) for EXTI9_5_IRQHandler
    startup_stm32f411xe.o(RESET) refers to timer.o(i.TIM1_BRK_TIM9_IRQHandler) for TIM1_BRK_TIM9_IRQHandler
    startup_stm32f411xe.o(RESET) refers to timer.o(i.TIM1_UP_TIM10_IRQHandler) for TIM1_UP_TIM10_IRQHandler
    startup_stm32f411xe.o(RESET) refers to timer.o(i.TIM1_TRG_COM_TIM11_IRQHandler) for TIM1_TRG_COM_TIM11_IRQHandler
    startup_stm32f411xe.o(RESET) refers to timer.o(i.TIM2_IRQHandler) for TIM2_IRQHandler
    startup_stm32f411xe.o(RESET) refers to timer.o(i.TIM3_IRQHandler) for TIM3_IRQHandler
    startup_stm32f411xe.o(RESET) refers to timer.o(i.TIM4_IRQHandler) for TIM4_IRQHandler
    startup_stm32f411xe.o(RESET) refers to hardwareserial.o(i.USART1_IRQHandler) for USART1_IRQHandler
    startup_stm32f411xe.o(RESET) refers to hardwareserial.o(i.USART2_IRQHandler) for USART2_IRQHandler
    startup_stm32f411xe.o(RESET) refers to exti.o(i.EXTI15_10_IRQHandler) for EXTI15_10_IRQHandler
    startup_stm32f411xe.o(RESET) refers to timer.o(i.TIM5_IRQHandler) for TIM5_IRQHandler
    startup_stm32f411xe.o(RESET) refers to hardwareserial.o(i.USART6_IRQHandler) for USART6_IRQHandler
    startup_stm32f411xe.o(.text) refers (Special) to heapauxi.o(.text) for __use_two_region_memory
    startup_stm32f411xe.o(.text) refers to system_stm32f4xx.o(i.SystemInit) for SystemInit
    startup_stm32f411xe.o(.text) refers to __main.o(!!!main) for __main
    startup_stm32f411xe.o(.text) refers to startup_stm32f411xe.o(HEAP) for Heap_Mem
    startup_stm32f411xe.o(.text) refers to startup_stm32f411xe.o(STACK) for Stack_Mem
    system_stm32f4xx.o(i.SystemCoreClockUpdate) refers to system_stm32f4xx.o(.data) for SystemCoreClock
    system_stm32f4xx.o(i.SystemInit) refers to system_stm32f4xx.o(i.SetSysClock) for SetSysClock
    rt_ctype_table.o(.text) refers to rt_locale_intlibspace.o(.text) for __rt_locale
    rt_ctype_table.o(.text) refers to lc_ctype_c.o(locale$$code) for _get_lc_ctype
    malloc.o(.text) refers (Special) to hguard.o(.text) for __heap$guard
    malloc.o(.text) refers (Special) to init_alloc.o(.text) for _init_alloc
    malloc.o(.text) refers to rt_heap_descriptor_intlibspace.o(.text) for __rt_heap_descriptor
    malloc.o(.text) refers to heapstubs.o(.text) for __Heap_Alloc
    free.o(.text) refers (Special) to hguard.o(.text) for __heap$guard
    free.o(.text) refers to rt_heap_descriptor_intlibspace.o(.text) for __rt_heap_descriptor
    free.o(.text) refers to heapstubs.o(.text) for __Heap_Free
    realloc.o(.text) refers (Special) to hguard.o(.text) for __heap$guard
    realloc.o(.text) refers to rt_heap_descriptor_intlibspace.o(.text) for __rt_heap_descriptor
    realloc.o(.text) refers to heapstubs.o(.text) for __Heap_Realloc
    realloc.o(.text) refers to h1_free.o(.text) for free
    realloc.o(.text) refers to h1_alloc.o(.text) for malloc
    h1_alloc.o(.text) refers (Special) to h1_init.o(.text) for __Heap_Initialize
    h1_alloc.o(.text) refers to rt_heap_descriptor_intlibspace.o(.text) for __rt_heap_descriptor
    h1_alloc.o(.text) refers to init_alloc.o(.text) for __Heap_Full
    h1_free.o(.text) refers to rt_heap_descriptor_intlibspace.o(.text) for __rt_heap_descriptor
    h1_realloc.o(.text) refers to rt_heap_descriptor_intlibspace.o(.text) for __rt_heap_descriptor
    h1_realloc.o(.text) refers to h1_free.o(.text) for free
    h1_realloc.o(.text) refers to h1_alloc.o(.text) for malloc
    h1_realloc.o(.text) refers to rt_memcpy_w.o(.text) for __aeabi_memcpy4
    h1_alloc_mt.o(.text) refers (Special) to h1_init.o(.text) for __Heap_Initialize
    h1_alloc_mt.o(.text) refers to init_alloc.o(.text) for __Heap_Full
    h1_alloc_mt.o(.text) refers to rt_heap_descriptor_intlibspace.o(.text) for __rt_heap_descriptor
    h1_free_mt.o(.text) refers to rt_heap_descriptor_intlibspace.o(.text) for __rt_heap_descriptor
    h1_realloc_mt.o(.text) refers to rt_heap_descriptor_intlibspace.o(.text) for __rt_heap_descriptor
    h1_realloc_mt.o(.text) refers to h1_free_mt.o(.text) for _free_internal
    h1_realloc_mt.o(.text) refers to h1_free.o(.text) for free
    h1_realloc_mt.o(.text) refers to h1_alloc.o(.text) for malloc
    h1_realloc_mt.o(.text) refers to h1_alloc_mt.o(.text) for _malloc_internal
    h1_realloc_mt.o(.text) refers to rt_memcpy_w.o(.text) for __aeabi_memcpy4
    heap2.o(i._FDIterate) refers to heap2.o(.conststring) for .conststring
    heap2.o(i.___Heap_ProvideMemory$realtime) refers to fdtree.o(i._FDTree_Delete) for _FDTree_Delete
    heap2.o(i.___Heap_ProvideMemory$realtime) refers to fdtree.o(i._FDTree_Insert) for _FDTree_Insert
    heap2.o(i.___Heap_Stats$realtime) refers to heap2.o(i._Heap2_StatsIterate) for _Heap2_StatsIterate
    heap2.o(i.___Heap_Valid$realtime) refers to heap2.o(i._FDIterate) for _FDIterate
    heap2.o(i.___Heap_Valid$realtime) refers to heap2.o(.conststring) for .conststring
    heap2.o(i._free$realtime) refers to rt_heap_descriptor_intlibspace.o(.text) for __rt_heap_descriptor
    heap2.o(i._free$realtime) refers to fdtree.o(i._FDTree_Delete) for _FDTree_Delete
    heap2.o(i._free$realtime) refers to fdtree.o(i._FDTree_Insert) for _FDTree_Insert
    heap2.o(i._malloc$realtime) refers to rt_heap_descriptor_intlibspace.o(.text) for __rt_heap_descriptor
    heap2.o(i._malloc$realtime) refers to fdtree.o(i._FDTree_FindFirst) for _FDTree_FindFirst
    heap2.o(i._malloc$realtime) refers to init_alloc.o(.text) for __Heap_Full
    heap2.o(i._malloc$realtime) refers to fdtree.o(i._FDTree_RemoveNode) for _FDTree_RemoveNode
    heap2.o(i._malloc$realtime) refers to fdtree.o(i._FDTree_Insert) for _FDTree_Insert
    heap2.o(i._posix_memalign$realtime) refers to rt_heap_descriptor_intlibspace.o(.text) for __rt_heap_descriptor
    heap2.o(i._posix_memalign$realtime) refers to fdtree.o(i._FDTree_FindFirst) for _FDTree_FindFirst
    heap2.o(i._posix_memalign$realtime) refers to init_alloc.o(.text) for __Heap_Full
    heap2.o(i._posix_memalign$realtime) refers to fdtree.o(i._FDTree_RemoveNode) for _FDTree_RemoveNode
    heap2.o(i._posix_memalign$realtime) refers to fdtree.o(i._FDTree_Insert) for _FDTree_Insert
    heap2.o(i._realloc$realtime) refers to rt_heap_descriptor_intlibspace.o(.text) for __rt_heap_descriptor
    heap2.o(i._realloc$realtime) refers to fdtree.o(i._FDTree_Insert) for _FDTree_Insert
    heap2.o(i._realloc$realtime) refers to h1_free.o(.text) for free
    heap2.o(i._realloc$realtime) refers to h1_alloc.o(.text) for malloc
    heap2.o(i._realloc$realtime) refers to fdtree.o(i._FDTree_Delete) for _FDTree_Delete
    heap2.o(i._realloc$realtime) refers to rt_memcpy_w.o(.text) for __aeabi_memcpy4
    heap2mt.o(i._FDIterate) refers to heap2mt.o(.conststring) for .conststring
    heap2mt.o(i.___Heap_Initialize$realtime$concurrent) refers to mutex_dummy.o(.text) for _mutex_initialize
    heap2mt.o(i.___Heap_ProvideMemory$realtime$concurrent) refers to fdtree.o(i._FDTree_Delete) for _FDTree_Delete
    heap2mt.o(i.___Heap_ProvideMemory$realtime$concurrent) refers to fdtree.o(i._FDTree_Insert) for _FDTree_Insert
    heap2mt.o(i.___Heap_Stats$realtime$concurrent) refers to heap2mt.o(i._Heap2_StatsIterate) for _Heap2_StatsIterate
    heap2mt.o(i.___Heap_Valid$realtime$concurrent) refers to heap2mt.o(i._FDIterate) for _FDIterate
    heap2mt.o(i.___Heap_Valid$realtime$concurrent) refers to heap2mt.o(.conststring) for .conststring
    heap2mt.o(i._free$realtime$concurrent) refers to rt_heap_descriptor_intlibspace.o(.text) for __rt_heap_descriptor
    heap2mt.o(i._free$realtime$concurrent) refers to fdtree.o(i._FDTree_Delete) for _FDTree_Delete
    heap2mt.o(i._free$realtime$concurrent) refers to fdtree.o(i._FDTree_Insert) for _FDTree_Insert
    heap2mt.o(i._malloc$realtime$concurrent) refers to rt_heap_descriptor_intlibspace.o(.text) for __rt_heap_descriptor
    heap2mt.o(i._malloc$realtime$concurrent) refers to fdtree.o(i._FDTree_FindFirst) for _FDTree_FindFirst
    heap2mt.o(i._malloc$realtime$concurrent) refers to init_alloc.o(.text) for __Heap_Full
    heap2mt.o(i._malloc$realtime$concurrent) refers to fdtree.o(i._FDTree_RemoveNode) for _FDTree_RemoveNode
    heap2mt.o(i._malloc$realtime$concurrent) refers to fdtree.o(i._FDTree_Insert) for _FDTree_Insert
    heap2mt.o(i._posix_memalign$realtime$concurrent) refers to rt_heap_descriptor_intlibspace.o(.text) for __rt_heap_descriptor
    heap2mt.o(i._posix_memalign$realtime$concurrent) refers to fdtree.o(i._FDTree_FindFirst) for _FDTree_FindFirst
    heap2mt.o(i._posix_memalign$realtime$concurrent) refers to init_alloc.o(.text) for __Heap_Full
    heap2mt.o(i._posix_memalign$realtime$concurrent) refers to fdtree.o(i._FDTree_RemoveNode) for _FDTree_RemoveNode
    heap2mt.o(i._posix_memalign$realtime$concurrent) refers to fdtree.o(i._FDTree_Insert) for _FDTree_Insert
    heap2mt.o(i._realloc$realtime$concurrent) refers to rt_heap_descriptor_intlibspace.o(.text) for __rt_heap_descriptor
    heap2mt.o(i._realloc$realtime$concurrent) refers to fdtree.o(i._FDTree_Insert) for _FDTree_Insert
    heap2mt.o(i._realloc$realtime$concurrent) refers to h1_free.o(.text) for free
    heap2mt.o(i._realloc$realtime$concurrent) refers to h1_alloc.o(.text) for malloc
    heap2mt.o(i._realloc$realtime$concurrent) refers to fdtree.o(i._FDTree_Delete) for _FDTree_Delete
    heap2mt.o(i._realloc$realtime$concurrent) refers to rt_memcpy_w.o(.text) for __aeabi_memcpy4
    tolower.o(.text) refers to rt_ctype_table.o(.text) for __rt_ctype_table
    toupper.o(.text) refers to rt_ctype_table.o(.text) for __rt_ctype_table
    c89vsnprintf.o(.text) refers (Special) to _printf_a.o(.ARM.Collect$$_printf_percent$$00000006) for _printf_a
    c89vsnprintf.o(.text) refers (Special) to _printf_c.o(.ARM.Collect$$_printf_percent$$00000013) for _printf_c
    c89vsnprintf.o(.text) refers (Special) to _printf_charcount.o(.text) for _printf_charcount
    c89vsnprintf.o(.text) refers (Special) to _printf_d.o(.ARM.Collect$$_printf_percent$$00000009) for _printf_d
    c89vsnprintf.o(.text) refers (Special) to _printf_e.o(.ARM.Collect$$_printf_percent$$00000004) for _printf_e
    c89vsnprintf.o(.text) refers (Special) to _printf_f.o(.ARM.Collect$$_printf_percent$$00000003) for _printf_f
    c89vsnprintf.o(.text) refers (Special) to printf1.o(x$fpl$printf1) for _printf_fp_dec
    c89vsnprintf.o(.text) refers (Special) to _printf_g.o(.ARM.Collect$$_printf_percent$$00000005) for _printf_g
    c89vsnprintf.o(.text) refers (Special) to _printf_i.o(.ARM.Collect$$_printf_percent$$00000008) for _printf_i
    c89vsnprintf.o(.text) refers (Special) to _printf_dec.o(.text) for _printf_int_dec
    c89vsnprintf.o(.text) refers (Special) to _printf_l.o(.ARM.Collect$$_printf_percent$$00000012) for _printf_l
    c89vsnprintf.o(.text) refers (Special) to _printf_lc.o(.ARM.Collect$$_printf_percent$$00000015) for _printf_lc
    c89vsnprintf.o(.text) refers (Special) to _printf_ll.o(.ARM.Collect$$_printf_percent$$00000007) for _printf_ll
    c89vsnprintf.o(.text) refers (Special) to _printf_lld.o(.ARM.Collect$$_printf_percent$$0000000E) for _printf_lld
    c89vsnprintf.o(.text) refers (Special) to _printf_lli.o(.ARM.Collect$$_printf_percent$$0000000D) for _printf_lli
    c89vsnprintf.o(.text) refers (Special) to _printf_llo.o(.ARM.Collect$$_printf_percent$$00000010) for _printf_llo
    c89vsnprintf.o(.text) refers (Special) to _printf_llu.o(.ARM.Collect$$_printf_percent$$0000000F) for _printf_llu
    c89vsnprintf.o(.text) refers (Special) to _printf_llx.o(.ARM.Collect$$_printf_percent$$00000011) for _printf_llx
    c89vsnprintf.o(.text) refers (Special) to _printf_longlong_dec.o(.text) for _printf_longlong_dec
    c89vsnprintf.o(.text) refers (Special) to _printf_hex_int_ll_ptr.o(.text) for _printf_longlong_hex
    c89vsnprintf.o(.text) refers (Special) to _printf_oct_int_ll.o(.text) for _printf_longlong_oct
    c89vsnprintf.o(.text) refers (Special) to _printf_ls.o(.ARM.Collect$$_printf_percent$$00000016) for _printf_ls
    c89vsnprintf.o(.text) refers (Special) to _printf_n.o(.ARM.Collect$$_printf_percent$$00000001) for _printf_n
    c89vsnprintf.o(.text) refers (Special) to _printf_o.o(.ARM.Collect$$_printf_percent$$0000000B) for _printf_o
    c89vsnprintf.o(.text) refers (Special) to _printf_p.o(.ARM.Collect$$_printf_percent$$00000002) for _printf_p
    c89vsnprintf.o(.text) refers (Special) to _printf_percent.o(.ARM.Collect$$_printf_percent$$00000000) for _printf_percent
    c89vsnprintf.o(.text) refers (Special) to _printf_pad.o(.text) for _printf_post_padding
    c89vsnprintf.o(.text) refers (Special) to _printf_s.o(.ARM.Collect$$_printf_percent$$00000014) for _printf_s
    c89vsnprintf.o(.text) refers (Special) to _printf_str.o(.text) for _printf_str
    c89vsnprintf.o(.text) refers (Special) to _printf_truncate.o(.text) for _printf_truncate_signed
    c89vsnprintf.o(.text) refers (Special) to _printf_u.o(.ARM.Collect$$_printf_percent$$0000000A) for _printf_u
    c89vsnprintf.o(.text) refers (Special) to _printf_wctomb.o(.text) for _printf_wctomb
    c89vsnprintf.o(.text) refers (Special) to _printf_x.o(.ARM.Collect$$_printf_percent$$0000000C) for _printf_x
    c89vsnprintf.o(.text) refers to _printf_char_common.o(.text) for _printf_char_common
    c89vsnprintf.o(.text) refers to _sputc.o(.text) for _sputc
    c89vsnprintf.o(.text) refers to _snputc.o(.text) for _snputc
    __2sprintf.o(.text) refers to _printf_char_common.o(.text) for _printf_char_common
    __2sprintf.o(.text) refers to _sputc.o(.text) for _sputc
    noretval__2sprintf.o(.text) refers to _printf_char_common.o(.text) for _printf_char_common
    noretval__2sprintf.o(.text) refers to _sputc.o(.text) for _sputc
    __printf.o(.text) refers to _printf_percent.o(.ARM.Collect$$_printf_percent$$00000000) for _printf_percent
    _printf_dec.o(.text) refers (Weak) to _printf_truncate.o(.text) for _printf_truncate_signed
    _printf_dec.o(.text) refers (Weak) to _printf_truncate.o(.text) for _printf_truncate_unsigned
    _printf_dec.o(.text) refers to _printf_intcommon.o(.text) for _printf_int_common
    __printf_flags.o(.text) refers to _printf_percent.o(.ARM.Collect$$_printf_percent$$00000000) for _printf_percent
    __printf_flags.o(.text) refers to __printf_flags.o(.constdata) for .constdata
    __printf_ss.o(.text) refers to _printf_percent.o(.ARM.Collect$$_printf_percent$$00000000) for _printf_percent
    __printf_flags_ss.o(.text) refers to _printf_percent.o(.ARM.Collect$$_printf_percent$$00000000) for _printf_percent
    __printf_flags_ss.o(.text) refers to __printf_flags_ss.o(.constdata) for .constdata
    __printf_wp.o(.text) refers to __printf_wp.o(i._is_digit) for _is_digit
    __printf_wp.o(.text) refers to _printf_percent.o(.ARM.Collect$$_printf_percent$$00000000) for _printf_percent
    __printf_flags_wp.o(.text) refers to __printf_wp.o(i._is_digit) for _is_digit
    __printf_flags_wp.o(.text) refers to _printf_percent.o(.ARM.Collect$$_printf_percent$$00000000) for _printf_percent
    __printf_flags_wp.o(.text) refers to __printf_flags_wp.o(.constdata) for .constdata
    __printf_ss_wp.o(.text) refers to __printf_wp.o(i._is_digit) for _is_digit
    __printf_ss_wp.o(.text) refers to _printf_percent.o(.ARM.Collect$$_printf_percent$$00000000) for _printf_percent
    __printf_flags_ss_wp.o(.text) refers to __printf_wp.o(i._is_digit) for _is_digit
    __printf_flags_ss_wp.o(.text) refers to _printf_percent.o(.ARM.Collect$$_printf_percent$$00000000) for _printf_percent
    __printf_flags_ss_wp.o(.text) refers to __printf_flags_ss_wp.o(.constdata) for .constdata
    _printf_d.o(.ARM.Collect$$_printf_percent$$00000009) refers (Weak) to _printf_dec.o(.text) for _printf_int_dec
    _printf_f.o(.ARM.Collect$$_printf_percent$$00000003) refers (Weak) to printf1.o(x$fpl$printf1) for _printf_fp_dec
    _printf_e.o(.ARM.Collect$$_printf_percent$$00000004) refers (Weak) to printf1.o(x$fpl$printf1) for _printf_fp_dec
    _printf_g.o(.ARM.Collect$$_printf_percent$$00000005) refers (Weak) to printf1.o(x$fpl$printf1) for _printf_fp_dec
    _printf_a.o(.ARM.Collect$$_printf_percent$$00000006) refers (Weak) to printf2.o(x$fpl$printf2) for _printf_fp_hex
    _printf_percent.o(.ARM.Collect$$_printf_percent$$00000000) refers (Special) to _printf_percent_end.o(.ARM.Collect$$_printf_percent$$00000017) for _printf_percent_end
    atol.o(.text) refers to rt_errno_addr_intlibspace.o(.text) for __aeabi_errno_addr
    atol.o(.text) refers to strtol.o(.text) for strtol
    rand.o(.emb_text) refers (Special) to libinit2.o(.ARM.Collect$$libinit$$0000000D) for __rt_lib_init_rand_2
    rand.o(.emb_text) refers to rand.o(.text) for _rand_init
    rand.o(.emb_text) refers to rand.o(.bss) for _random_number_data
    rand.o(.text) refers (Special) to libinit2.o(.ARM.Collect$$libinit$$0000000D) for __rt_lib_init_rand_2
    rand.o(.text) refers to rand.o(.bss) for .bss
    rand.o(.bss) refers (Special) to libinit2.o(.ARM.Collect$$libinit$$0000000D) for __rt_lib_init_rand_2
    atexit_aeabi.o(.text) refers to aeabi_atexit.o(.text) for __aeabi_atexit
    atexit_aeabi.o(.ARM.exidx) refers to atexit_aeabi.o(.text) for .text
    aeabi_atexit.o(.text) refers (Special) to cxa_finalize.o(.text) for __cxa_finalize
    aeabi_atexit.o(.text) refers to h1_alloc.o(.text) for malloc
    aeabi_atexit.o(.text) refers to rt_ddtor_pointer_addr_intlibspace.o(.text) for __rt_ddtor_pointer_addr
    aeabi_atexit.o(.ARM.exidx) refers (Special) to cxa_finalize.o(.text) for __cxa_finalize
    aeabi_atexit.o(.ARM.exidx) refers to aeabi_atexit.o(.text) for .text
    rt_memcpy_v6.o(.text) refers to rt_memcpy_w.o(.text) for __aeabi_memcpy4
    rt_memmove_v6.o(.text) refers to rt_memcpy_v6.o(.text) for __aeabi_memcpy
    rt_memmove_v6.o(.text) refers to rt_memmove_w.o(.text) for __memmove_aligned
    strncpy.o(.text) refers to rt_memclr.o(.text) for __aeabi_memclr
    __main.o(!!!main) refers to __rtentry.o(.ARM.Collect$$rtentry$$00000000) for __rt_entry
    init_aeabi.o(.emb_text) refers (Special) to libinit2.o(.ARM.Collect$$libinit$$00000031) for __rt_lib_init_cpp_2
    init_aeabi.o(.init_array) refers (Special) to libinit2.o(.ARM.Collect$$libinit$$00000031) for __rt_lib_init_cpp_2
    init_aeabi.o(.init_array) refers to init_aeabi.o(.text) for __cpp_initialize__aeabi_
    init_aeabi.o(.dummy_text) refers (Special) to libinit2.o(.ARM.Collect$$libinit$$00000031) for __rt_lib_init_cpp_2
    init_aeabi.o(.text) refers (Special) to libinit2.o(.ARM.Collect$$libinit$$00000031) for __rt_lib_init_cpp_2
    init_aeabi.o(.ARM.exidx) refers (Special) to libinit2.o(.ARM.Collect$$libinit$$00000031) for __rt_lib_init_cpp_2
    init_aeabi.o(.ARM.exidx) refers to init_aeabi.o(.text) for .text
    array_new.o(i._Znaj) refers to new.o(i._Znwj) for operator new(unsigned)
    array_new.o(.ARM.exidx) refers to array_new.o(i._Znaj) for i._Znaj
    array_new.o(.ARM.exidx) refers to unwind_pr0.o(.text) for __aeabi_unwind_cpp_pr0
    array_new.o(.ARM.exidx) refers to array_new.o(.ARM.extab) for .extab._Znaj
    array_new.o(.ARM.extab) refers to arm_callunex_noexceptions.o(.text) for __cxa_call_unexpected
    array_new.o(.ARM.extab) refers to bad_alloc_dtor.o(.constdata__ZTISt9bad_alloc) for typeinfo for std::bad_alloc
    delete.o(i._ZdlPv) refers to h1_free.o(.text) for free
    delete.o(.ARM.exidx) refers to delete.o(i._ZdlPv) for i._ZdlPv
    pure_virt.o(i.__cxa_pure_virtual) refers to defsig_pvfn_outer.o(.text) for __rt_SIGPVFN
    pure_virt.o(.ARM.exidx) refers to pure_virt.o(i.__cxa_pure_virtual) for i.__cxa_pure_virtual
    lib_rtti_impl.o(i._ZN10__cxxabiv116__enum_type_infoD0Ev) refers to lib_rtti_impl.o(i._ZN10__cxxabiv116__enum_type_infoD1Ev) for __cxxabiv1::__enum_type_info::~__enum_type_info()
    lib_rtti_impl.o(i._ZN10__cxxabiv117__array_type_infoD0Ev) refers to lib_rtti_impl.o(i._ZN10__cxxabiv117__array_type_infoD1Ev) for __cxxabiv1::__array_type_info::~__array_type_info()
    lib_rtti_impl.o(i._ZN10__cxxabiv117__class_type_infoD0Ev) refers to lib_rtti_impl.o(i._ZN10__cxxabiv117__class_type_infoD1Ev) for __cxxabiv1::__class_type_info::~__class_type_info()
    lib_rtti_impl.o(i._ZN10__cxxabiv117__pbase_type_infoD0Ev) refers to lib_rtti_impl.o(i._ZN10__cxxabiv117__pbase_type_infoD1Ev) for __cxxabiv1::__pbase_type_info::~__pbase_type_info()
    lib_rtti_impl.o(i._ZN10__cxxabiv119__pointer_type_infoD0Ev) refers to lib_rtti_impl.o(i._ZN10__cxxabiv119__pointer_type_infoD1Ev) for __cxxabiv1::__pointer_type_info::~__pointer_type_info()
    lib_rtti_impl.o(i._ZN10__cxxabiv119__pointer_type_infoD1Ev) refers to lib_rtti_impl.o(i._ZN10__cxxabiv117__pbase_type_infoD1Ev) for __cxxabiv1::__pbase_type_info::~__pbase_type_info()
    lib_rtti_impl.o(i._ZN10__cxxabiv120__function_type_infoD0Ev) refers to lib_rtti_impl.o(i._ZN10__cxxabiv120__function_type_infoD1Ev) for __cxxabiv1::__function_type_info::~__function_type_info()
    lib_rtti_impl.o(i._ZN10__cxxabiv120__si_class_type_infoD0Ev) refers to lib_rtti_impl.o(i._ZN10__cxxabiv120__si_class_type_infoD1Ev) for __cxxabiv1::__si_class_type_info::~__si_class_type_info()
    lib_rtti_impl.o(i._ZN10__cxxabiv120__si_class_type_infoD1Ev) refers to lib_rtti_impl.o(i._ZN10__cxxabiv117__class_type_infoD1Ev) for __cxxabiv1::__class_type_info::~__class_type_info()
    lib_rtti_impl.o(i._ZN10__cxxabiv121__vmi_class_type_infoD0Ev) refers to lib_rtti_impl.o(i._ZN10__cxxabiv121__vmi_class_type_infoD1Ev) for __cxxabiv1::__vmi_class_type_info::~__vmi_class_type_info()
    lib_rtti_impl.o(i._ZN10__cxxabiv121__vmi_class_type_infoD1Ev) refers to lib_rtti_impl.o(i._ZN10__cxxabiv117__class_type_infoD1Ev) for __cxxabiv1::__class_type_info::~__class_type_info()
    lib_rtti_impl.o(i._ZN10__cxxabiv123__fundamental_type_infoD0Ev) refers to lib_rtti_impl.o(i._ZN10__cxxabiv123__fundamental_type_infoD1Ev) for __cxxabiv1::__fundamental_type_info::~__fundamental_type_info()
    lib_rtti_impl.o(i._ZN10__cxxabiv129__pointer_to_member_type_infoD0Ev) refers to lib_rtti_impl.o(i._ZN10__cxxabiv129__pointer_to_member_type_infoD1Ev) for __cxxabiv1::__pointer_to_member_type_info::~__pointer_to_member_type_info()
    lib_rtti_impl.o(i._ZN10__cxxabiv129__pointer_to_member_type_infoD1Ev) refers to lib_rtti_impl.o(i._ZN10__cxxabiv117__pbase_type_infoD1Ev) for __cxxabiv1::__pbase_type_info::~__pbase_type_info()
    lib_rtti_impl.o(.ARM.exidx) refers to lib_rtti_impl.o(i._ZN10__cxxabiv123__fundamental_type_infoD1Ev) for i._ZN10__cxxabiv123__fundamental_type_infoD1Ev
    lib_rtti_impl.o(.ARM.exidx) refers to lib_rtti_impl.o(i._ZN10__cxxabiv123__fundamental_type_infoD0Ev) for i._ZN10__cxxabiv123__fundamental_type_infoD0Ev
    lib_rtti_impl.o(.ARM.exidx) refers to lib_rtti_impl.o(i._ZN10__cxxabiv117__array_type_infoD1Ev) for i._ZN10__cxxabiv117__array_type_infoD1Ev
    lib_rtti_impl.o(.ARM.exidx) refers to lib_rtti_impl.o(i._ZN10__cxxabiv117__array_type_infoD0Ev) for i._ZN10__cxxabiv117__array_type_infoD0Ev
    lib_rtti_impl.o(.ARM.exidx) refers to lib_rtti_impl.o(i._ZN10__cxxabiv120__function_type_infoD1Ev) for i._ZN10__cxxabiv120__function_type_infoD1Ev
    lib_rtti_impl.o(.ARM.exidx) refers to lib_rtti_impl.o(i._ZN10__cxxabiv120__function_type_infoD0Ev) for i._ZN10__cxxabiv120__function_type_infoD0Ev
    lib_rtti_impl.o(.ARM.exidx) refers to lib_rtti_impl.o(i._ZN10__cxxabiv116__enum_type_infoD1Ev) for i._ZN10__cxxabiv116__enum_type_infoD1Ev
    lib_rtti_impl.o(.ARM.exidx) refers to lib_rtti_impl.o(i._ZN10__cxxabiv116__enum_type_infoD0Ev) for i._ZN10__cxxabiv116__enum_type_infoD0Ev
    lib_rtti_impl.o(.ARM.exidx) refers to lib_rtti_impl.o(i._ZN10__cxxabiv117__class_type_infoD1Ev) for i._ZN10__cxxabiv117__class_type_infoD1Ev
    lib_rtti_impl.o(.ARM.exidx) refers to lib_rtti_impl.o(i._ZN10__cxxabiv117__class_type_infoD0Ev) for i._ZN10__cxxabiv117__class_type_infoD0Ev
    lib_rtti_impl.o(.ARM.exidx) refers to lib_rtti_impl.o(i._ZN10__cxxabiv120__si_class_type_infoD1Ev) for i._ZN10__cxxabiv120__si_class_type_infoD1Ev
    lib_rtti_impl.o(.ARM.exidx) refers to lib_rtti_impl.o(i._ZN10__cxxabiv120__si_class_type_infoD0Ev) for i._ZN10__cxxabiv120__si_class_type_infoD0Ev
    lib_rtti_impl.o(.ARM.exidx) refers to lib_rtti_impl.o(i._ZN10__cxxabiv121__vmi_class_type_infoD1Ev) for i._ZN10__cxxabiv121__vmi_class_type_infoD1Ev
    lib_rtti_impl.o(.ARM.exidx) refers to lib_rtti_impl.o(i._ZN10__cxxabiv121__vmi_class_type_infoD0Ev) for i._ZN10__cxxabiv121__vmi_class_type_infoD0Ev
    lib_rtti_impl.o(.ARM.exidx) refers to lib_rtti_impl.o(i._ZN10__cxxabiv117__pbase_type_infoD1Ev) for i._ZN10__cxxabiv117__pbase_type_infoD1Ev
    lib_rtti_impl.o(.ARM.exidx) refers to lib_rtti_impl.o(i._ZN10__cxxabiv117__pbase_type_infoD0Ev) for i._ZN10__cxxabiv117__pbase_type_infoD0Ev
    lib_rtti_impl.o(.ARM.exidx) refers to lib_rtti_impl.o(i._ZN10__cxxabiv119__pointer_type_infoD1Ev) for i._ZN10__cxxabiv119__pointer_type_infoD1Ev
    lib_rtti_impl.o(.ARM.exidx) refers to lib_rtti_impl.o(i._ZN10__cxxabiv119__pointer_type_infoD0Ev) for i._ZN10__cxxabiv119__pointer_type_infoD0Ev
    lib_rtti_impl.o(.ARM.exidx) refers to lib_rtti_impl.o(i._ZN10__cxxabiv129__pointer_to_member_type_infoD1Ev) for i._ZN10__cxxabiv129__pointer_to_member_type_infoD1Ev
    lib_rtti_impl.o(.ARM.exidx) refers to lib_rtti_impl.o(i._ZN10__cxxabiv129__pointer_to_member_type_infoD0Ev) for i._ZN10__cxxabiv129__pointer_to_member_type_infoD0Ev
    basic.o(x$fpl$basic) refers (Special) to usenofp.o(x$fpl$usenofp) for __I$use$fp
    d2f.o(x$fpl$d2f) refers (Special) to usenofp.o(x$fpl$usenofp) for __I$use$fp
    d2f.o(x$fpl$d2f) refers to fretinf.o(x$fpl$fretinf) for __fpl_fretinf
    d2f.o(x$fpl$d2f) refers to dnaninf.o(x$fpl$dnaninf) for __fpl_dnaninf
    daddsub_clz.o(x$fpl$dadd) refers (Special) to usenofp.o(x$fpl$usenofp) for __I$use$fp
    daddsub_clz.o(x$fpl$dadd) refers to daddsub_clz.o(x$fpl$dsub) for _dsub1
    daddsub_clz.o(x$fpl$dadd) refers to dretinf.o(x$fpl$dretinf) for __fpl_dretinf
    daddsub_clz.o(x$fpl$dadd) refers to dnaninf.o(x$fpl$dnaninf) for __fpl_dnaninf
    daddsub_clz.o(x$fpl$drsb) refers (Special) to usenofp.o(x$fpl$usenofp) for __I$use$fp
    daddsub_clz.o(x$fpl$drsb) refers to daddsub_clz.o(x$fpl$dadd) for _dadd1
    daddsub_clz.o(x$fpl$drsb) refers to daddsub_clz.o(x$fpl$dsub) for _dsub1
    daddsub_clz.o(x$fpl$dsub) refers (Special) to usenofp.o(x$fpl$usenofp) for __I$use$fp
    daddsub_clz.o(x$fpl$dsub) refers to daddsub_clz.o(x$fpl$dadd) for _dadd1
    daddsub_clz.o(x$fpl$dsub) refers to dnaninf.o(x$fpl$dnaninf) for __fpl_dnaninf
    ddiv.o(x$fpl$drdiv) refers (Special) to usenofp.o(x$fpl$usenofp) for __I$use$fp
    ddiv.o(x$fpl$drdiv) refers to ddiv.o(x$fpl$ddiv) for ddiv_entry
    ddiv.o(x$fpl$ddiv) refers (Special) to usenofp.o(x$fpl$usenofp) for __I$use$fp
    ddiv.o(x$fpl$ddiv) refers to dretinf.o(x$fpl$dretinf) for __fpl_dretinf
    ddiv.o(x$fpl$ddiv) refers to dnaninf.o(x$fpl$dnaninf) for __fpl_dnaninf
    deqf.o(x$fpl$deqf) refers (Special) to usenofp.o(x$fpl$usenofp) for __I$use$fp
    deqf.o(x$fpl$deqf) refers to dnaninf.o(x$fpl$dnaninf) for __fpl_dnaninf
    deqf.o(x$fpl$deqf) refers to dcmpi.o(x$fpl$dcmpinf) for __fpl_dcmp_Inf
    dfix.o(x$fpl$dfix) refers (Special) to usenofp.o(x$fpl$usenofp) for __I$use$fp
    dfix.o(x$fpl$dfix) refers to dnaninf.o(x$fpl$dnaninf) for __fpl_dnaninf
    dfix.o(x$fpl$dfixr) refers (Special) to usenofp.o(x$fpl$usenofp) for __I$use$fp
    dfix.o(x$fpl$dfixr) refers to dnaninf.o(x$fpl$dnaninf) for __fpl_dnaninf
    dfixll.o(x$fpl$llsfromd) refers (Special) to usenofp.o(x$fpl$usenofp) for __I$use$fp
    dfixll.o(x$fpl$llsfromd) refers to dnaninf.o(x$fpl$dnaninf) for __fpl_dnaninf
    dfixll.o(x$fpl$llsfromdr) refers (Special) to usenofp.o(x$fpl$usenofp) for __I$use$fp
    dfixll.o(x$fpl$llsfromdr) refers to dnaninf.o(x$fpl$dnaninf) for __fpl_dnaninf
    dfixu.o(x$fpl$dfixu) refers (Special) to usenofp.o(x$fpl$usenofp) for __I$use$fp
    dfixu.o(x$fpl$dfixu) refers to dnaninf.o(x$fpl$dnaninf) for __fpl_dnaninf
    dfixu.o(x$fpl$dfixur) refers (Special) to usenofp.o(x$fpl$usenofp) for __I$use$fp
    dfixu.o(x$fpl$dfixur) refers to dnaninf.o(x$fpl$dnaninf) for __fpl_dnaninf
    dflt_clz.o(x$fpl$dfltu) refers (Special) to usenofp.o(x$fpl$usenofp) for __I$use$fp
    dflt_clz.o(x$fpl$dflt) refers (Special) to usenofp.o(x$fpl$usenofp) for __I$use$fp
    dflt_clz.o(x$fpl$dfltn) refers (Special) to usenofp.o(x$fpl$usenofp) for __I$use$fp
    dfltll_clz.o(x$fpl$dfltll) refers (Special) to usenofp.o(x$fpl$usenofp) for __I$use$fp
    dfltll_clz.o(x$fpl$dfltull) refers (Special) to usenofp.o(x$fpl$usenofp) for __I$use$fp
    dleqf.o(x$fpl$dleqf) refers (Special) to usenofp.o(x$fpl$usenofp) for __I$use$fp
    dleqf.o(x$fpl$dleqf) refers to dnaninf.o(x$fpl$dnaninf) for __fpl_dnaninf
    dleqf.o(x$fpl$dleqf) refers to dcmpi.o(x$fpl$dcmpinf) for __fpl_dcmp_Inf
    dmul.o(x$fpl$dmul) refers (Special) to usenofp.o(x$fpl$usenofp) for __I$use$fp
    dmul.o(x$fpl$dmul) refers to dretinf.o(x$fpl$dretinf) for __fpl_dretinf
    dmul.o(x$fpl$dmul) refers to dnaninf.o(x$fpl$dnaninf) for __fpl_dnaninf
    drleqf.o(x$fpl$drleqf) refers (Special) to usenofp.o(x$fpl$usenofp) for __I$use$fp
    drleqf.o(x$fpl$drleqf) refers to dleqf.o(x$fpl$dleqf) for __fpl_dcmple_InfNaN
    f2d.o(x$fpl$f2d) refers (Special) to usenofp.o(x$fpl$usenofp) for __I$use$fp
    f2d.o(x$fpl$f2d) refers to fnaninf.o(x$fpl$fnaninf) for __fpl_fnaninf
    f2d.o(x$fpl$f2d) refers to dretinf.o(x$fpl$dretinf) for __fpl_dretinf
    printf1.o(x$fpl$printf1) refers to _printf_fp_dec.o(.text) for _printf_fp_dec_real
    printf2.o(x$fpl$printf2) refers to _printf_fp_hex.o(.text) for _printf_fp_hex_real
    printf2b.o(x$fpl$printf2) refers to _printf_fp_hex.o(.text) for _printf_fp_hex_real
    atof.o(i.__hardfp_atof) refers (Special) to usenofp.o(x$fpl$usenofp) for __I$use$fp
    atof.o(i.__hardfp_atof) refers to _rserrno.o(.text) for __read_errno
    atof.o(i.__hardfp_atof) refers to strtod.o(.text) for __strtod_int
    atof.o(i.__softfp_atof) refers (Special) to usenofp.o(x$fpl$usenofp) for __I$use$fp
    atof.o(i.__softfp_atof) refers to _rserrno.o(.text) for __read_errno
    atof.o(i.__softfp_atof) refers to strtod.o(.text) for __strtod_int
    atof.o(i.atof) refers (Special) to usenofp.o(x$fpl$usenofp) for __I$use$fp
    atof.o(i.atof) refers to _rserrno.o(.text) for __read_errno
    atof.o(i.atof) refers to strtod.o(.text) for __strtod_int
    sqrtf.o(i.__hardfp_sqrtf) refers (Special) to usenofp.o(x$fpl$usenofp) for __I$use$fp
    sqrtf.o(i.__hardfp_sqrtf) refers to _rserrno.o(.text) for __set_errno
    sqrtf.o(i.__softfp_sqrtf) refers (Special) to usenofp.o(x$fpl$usenofp) for __I$use$fp
    sqrtf.o(i.__softfp_sqrtf) refers to _rserrno.o(.text) for __set_errno
    sqrtf.o(i.sqrtf) refers (Special) to usenofp.o(x$fpl$usenofp) for __I$use$fp
    sqrtf.o(i.sqrtf) refers to _rserrno.o(.text) for __set_errno
    sqrtf_x.o(i.____hardfp_sqrtf$lsc) refers (Special) to usenofp.o(x$fpl$usenofp) for __I$use$fp
    sqrtf_x.o(i.____hardfp_sqrtf$lsc) refers to _rserrno.o(.text) for __set_errno
    sqrtf_x.o(i.____softfp_sqrtf$lsc) refers (Special) to usenofp.o(x$fpl$usenofp) for __I$use$fp
    sqrtf_x.o(i.____softfp_sqrtf$lsc) refers to _rserrno.o(.text) for __set_errno
    sqrtf_x.o(i.__sqrtf$lsc) refers (Special) to usenofp.o(x$fpl$usenofp) for __I$use$fp
    sqrtf_x.o(i.__sqrtf$lsc) refers to _rserrno.o(.text) for __set_errno
    __rtentry.o(.ARM.Collect$$rtentry$$00000000) refers (Special) to __rtentry2.o(.ARM.Collect$$rtentry$$0000000A) for __rt_entry_li
    __rtentry.o(.ARM.Collect$$rtentry$$00000000) refers (Special) to __rtentry2.o(.ARM.Collect$$rtentry$$0000000D) for __rt_entry_main
    __rtentry.o(.ARM.Collect$$rtentry$$00000000) refers (Special) to __rtentry2.o(.ARM.Collect$$rtentry$$0000000C) for __rt_entry_postli_1
    __rtentry.o(.ARM.Collect$$rtentry$$00000000) refers (Special) to __rtentry2.o(.ARM.Collect$$rtentry$$00000009) for __rt_entry_postsh_1
    __rtentry.o(.ARM.Collect$$rtentry$$00000000) refers (Special) to __rtentry2.o(.ARM.Collect$$rtentry$$00000002) for __rt_entry_presh_1
    __rtentry.o(.ARM.Collect$$rtentry$$00000000) refers (Special) to __rtentry4.o(.ARM.Collect$$rtentry$$00000004) for __rt_entry_sh
    aeabi_ldiv0_sigfpe.o(.text) refers to rt_div0.o(.text) for __rt_div0
    rt_heap_descriptor.o(.text) refers to rt_heap_descriptor.o(.bss) for __rt_heap_descriptor_data
    rt_heap_descriptor_intlibspace.o(.text) refers to libspace.o(.bss) for __libspace_start
    rt_locale.o(.text) refers to rt_locale.o(.bss) for __rt_locale_data
    rt_locale_intlibspace.o(.text) refers to libspace.o(.bss) for __libspace_start
    rt_ddtor_pointer_addr.o(.text) refers to rt_ddtor_pointer_addr.o(.bss) for __rt_ddtor_pointer_addr_data
    rt_ddtor_pointer_addr_intlibspace.o(.text) refers to libspace.o(.bss) for __libspace_start
    rt_errno_addr.o(.text) refers to rt_errno_addr.o(.bss) for __aeabi_errno_addr_data
    rt_errno_addr_intlibspace.o(.text) refers to libspace.o(.bss) for __libspace_start
    init_alloc.o(.text) refers (Special) to hguard.o(.text) for __heap$guard
    init_alloc.o(.text) refers (Special) to libinit2.o(.ARM.Collect$$libinit$$00000005) for __rt_lib_init_heap_2
    init_alloc.o(.text) refers (Special) to maybetermalloc1.o(.emb_text) for _maybe_terminate_alloc
    init_alloc.o(.text) refers to h1_extend.o(.text) for __Heap_ProvideMemory
    init_alloc.o(.text) refers to defsig_rtmem_outer.o(.text) for __rt_SIGRTMEM
    init_alloc.o(.text) refers to rt_heap_descriptor_intlibspace.o(.text) for __rt_heap_descriptor
    init_alloc.o(.text) refers to h1_init.o(.text) for __Heap_Initialize
    h1_init_mt.o(.text) refers to mutex_dummy.o(.text) for _mutex_initialize
    _rserrno.o(.text) refers to rt_errno_addr_intlibspace.o(.text) for __aeabi_errno_addr
    _printf_str.o(.text) refers (Special) to _printf_char.o(.text) for _printf_cs_common
    _printf_str.o(.text) refers (Weak) to _printf_pad.o(.text) for _printf_pre_padding
    _printf_str.o(.text) refers (Weak) to _printf_pad.o(.text) for _printf_post_padding
    _printf_intcommon.o(.text) refers (Weak) to _printf_pad.o(.text) for _printf_pre_padding
    _printf_intcommon.o(.text) refers (Weak) to _printf_pad.o(.text) for _printf_pre_padding
    _printf_intcommon.o(.text) refers (Weak) to _printf_pad.o(.text) for _printf_post_padding
    _printf_fp_dec.o(.text) refers (Special) to usenofp.o(x$fpl$usenofp) for __I$use$fp
    _printf_fp_dec.o(.text) refers (Special) to lc_numeric_c.o(locale$$code) for _get_lc_numeric
    _printf_fp_dec.o(.text) refers to bigflt0.o(.text) for _btod_etento
    _printf_fp_dec.o(.text) refers to btod.o(CL$$btod_d2e) for _btod_d2e
    _printf_fp_dec.o(.text) refers to btod.o(CL$$btod_ediv) for _btod_ediv
    _printf_fp_dec.o(.text) refers to btod.o(CL$$btod_emul) for _btod_emul
    _printf_fp_dec.o(.text) refers to lludiv10.o(.text) for _ll_udiv10
    _printf_fp_dec.o(.text) refers to fpclassify.o(i.__ARM_fpclassify) for __ARM_fpclassify
    _printf_fp_dec.o(.text) refers to _printf_fp_infnan.o(.text) for _printf_fp_infnan
    _printf_fp_dec.o(.text) refers (Weak) to _printf_pad.o(.text) for _printf_pre_padding
    _printf_fp_dec.o(.text) refers (Weak) to _printf_pad.o(.text) for _printf_pre_padding
    _printf_fp_dec.o(.text) refers to rt_locale_intlibspace.o(.text) for __rt_locale
    _printf_fp_dec.o(.text) refers (Weak) to _printf_pad.o(.text) for _printf_post_padding
    _printf_fp_hex.o(.text) refers (Special) to usenofp.o(x$fpl$usenofp) for __I$use$fp
    _printf_fp_hex.o(.text) refers to fpclassify.o(i.__ARM_fpclassify) for __ARM_fpclassify
    _printf_fp_hex.o(.text) refers to _printf_fp_infnan.o(.text) for _printf_fp_infnan
    _printf_fp_hex.o(.text) refers (Weak) to _printf_pad.o(.text) for _printf_pre_padding
    _printf_fp_hex.o(.text) refers (Weak) to _printf_pad.o(.text) for _printf_pre_padding
    _printf_fp_hex.o(.text) refers (Weak) to _printf_pad.o(.text) for _printf_post_padding
    _printf_fp_hex.o(.text) refers to _printf_fp_hex.o(.constdata) for .constdata
    _printf_fp_hex.o(.constdata) refers (Special) to usenofp.o(x$fpl$usenofp) for __I$use$fp
    _printf_char_common.o(.text) refers to __printf_flags_ss_wp.o(.text) for __printf
    _printf_wctomb.o(.text) refers (Special) to _printf_wchar.o(.text) for _printf_lcs_common
    _printf_wctomb.o(.text) refers to _wcrtomb.o(.text) for _wcrtomb
    _printf_wctomb.o(.text) refers (Weak) to _printf_pad.o(.text) for _printf_pre_padding
    _printf_wctomb.o(.text) refers (Weak) to _printf_pad.o(.text) for _printf_post_padding
    _printf_wctomb.o(.text) refers to _printf_wctomb.o(.constdata) for .constdata
    _printf_wctomb.o(.constdata) refers (Special) to _printf_wchar.o(.text) for _printf_lcs_common
    _printf_longlong_dec.o(.text) refers to lludiv10.o(.text) for _ll_udiv10
    _printf_longlong_dec.o(.text) refers to _printf_intcommon.o(.text) for _printf_int_common
    _printf_oct_ll.o(.text) refers to _printf_intcommon.o(.text) for _printf_int_common
    _printf_oct_int.o(.text) refers (Weak) to _printf_truncate.o(.text) for _printf_truncate_unsigned
    _printf_oct_int.o(.text) refers to _printf_intcommon.o(.text) for _printf_int_common
    _printf_oct_int_ll.o(.text) refers to _printf_intcommon.o(.text) for _printf_int_common
    _printf_oct_int_ll.o(.text) refers (Weak) to _printf_truncate.o(.text) for _printf_truncate_unsigned
    _printf_hex_ll.o(.text) refers to _printf_intcommon.o(.text) for _printf_int_common
    _printf_hex_ll.o(.text) refers to _printf_hex_ll.o(.constdata) for .constdata
    _printf_hex_int.o(.text) refers (Weak) to _printf_truncate.o(.text) for _printf_truncate_unsigned
    _printf_hex_int.o(.text) refers to _printf_intcommon.o(.text) for _printf_int_common
    _printf_hex_int.o(.text) refers to _printf_hex_int.o(.constdata) for .constdata
    _printf_hex_int_ll.o(.text) refers to _printf_intcommon.o(.text) for _printf_int_common
    _printf_hex_int_ll.o(.text) refers (Weak) to _printf_truncate.o(.text) for _printf_truncate_unsigned
    _printf_hex_int_ll.o(.text) refers to _printf_hex_int_ll.o(.constdata) for .constdata
    _printf_hex_ptr.o(.text) refers to _printf_intcommon.o(.text) for _printf_int_common
    _printf_hex_ptr.o(.text) refers to _printf_hex_ptr.o(.constdata) for .constdata
    _printf_hex_int_ptr.o(.text) refers to _printf_intcommon.o(.text) for _printf_int_common
    _printf_hex_int_ptr.o(.text) refers (Weak) to _printf_truncate.o(.text) for _printf_truncate_unsigned
    _printf_hex_int_ptr.o(.text) refers to _printf_hex_int_ptr.o(.constdata) for .constdata
    _printf_hex_ll_ptr.o(.text) refers to _printf_intcommon.o(.text) for _printf_int_common
    _printf_hex_ll_ptr.o(.text) refers to _printf_hex_ll_ptr.o(.constdata) for .constdata
    _printf_hex_int_ll_ptr.o(.text) refers to _printf_intcommon.o(.text) for _printf_int_common
    _printf_hex_int_ll_ptr.o(.text) refers (Weak) to _printf_truncate.o(.text) for _printf_truncate_unsigned
    _printf_hex_int_ll_ptr.o(.text) refers to _printf_hex_int_ll_ptr.o(.constdata) for .constdata
    _printf_c.o(.ARM.Collect$$_printf_percent$$00000013) refers (Weak) to _printf_char.o(.text) for _printf_char
    _printf_s.o(.ARM.Collect$$_printf_percent$$00000014) refers (Weak) to _printf_char.o(.text) for _printf_string
    _printf_n.o(.ARM.Collect$$_printf_percent$$00000001) refers (Weak) to _printf_charcount.o(.text) for _printf_charcount
    _printf_x.o(.ARM.Collect$$_printf_percent$$0000000C) refers (Weak) to _printf_hex_int_ll_ptr.o(.text) for _printf_int_hex
    _printf_p.o(.ARM.Collect$$_printf_percent$$00000002) refers (Weak) to _printf_hex_int_ll_ptr.o(.text) for _printf_hex_ptr
    _printf_o.o(.ARM.Collect$$_printf_percent$$0000000B) refers (Weak) to _printf_oct_int_ll.o(.text) for _printf_int_oct
    _printf_i.o(.ARM.Collect$$_printf_percent$$00000008) refers (Weak) to _printf_dec.o(.text) for _printf_int_dec
    _printf_u.o(.ARM.Collect$$_printf_percent$$0000000A) refers (Weak) to _printf_dec.o(.text) for _printf_int_dec
    _printf_lli.o(.ARM.Collect$$_printf_percent$$0000000D) refers (Special) to _printf_ll.o(.ARM.Collect$$_printf_percent$$00000007) for _printf_ll
    _printf_lli.o(.ARM.Collect$$_printf_percent$$0000000D) refers (Weak) to _printf_longlong_dec.o(.text) for _printf_longlong_dec
    _printf_lld.o(.ARM.Collect$$_printf_percent$$0000000E) refers (Special) to _printf_ll.o(.ARM.Collect$$_printf_percent$$00000007) for _printf_ll
    _printf_lld.o(.ARM.Collect$$_printf_percent$$0000000E) refers (Weak) to _printf_longlong_dec.o(.text) for _printf_longlong_dec
    _printf_llu.o(.ARM.Collect$$_printf_percent$$0000000F) refers (Special) to _printf_ll.o(.ARM.Collect$$_printf_percent$$00000007) for _printf_ll
    _printf_llu.o(.ARM.Collect$$_printf_percent$$0000000F) refers (Weak) to _printf_longlong_dec.o(.text) for _printf_longlong_dec
    _printf_lc.o(.ARM.Collect$$_printf_percent$$00000015) refers (Special) to _printf_l.o(.ARM.Collect$$_printf_percent$$00000012) for _printf_l
    _printf_lc.o(.ARM.Collect$$_printf_percent$$00000015) refers (Weak) to _printf_wchar.o(.text) for _printf_wchar
    _printf_ls.o(.ARM.Collect$$_printf_percent$$00000016) refers (Special) to _printf_l.o(.ARM.Collect$$_printf_percent$$00000012) for _printf_l
    _printf_ls.o(.ARM.Collect$$_printf_percent$$00000016) refers (Weak) to _printf_wchar.o(.text) for _printf_wstring
    _printf_llo.o(.ARM.Collect$$_printf_percent$$00000010) refers (Special) to _printf_ll.o(.ARM.Collect$$_printf_percent$$00000007) for _printf_ll
    _printf_llo.o(.ARM.Collect$$_printf_percent$$00000010) refers (Weak) to _printf_oct_int_ll.o(.text) for _printf_ll_oct
    _printf_llx.o(.ARM.Collect$$_printf_percent$$00000011) refers (Special) to _printf_ll.o(.ARM.Collect$$_printf_percent$$00000007) for _printf_ll
    _printf_llx.o(.ARM.Collect$$_printf_percent$$00000011) refers (Weak) to _printf_hex_int_ll_ptr.o(.text) for _printf_ll_hex
    strtod.o(.text) refers (Special) to lc_numeric_c.o(locale$$code) for _get_lc_numeric
    strtod.o(.text) refers to scanf1.o(x$fpl$scanf1) for _scanf_real
    strtod.o(.text) refers to _sgetc.o(.text) for _sgetc
    strtod.o(.text) refers to wstring.o(i.isspace) for isspace
    strtol.o(.text) refers to rt_ctype_table.o(.text) for __rt_ctype_table
    strtol.o(.text) refers to _strtoul.o(.text) for _strtoul
    strtol.o(.text) refers to rt_errno_addr_intlibspace.o(.text) for __aeabi_errno_addr
    lc_ctype_c.o(locale$$data) refers (Special) to libinit2.o(.ARM.Collect$$libinit$$00000012) for __rt_lib_init_lc_ctype_2
    lc_ctype_c.o(locale$$code) refers (Special) to libinit2.o(.ARM.Collect$$libinit$$00000012) for __rt_lib_init_lc_ctype_2
    lc_ctype_c.o(locale$$code) refers to strcmpv7m.o(.text) for strcmp
    lc_ctype_c.o(locale$$code) refers to lc_ctype_c.o(locale$$data) for __lcctype_c_name
    cxa_finalize.o(.text) refers (Special) to libshutdown2.o(.ARM.Collect$$libshutdown$$00000001) for __rt_lib_shutdown_cpp_2
    cxa_finalize.o(.text) refers to rt_ddtor_pointer_addr_intlibspace.o(.text) for __rt_ddtor_pointer_addr
    cxa_finalize.o(.text) refers to h1_free.o(.text) for free
    cxa_finalize.o(.ARM.exidx) refers (Special) to libshutdown2.o(.ARM.Collect$$libshutdown$$00000001) for __rt_lib_shutdown_cpp_2
    cxa_finalize.o(.ARM.exidx) refers to cxa_finalize.o(.text) for .text
    defsig_pvfn_outer.o(.text) refers to defsig_pvfn_inner.o(.text) for __rt_SIGPVFN_inner
    defsig_pvfn_outer.o(.text) refers to defsig_exit.o(.text) for __sig_exit
    defsig_pvfn_formal.o(.text) refers to rt_raise.o(.text) for __rt_raise
    rt_memmove_w.o(.text) refers to rt_memcpy_w.o(.text) for __aeabi_memcpy4
    rt_memclr.o(.text) refers to rt_memclr_w.o(.text) for _memset_w
    _get_argv.o(.text) refers (Special) to hrguard.o(.text) for __heap_region$guard
    _get_argv.o(.text) refers to h1_alloc.o(.text) for malloc
    _get_argv.o(.text) refers to defsig_rtmem_outer.o(.text) for __rt_SIGRTMEM
    _get_argv.o(.text) refers to sys_command.o(.text) for _sys_command_string
    libinit2.o(.ARM.Collect$$libinit$$00000001) refers to fpinit.o(x$fpl$fpinit) for _fp_init
    libinit2.o(.ARM.Collect$$libinit$$00000005) refers (Weak) to init_alloc.o(.text) for _init_alloc
    libinit2.o(.ARM.Collect$$libinit$$0000000D) refers (Weak) to rand.o(.text) for _rand_init
    libinit2.o(.ARM.Collect$$libinit$$0000000F) refers (Weak) to rt_locale_intlibspace.o(.text) for __rt_locale
    libinit2.o(.ARM.Collect$$libinit$$00000010) refers to libinit2.o(.ARM.Collect$$libinit$$0000000F) for .ARM.Collect$$libinit$$0000000F
    libinit2.o(.ARM.Collect$$libinit$$00000012) refers to libinit2.o(.ARM.Collect$$libinit$$0000000F) for .ARM.Collect$$libinit$$0000000F
    libinit2.o(.ARM.Collect$$libinit$$00000012) refers (Weak) to lc_ctype_c.o(locale$$code) for _get_lc_ctype
    libinit2.o(.ARM.Collect$$libinit$$00000014) refers to libinit2.o(.ARM.Collect$$libinit$$0000000F) for .ARM.Collect$$libinit$$0000000F
    libinit2.o(.ARM.Collect$$libinit$$00000016) refers to libinit2.o(.ARM.Collect$$libinit$$0000000F) for .ARM.Collect$$libinit$$0000000F
    libinit2.o(.ARM.Collect$$libinit$$00000016) refers (Weak) to lc_numeric_c.o(locale$$code) for _get_lc_numeric
    libinit2.o(.ARM.Collect$$libinit$$00000018) refers to libinit2.o(.ARM.Collect$$libinit$$0000000F) for .ARM.Collect$$libinit$$0000000F
    libinit2.o(.ARM.Collect$$libinit$$00000026) refers to argv_veneer.o(.emb_text) for __ARM_argv_veneer
    libinit2.o(.ARM.Collect$$libinit$$00000027) refers to argv_veneer.o(.emb_text) for __ARM_argv_veneer
    libinit2.o(.ARM.Collect$$libinit$$00000031) refers (Weak) to init_aeabi.o(.text) for __cpp_initialize__aeabi_
    new.o(i._Znwj) refers to rt_new_handler_addr_intlibspace.o(.text) for __rt_new_handler_addr
    new.o(i._Znwj) refers to h1_alloc.o(.text) for malloc
    new.o(i._Znwj) refers to arm_newhandler_noexceptions.o(.text) for __default_new_handler()
    new.o(.ARM.exidx) refers to new.o(i._Znwj) for i._Znwj
    new.o(.ARM.exidx) refers to unwind_pr0.o(.text) for __aeabi_unwind_cpp_pr0
    new.o(.ARM.exidx) refers to new.o(.ARM.extab) for .extab._Znwj
    new.o(.ARM.extab) refers to arm_callunex_noexceptions.o(.text) for __cxa_call_unexpected
    new.o(.ARM.extab) refers to bad_alloc_dtor.o(.constdata__ZTISt9bad_alloc) for typeinfo for std::bad_alloc
    arm_callunex_noexceptions.o(.ARM.exidx) refers to arm_callunex_noexceptions.o(.text) for .text
    bad_alloc_dtor.o(i._ZNSt9bad_allocD0Ev) refers to bad_alloc_dtor.o(i._ZNSt9bad_allocD1Ev) for std::bad_alloc::~bad_alloc()
    bad_alloc_dtor.o(i._ZNSt9bad_allocD0Ev) refers to delete.o(i._ZdlPv) for operator delete (void*)
    bad_alloc_dtor.o(.ARM.exidx) refers to bad_alloc_dtor.o(i._ZNSt9bad_allocD1Ev) for i._ZNSt9bad_allocD1Ev
    bad_alloc_dtor.o(.ARM.exidx) refers to bad_alloc_dtor.o(i._ZNSt9bad_allocD0Ev) for i._ZNSt9bad_allocD0Ev
    type_info_dtor.o(.ARM.exidx) refers to type_info_dtor.o(i._ZNSt9type_infoD1Ev) for i._ZNSt9type_infoD1Ev
    type_info_dtor.o(.ARM.exidx) refers to type_info_dtor.o(i._ZNSt9type_infoD0Ev) for i._ZNSt9type_infoD0Ev
    arm_exceptions_callterm.o(.text) refers to arm_exceptions_globs.o(.text) for __cxa_get_globals
    arm_exceptions_callterm.o(.text) refers to arm_exceptions_support.o(.text) for __ARM::is_foreign_exception(_Unwind_Control_Block*)
    arm_exceptions_callterm.o(.text) refers to arm_exceptions_terminate.o(.text) for std::terminate()
    arm_exceptions_callterm.o(.ARM.exidx) refers to arm_exceptions_callterm.o(.text) for .text
    unwind_pr0.o(.text) refers to unwind_prcommon.o(.text) for __ARM_unwind_cpp_prcommon
    unwind_pr0.o(.ARM.exidx) refers to unwind_pr0.o(.text) for .text
    dcmpi.o(x$fpl$dcmpinf) refers (Special) to usenofp.o(x$fpl$usenofp) for __I$use$fp
    dnaninf.o(x$fpl$dnaninf) refers (Special) to usenofp.o(x$fpl$usenofp) for __I$use$fp
    dretinf.o(x$fpl$dretinf) refers (Special) to usenofp.o(x$fpl$usenofp) for __I$use$fp
    fnaninf.o(x$fpl$fnaninf) refers (Special) to usenofp.o(x$fpl$usenofp) for __I$use$fp
    fretinf.o(x$fpl$fretinf) refers (Special) to usenofp.o(x$fpl$usenofp) for __I$use$fp
    sys_command.o(.text) refers (Special) to use_no_semi.o(.text) for __I$use$semihosting
    sys_command.o(.text) refers (Special) to indicate_semi.o(.text) for __semihosting_library_function
    libspace.o(.text) refers to libspace.o(.bss) for __libspace_start
    __rtentry2.o(.ARM.Collect$$rtentry$$00000008) refers to boardinit2.o(.text) for _platform_post_stackheap_init
    __rtentry2.o(.ARM.Collect$$rtentry$$0000000A) refers to libinit.o(.ARM.Collect$$libinit$$00000000) for __rt_lib_init
    __rtentry2.o(.ARM.Collect$$rtentry$$0000000B) refers to boardinit3.o(.text) for _platform_post_lib_init
    __rtentry2.o(.ARM.Collect$$rtentry$$0000000D) refers to main.o(i.main) for main
    __rtentry2.o(.ARM.Collect$$rtentry$$0000000D) refers to exit.o(.text) for exit
    __rtentry2.o(.ARM.exidx) refers to __rtentry2.o(.ARM.Collect$$rtentry$$00000001) for .ARM.Collect$$rtentry$$00000001
    __rtentry2.o(.ARM.exidx) refers to __rtentry2.o(.ARM.Collect$$rtentry$$00000008) for .ARM.Collect$$rtentry$$00000008
    __rtentry2.o(.ARM.exidx) refers to __rtentry2.o(.ARM.Collect$$rtentry$$0000000A) for .ARM.Collect$$rtentry$$0000000A
    __rtentry2.o(.ARM.exidx) refers to __rtentry2.o(.ARM.Collect$$rtentry$$0000000B) for .ARM.Collect$$rtentry$$0000000B
    __rtentry2.o(.ARM.exidx) refers to __rtentry2.o(.ARM.Collect$$rtentry$$0000000D) for .ARM.Collect$$rtentry$$0000000D
    __rtentry4.o(.ARM.Collect$$rtentry$$00000004) refers to sys_stackheap_outer.o(.text) for __user_setup_stackheap
    __rtentry4.o(.ARM.exidx) refers to __rtentry4.o(.ARM.Collect$$rtentry$$00000004) for .ARM.Collect$$rtentry$$00000004
    rt_div0.o(.text) refers to defsig_fpe_outer.o(.text) for __rt_SIGFPE
    rt_raise.o(.text) refers to __raise.o(.text) for __raise
    rt_raise.o(.text) refers to sys_exit.o(.text) for _sys_exit
    rt_new_handler_addr.o(.text) refers to rt_new_handler_addr.o(.bss) for __rt_new_handler_addr_data
    rt_new_handler_addr_intlibspace.o(.text) refers to libspace.o(.bss) for __libspace_start
    maybetermalloc2.o(.emb_text) refers (Special) to term_alloc.o(.text) for _terminate_alloc
    h1_extend.o(.text) refers to h1_free.o(.text) for free
    h1_extend_mt.o(.text) refers to h1_free_mt.o(.text) for _free_internal
    _printf_fp_infnan.o(.text) refers (Weak) to _printf_pad.o(.text) for _printf_pre_padding
    _printf_fp_infnan.o(.text) refers (Weak) to _printf_pad.o(.text) for _printf_post_padding
    _printf_char.o(.text) refers (Weak) to _printf_str.o(.text) for _printf_str
    _printf_wchar.o(.text) refers (Weak) to _printf_wctomb.o(.text) for _printf_wctomb
    _strtoul.o(.text) refers to _chval.o(.text) for _chval
    _strtoul.o(.text) refers to rt_errno_addr_intlibspace.o(.text) for __aeabi_errno_addr
    bigflt0.o(.text) refers (Special) to usenofp.o(x$fpl$usenofp) for __I$use$fp
    bigflt0.o(.text) refers to btod.o(CL$$btod_emul) for _btod_emul
    bigflt0.o(.text) refers to btod.o(CL$$btod_ediv) for _btod_ediv
    bigflt0.o(.text) refers to bigflt0.o(.constdata) for .constdata
    bigflt0.o(.constdata) refers (Special) to usenofp.o(x$fpl$usenofp) for __I$use$fp
    btod.o(CL$$btod_d2e) refers (Special) to usenofp.o(x$fpl$usenofp) for __I$use$fp
    btod.o(CL$$btod_d2e) refers to btod.o(CL$$btod_d2e_norm_op1) for _d2e_norm_op1
    btod.o(CL$$btod_d2e_norm_op1) refers (Special) to usenofp.o(x$fpl$usenofp) for __I$use$fp
    btod.o(CL$$btod_d2e_norm_op1) refers to btod.o(CL$$btod_d2e_denorm_low) for _d2e_denorm_low
    btod.o(CL$$btod_d2e_denorm_low) refers (Special) to usenofp.o(x$fpl$usenofp) for __I$use$fp
    btod.o(CL$$btod_emul) refers (Special) to usenofp.o(x$fpl$usenofp) for __I$use$fp
    btod.o(CL$$btod_emul) refers to btod.o(CL$$btod_mult_common) for __btod_mult_common
    btod.o(CL$$btod_emul) refers to btod.o(CL$$btod_e2e) for _e2e
    btod.o(CL$$btod_ediv) refers (Special) to usenofp.o(x$fpl$usenofp) for __I$use$fp
    btod.o(CL$$btod_ediv) refers to btod.o(CL$$btod_div_common) for __btod_div_common
    btod.o(CL$$btod_ediv) refers to btod.o(CL$$btod_e2e) for _e2e
    btod.o(CL$$btod_emuld) refers (Special) to usenofp.o(x$fpl$usenofp) for __I$use$fp
    btod.o(CL$$btod_emuld) refers to btod.o(CL$$btod_mult_common) for __btod_mult_common
    btod.o(CL$$btod_emuld) refers to btod.o(CL$$btod_e2d) for _e2d
    btod.o(CL$$btod_edivd) refers (Special) to usenofp.o(x$fpl$usenofp) for __I$use$fp
    btod.o(CL$$btod_edivd) refers to btod.o(CL$$btod_div_common) for __btod_div_common
    btod.o(CL$$btod_edivd) refers to btod.o(CL$$btod_e2d) for _e2d
    btod.o(CL$$btod_e2e) refers (Special) to usenofp.o(x$fpl$usenofp) for __I$use$fp
    btod.o(CL$$btod_e2d) refers (Special) to usenofp.o(x$fpl$usenofp) for __I$use$fp
    btod.o(CL$$btod_e2d) refers to btod.o(CL$$btod_e2e) for _e2e
    btod.o(CL$$btod_mult_common) refers (Special) to usenofp.o(x$fpl$usenofp) for __I$use$fp
    btod.o(CL$$btod_div_common) refers (Special) to usenofp.o(x$fpl$usenofp) for __I$use$fp
    _wcrtomb.o(.text) refers to rt_ctype_table.o(.text) for __rt_ctype_table
    lc_numeric_c.o(locale$$data) refers (Special) to libinit2.o(.ARM.Collect$$libinit$$00000016) for __rt_lib_init_lc_numeric_2
    lc_numeric_c.o(locale$$code) refers (Special) to libinit2.o(.ARM.Collect$$libinit$$00000016) for __rt_lib_init_lc_numeric_2
    lc_numeric_c.o(locale$$code) refers to strcmpv7m.o(.text) for strcmp
    lc_numeric_c.o(locale$$code) refers to lc_numeric_c.o(locale$$data) for __lcnum_c_name
    defsig_exit.o(.text) refers to sys_exit.o(.text) for _sys_exit
    defsig_rtmem_outer.o(.text) refers to defsig_rtmem_inner.o(.text) for __rt_SIGRTMEM_inner
    defsig_rtmem_outer.o(.text) refers to defsig_exit.o(.text) for __sig_exit
    defsig_rtmem_formal.o(.text) refers to rt_raise.o(.text) for __rt_raise
    defsig_pvfn_inner.o(.text) refers to defsig_general.o(.text) for __default_signal_display
    heapauxa.o(.text) refers to heapauxa.o(.data) for .data
    argv_veneer.o(.emb_text) refers to no_argv.o(.text) for __ARM_get_argv
    libshutdown2.o(.ARM.Collect$$libshutdown$$00000001) refers (Weak) to cxa_finalize.o(.text) for __cxa_finalize
    libshutdown2.o(.ARM.Collect$$libshutdown$$0000000D) refers (Weak) to term_alloc.o(.text) for _terminate_alloc
    arm_begincatch_noexceptions.o(.ARM.exidx) refers to arm_begincatch_noexceptions.o(.text) for .text
    arm_newhandler_noexceptions.o(.text) refers to arm_exceptions_terminate.o(.text) for std::terminate()
    arm_newhandler_noexceptions.o(.ARM.exidx) refers to arm_newhandler_noexceptions.o(.text) for .text
    bad_alloc_what.o(.ARM.exidx) refers to bad_alloc_what.o(i._ZNKSt9bad_alloc4whatEv) for i._ZNKSt9bad_alloc4whatEv
    exception_dtor.o(i._ZNSt9exceptionD0Ev) refers to delete.o(i._ZdlPv) for operator delete (void*)
    exception_dtor.o(.ARM.exidx) refers to exception_dtor.o(i._ZNSt9exceptionD1Ev) for i._ZNSt9exceptionD1Ev
    exception_dtor.o(.ARM.exidx) refers to exception_dtor.o(i._ZNSt9exceptionD0Ev) for i._ZNSt9exceptionD0Ev
    arm_exceptions_terminate.o(.text) refers to arm_exceptions_globs.o(.text) for __cxa_get_globals
    arm_exceptions_terminate.o(.text) refers to abort.o(.text) for abort
    arm_exceptions_terminate.o(.ARM.exidx) refers to arm_exceptions_terminate.o(.text) for .text
    arm_exceptions_support.o(.text) refers to arm_exceptions_support.o(.constdata) for .constdata
    arm_exceptions_support.o(.ARM.exidx) refers to arm_exceptions_support.o(.text) for .text
    arm_exceptions_globs.o(.text) refers to abort.o(.text) for abort
    arm_exceptions_globs.o(.text) refers to rt_eh_globals_addr_intlibspace.o(.text) for __rt_eh_globals_addr
    arm_exceptions_globs.o(.text) refers to h1_alloc.o(.text) for malloc
    arm_exceptions_globs.o(.text) refers to arm_exceptions_mem.o(.text) for __ARM_exceptions_buffer_init
    arm_exceptions_globs.o(.ARM.exidx) refers to arm_exceptions_globs.o(.text) for .text
    unwind_prcommon.o(.text) refers to unwinder.o(.text) for _Unwind_VRS_Get
    unwind_prcommon.o(.text) refers to unwind_activity.o(.emb_text) for _Unwind_Activity
    unwind_prcommon.o(.text) refers (Weak) to arm_callunex_noexceptions.o(.text) for __cxa_call_unexpected
    unwind_prcommon.o(.ARM.exidx) refers to unwind_prcommon.o(.text) for .text
    istatus.o(x$fpl$ieeestatus) refers (Special) to usenofp.o(x$fpl$usenofp) for __I$use$fp
    scanf1.o(x$fpl$scanf1) refers to scanf_fp.o(.text) for _scanf_really_real
    fpclassify.o(i.__ARM_fpclassify) refers (Special) to usenofp.o(x$fpl$usenofp) for __I$use$fp
    sys_exit.o(.text) refers (Special) to use_no_semi.o(.text) for __I$use$semihosting
    sys_exit.o(.text) refers (Special) to indicate_semi.o(.text) for __semihosting_library_function
    sys_stackheap_outer.o(.text) refers to libspace.o(.text) for __user_perproc_libspace
    sys_stackheap_outer.o(.text) refers to startup_stm32f411xe.o(.text) for __user_initial_stackheap
    rt_eh_globals_addr.o(.text) refers to rt_eh_globals_addr.o(.bss) for __rt_eh_globals_addr_data
    rt_eh_globals_addr_intlibspace.o(.text) refers to libspace.o(.bss) for __libspace_start
    term_alloc.o(.text) refers (Special) to libshutdown2.o(.ARM.Collect$$libshutdown$$0000000E) for __rt_lib_shutdown_heap_2
    term_alloc.o(.text) refers to rt_heap_descriptor_intlibspace.o(.text) for __rt_heap_descriptor
    term_alloc.o(.text) refers to h1_final.o(.text) for __Heap_Finalize
    scanf_fp.o(.text) refers (Special) to usenofp.o(x$fpl$usenofp) for __I$use$fp
    scanf_fp.o(.text) refers (Special) to lc_numeric_c.o(locale$$code) for _get_lc_numeric
    scanf_fp.o(.text) refers to rt_errno_addr_intlibspace.o(.text) for __aeabi_errno_addr
    scanf_fp.o(.text) refers to istatus.o(x$fpl$ieeestatus) for __ieee_status
    scanf_fp.o(.text) refers to bigflt0.o(.text) for _btod_etento
    scanf_fp.o(.text) refers to btod.o(CL$$btod_emuld) for _btod_emuld
    scanf_fp.o(.text) refers to btod.o(CL$$btod_edivd) for _btod_edivd
    scanf_fp.o(.text) refers to rt_locale_intlibspace.o(.text) for __rt_locale
    scanf_fp.o(.text) refers to scanf2.o(x$fpl$scanf2) for _scanf_infnan
    scanf_fp.o(.text) refers to __printf_wp.o(i._is_digit) for _is_digit
    scanf_fp.o(.text) refers to fpconst.o(c$$dmax) for __dbl_max
    scanf_fp.o(.text) refers to fpconst.o(c$$dinf) for __huge_val
    scanf_fp.o(.text) refers to narrow.o(i.__mathlib_narrow) for __mathlib_narrow
    exit.o(.text) refers to rtexit.o(.ARM.Collect$$rtexit$$00000000) for __rt_exit
    abort.o(.text) refers to defsig_abrt_outer.o(.text) for __rt_SIGABRT
    abort.o(.text) refers (Weak) to libshutdown.o(.ARM.Collect$$libshutdown$$00000000) for __rt_lib_shutdown
    abort.o(.text) refers to sys_exit.o(.text) for _sys_exit
    __raise.o(.text) refers to defsig.o(CL$$defsig) for __default_signal_handler
    defsig_general.o(.text) refers to sys_wrch.o(.text) for _ttywrch
    defsig_fpe_outer.o(.text) refers to defsig_fpe_inner.o(.text) for __rt_SIGFPE_inner
    defsig_fpe_outer.o(.text) refers to defsig_exit.o(.text) for __sig_exit
    defsig_fpe_formal.o(.text) refers to rt_raise.o(.text) for __rt_raise
    defsig_rtmem_inner.o(.text) refers to defsig_general.o(.text) for __default_signal_display
    _get_argv_nomalloc.o(.text) refers (Special) to hrguard.o(.text) for __heap_region$guard
    _get_argv_nomalloc.o(.text) refers to defsig_rtmem_outer.o(.text) for __rt_SIGRTMEM
    _get_argv_nomalloc.o(.text) refers to sys_command.o(.text) for _sys_command_string
    libinit.o(.ARM.Collect$$libinit$$00000000) refers (Special) to libinit2.o(.ARM.Collect$$libinit$$0000002E) for __rt_lib_init_alloca_1
    libinit.o(.ARM.Collect$$libinit$$00000000) refers (Special) to libinit2.o(.ARM.Collect$$libinit$$0000002C) for __rt_lib_init_argv_1
    libinit.o(.ARM.Collect$$libinit$$00000000) refers (Special) to libinit2.o(.ARM.Collect$$libinit$$0000001B) for __rt_lib_init_atexit_1
    libinit.o(.ARM.Collect$$libinit$$00000000) refers (Special) to libinit2.o(.ARM.Collect$$libinit$$00000021) for __rt_lib_init_clock_1
    libinit.o(.ARM.Collect$$libinit$$00000000) refers (Special) to libinit2.o(.ARM.Collect$$libinit$$00000032) for __rt_lib_init_cpp_1
    libinit.o(.ARM.Collect$$libinit$$00000000) refers (Special) to libinit2.o(.ARM.Collect$$libinit$$00000030) for __rt_lib_init_exceptions_1
    libinit.o(.ARM.Collect$$libinit$$00000000) refers (Special) to libinit2.o(.ARM.Collect$$libinit$$00000001) for __rt_lib_init_fp_1
    libinit.o(.ARM.Collect$$libinit$$00000000) refers (Special) to libinit2.o(.ARM.Collect$$libinit$$0000001F) for __rt_lib_init_fp_trap_1
    libinit.o(.ARM.Collect$$libinit$$00000000) refers (Special) to libinit2.o(.ARM.Collect$$libinit$$00000023) for __rt_lib_init_getenv_1
    libinit.o(.ARM.Collect$$libinit$$00000000) refers (Special) to libinit2.o(.ARM.Collect$$libinit$$0000000A) for __rt_lib_init_heap_1
    libinit.o(.ARM.Collect$$libinit$$00000000) refers (Special) to libinit2.o(.ARM.Collect$$libinit$$00000011) for __rt_lib_init_lc_collate_1
    libinit.o(.ARM.Collect$$libinit$$00000000) refers (Special) to libinit2.o(.ARM.Collect$$libinit$$00000013) for __rt_lib_init_lc_ctype_1
    libinit.o(.ARM.Collect$$libinit$$00000000) refers (Special) to libinit2.o(.ARM.Collect$$libinit$$00000015) for __rt_lib_init_lc_monetary_1
    libinit.o(.ARM.Collect$$libinit$$00000000) refers (Special) to libinit2.o(.ARM.Collect$$libinit$$00000017) for __rt_lib_init_lc_numeric_1
    libinit.o(.ARM.Collect$$libinit$$00000000) refers (Special) to libinit2.o(.ARM.Collect$$libinit$$00000019) for __rt_lib_init_lc_time_1
    libinit.o(.ARM.Collect$$libinit$$00000000) refers (Special) to libinit2.o(.ARM.Collect$$libinit$$00000004) for __rt_lib_init_preinit_1
    libinit.o(.ARM.Collect$$libinit$$00000000) refers (Special) to libinit2.o(.ARM.Collect$$libinit$$0000000E) for __rt_lib_init_rand_1
    libinit.o(.ARM.Collect$$libinit$$00000000) refers (Special) to libinit2.o(.ARM.Collect$$libinit$$00000033) for __rt_lib_init_return
    libinit.o(.ARM.Collect$$libinit$$00000000) refers (Special) to libinit2.o(.ARM.Collect$$libinit$$0000001D) for __rt_lib_init_signal_1
    libinit.o(.ARM.Collect$$libinit$$00000000) refers (Special) to libinit2.o(.ARM.Collect$$libinit$$00000025) for __rt_lib_init_stdio_1
    libinit.o(.ARM.Collect$$libinit$$00000000) refers (Special) to libinit2.o(.ARM.Collect$$libinit$$0000000C) for __rt_lib_init_user_alloc_1
    exception_what.o(.ARM.exidx) refers to exception_what.o(i._ZNKSt9exception4whatEv) for i._ZNKSt9exception4whatEv
    arm_exceptions_mem.o(.text) refers to h1_alloc.o(.text) for malloc
    arm_exceptions_mem.o(.ARM.exidx) refers to arm_exceptions_mem.o(.text) for .text
    unwinder.o(.emb_text) refers to unwinder.o(.text) for __ARM_Unwind_RaiseException
    unwinder.o(.text) refers to bsearchnoex.o(.text) for bsearch
    unwinder.o(.text) refers to unwind_activity.o(.emb_text) for _Unwind_Activity
    unwinder.o(.text) refers to abort.o(.text) for abort
    unwinder.o(.text) refers to unwinder.o(.emb_text) for __ARM_Unwind_VRS_corerestore
    unwinder.o(.text) refers to h1_alloc.o(.text) for malloc
    unwinder.o(.text) refers to rt_memcpy_w.o(.text) for __aeabi_memcpy4
    unwinder.o(.text) refers to h1_free.o(.text) for free
    unwinder.o(.text) refers (Weak) to unwind_pr0.o(.text) for __aeabi_unwind_cpp_pr0
    unwinder.o(.ARM.exidx) refers to unwinder.o(.text) for .text
    sys_wrch.o(.text) refers (Special) to use_no_semi.o(.text) for __I$use$semihosting
    sys_wrch.o(.text) refers (Special) to indicate_semi.o(.text) for __semihosting_library_function
    rtexit.o(.ARM.Collect$$rtexit$$00000000) refers (Special) to rtexit2.o(.ARM.Collect$$rtexit$$00000004) for __rt_exit_exit
    rtexit.o(.ARM.Collect$$rtexit$$00000000) refers (Special) to rtexit2.o(.ARM.Collect$$rtexit$$00000003) for __rt_exit_ls
    rtexit.o(.ARM.Collect$$rtexit$$00000000) refers (Special) to rtexit2.o(.ARM.Collect$$rtexit$$00000002) for __rt_exit_prels_1
    rtexit.o(.ARM.exidx) refers (Special) to rtexit2.o(.ARM.Collect$$rtexit$$00000004) for __rt_exit_exit
    rtexit.o(.ARM.exidx) refers (Special) to rtexit2.o(.ARM.Collect$$rtexit$$00000003) for __rt_exit_ls
    rtexit.o(.ARM.exidx) refers (Special) to rtexit2.o(.ARM.Collect$$rtexit$$00000002) for __rt_exit_prels_1
    rtexit.o(.ARM.exidx) refers to rtexit.o(.ARM.Collect$$rtexit$$00000000) for .ARM.Collect$$rtexit$$00000000
    defsig_abrt_outer.o(.text) refers to defsig_abrt_inner.o(.text) for __rt_SIGABRT_inner
    defsig_abrt_outer.o(.text) refers to defsig_exit.o(.text) for __sig_exit
    defsig_abrt_formal.o(.text) refers to rt_raise.o(.text) for __rt_raise
    defsig_fpe_inner.o(.text) refers to defsig_general.o(.text) for __default_signal_display
    defsig.o(CL$$defsig) refers to defsig_abrt_inner.o(.text) for __rt_SIGABRT_inner
    defsig.o(CL$$defsig) refers to defsig_fpe_inner.o(.text) for __rt_SIGFPE_inner
    defsig.o(CL$$defsig) refers to defsig_rtmem_inner.o(.text) for __rt_SIGRTMEM_inner
    defsig.o(CL$$defsig) refers to defsig_pvfn_inner.o(.text) for __rt_SIGPVFN_inner
    fpconst.o(c$$dinf) refers (Special) to usenofp.o(x$fpl$usenofp) for __I$use$fp
    fpconst.o(c$$dnan) refers (Special) to usenofp.o(x$fpl$usenofp) for __I$use$fp
    fpconst.o(c$$finf) refers (Special) to usenofp.o(x$fpl$usenofp) for __I$use$fp
    fpconst.o(c$$dmax) refers (Special) to usenofp.o(x$fpl$usenofp) for __I$use$fp
    scanf2.o(x$fpl$scanf2) refers to scanf_hexfp.o(.text) for _scanf_really_hex_real
    scanf2.o(x$fpl$scanf2) refers to scanf_infnan.o(.text) for _scanf_really_infnan
    scanf2b.o(x$fpl$scanf2) refers to scanf_hexfp.o(.text) for _scanf_really_hex_real
    scanf2b.o(x$fpl$scanf2) refers to scanf_infnan.o(.text) for _scanf_really_infnan
    narrow.o(i.__hardfp___mathlib_tofloat) refers (Special) to usenofp.o(x$fpl$usenofp) for __I$use$fp
    narrow.o(i.__hardfp___mathlib_tofloat) refers to frexp.o(i.frexp) for frexp
    narrow.o(i.__hardfp___mathlib_tofloat) refers to deqf.o(x$fpl$deqf) for __aeabi_cdcmpeq
    narrow.o(i.__hardfp___mathlib_tofloat) refers to d2f.o(x$fpl$d2f) for __aeabi_d2f
    narrow.o(i.__hardfp___mathlib_tofloat) refers to _rserrno.o(.text) for __set_errno
    narrow.o(i.__hardfp___mathlib_tofloat) refers to drleqf.o(x$fpl$drleqf) for __aeabi_cdrcmple
    narrow.o(i.__mathlib_narrow) refers (Special) to usenofp.o(x$fpl$usenofp) for __I$use$fp
    narrow.o(i.__mathlib_narrow) refers to narrow.o(i.__hardfp___mathlib_tofloat) for __hardfp___mathlib_tofloat
    narrow.o(i.__mathlib_tofloat) refers (Special) to usenofp.o(x$fpl$usenofp) for __I$use$fp
    narrow.o(i.__mathlib_tofloat) refers to narrow.o(i.__hardfp___mathlib_tofloat) for __hardfp___mathlib_tofloat
    narrow.o(i.__softfp___mathlib_tofloat) refers (Special) to usenofp.o(x$fpl$usenofp) for __I$use$fp
    narrow.o(i.__softfp___mathlib_tofloat) refers to narrow.o(i.__hardfp___mathlib_tofloat) for __hardfp___mathlib_tofloat
    rtexit2.o(.ARM.Collect$$rtexit$$00000003) refers to libshutdown.o(.ARM.Collect$$libshutdown$$00000000) for __rt_lib_shutdown
    rtexit2.o(.ARM.Collect$$rtexit$$00000004) refers to sys_exit.o(.text) for _sys_exit
    rtexit2.o(.ARM.exidx) refers to rtexit2.o(.ARM.Collect$$rtexit$$00000001) for .ARM.Collect$$rtexit$$00000001
    rtexit2.o(.ARM.exidx) refers to rtexit2.o(.ARM.Collect$$rtexit$$00000003) for .ARM.Collect$$rtexit$$00000003
    rtexit2.o(.ARM.exidx) refers to rtexit2.o(.ARM.Collect$$rtexit$$00000004) for .ARM.Collect$$rtexit$$00000004
    scanf_hexfp.o(.text) refers to _chval.o(.text) for _chval
    scanf_hexfp.o(.text) refers to llshl.o(.text) for __aeabi_llsl
    scanf_hexfp.o(.text) refers to ldexp.o(i.__support_ldexp) for __support_ldexp
    scanf_hexfp.o(.text) refers to narrow.o(i.__mathlib_narrow) for __mathlib_narrow
    defsig_abrt_inner.o(.text) refers to defsig_general.o(.text) for __default_signal_display
    defsig_rtred_inner.o(.text) refers to defsig_general.o(.text) for __default_signal_display
    defsig_stak_inner.o(.text) refers to defsig_general.o(.text) for __default_signal_display
    defsig_cppl_inner.o(.text) refers to defsig_general.o(.text) for __default_signal_display
    defsig_segv_inner.o(.text) refers to defsig_general.o(.text) for __default_signal_display
    defsig_other.o(.text) refers to defsig_general.o(.text) for __default_signal_display
    frexp.o(i.__hardfp_frexp) refers (Special) to usenofp.o(x$fpl$usenofp) for __I$use$fp
    frexp.o(i.__hardfp_frexp) refers to dmul.o(x$fpl$dmul) for __aeabi_dmul
    frexp.o(i.__softfp_frexp) refers (Special) to usenofp.o(x$fpl$usenofp) for __I$use$fp
    frexp.o(i.__softfp_frexp) refers to dmul.o(x$fpl$dmul) for __aeabi_dmul
    frexp.o(i.frexp) refers (Special) to usenofp.o(x$fpl$usenofp) for __I$use$fp
    frexp.o(i.frexp) refers to dmul.o(x$fpl$dmul) for __aeabi_dmul
    libshutdown.o(.ARM.Collect$$libshutdown$$00000000) refers (Special) to libshutdown2.o(.ARM.Collect$$libshutdown$$00000002) for __rt_lib_shutdown_cpp_1
    libshutdown.o(.ARM.Collect$$libshutdown$$00000000) refers (Special) to libshutdown2.o(.ARM.Collect$$libshutdown$$00000007) for __rt_lib_shutdown_fp_trap_1
    libshutdown.o(.ARM.Collect$$libshutdown$$00000000) refers (Special) to libshutdown2.o(.ARM.Collect$$libshutdown$$0000000F) for __rt_lib_shutdown_heap_1
    libshutdown.o(.ARM.Collect$$libshutdown$$00000000) refers (Special) to libshutdown2.o(.ARM.Collect$$libshutdown$$00000010) for __rt_lib_shutdown_return
    libshutdown.o(.ARM.Collect$$libshutdown$$00000000) refers (Special) to libshutdown2.o(.ARM.Collect$$libshutdown$$0000000A) for __rt_lib_shutdown_signal_1
    libshutdown.o(.ARM.Collect$$libshutdown$$00000000) refers (Special) to libshutdown2.o(.ARM.Collect$$libshutdown$$00000004) for __rt_lib_shutdown_stdio_1
    libshutdown.o(.ARM.Collect$$libshutdown$$00000000) refers (Special) to libshutdown2.o(.ARM.Collect$$libshutdown$$0000000C) for __rt_lib_shutdown_user_alloc_1
    ldexp.o(i.__hardfp_ldexp) refers (Special) to usenofp.o(x$fpl$usenofp) for __I$use$fp
    ldexp.o(i.__hardfp_ldexp) refers to deqf.o(x$fpl$deqf) for __aeabi_cdcmpeq
    ldexp.o(i.__hardfp_ldexp) refers to scalbn.o(x$fpl$scalbn) for __ARM_scalbn
    ldexp.o(i.__hardfp_ldexp) refers to _rserrno.o(.text) for __set_errno
    ldexp.o(i.__hardfp_ldexp) refers to dunder.o(i.__mathlib_dbl_underflow) for __mathlib_dbl_underflow
    ldexp.o(i.__hardfp_ldexp) refers to dunder.o(i.__mathlib_dbl_overflow) for __mathlib_dbl_overflow
    ldexp.o(i.__softfp_ldexp) refers (Special) to usenofp.o(x$fpl$usenofp) for __I$use$fp
    ldexp.o(i.__softfp_ldexp) refers to ldexp.o(i.__hardfp_ldexp) for __hardfp_ldexp
    ldexp.o(i.__support_ldexp) refers (Special) to usenofp.o(x$fpl$usenofp) for __I$use$fp
    ldexp.o(i.__support_ldexp) refers to ldexp.o(i.__hardfp_ldexp) for __hardfp_ldexp
    ldexp.o(i.ldexp) refers (Special) to usenofp.o(x$fpl$usenofp) for __I$use$fp
    ldexp.o(i.ldexp) refers to ldexp.o(i.__hardfp_ldexp) for __hardfp_ldexp
    ldexp_x.o(i.____hardfp_ldexp$lsc) refers (Special) to usenofp.o(x$fpl$usenofp) for __I$use$fp
    ldexp_x.o(i.____hardfp_ldexp$lsc) refers to deqf.o(x$fpl$deqf) for __aeabi_cdcmpeq
    ldexp_x.o(i.____hardfp_ldexp$lsc) refers to scalbn.o(x$fpl$scalbn) for __ARM_scalbn
    ldexp_x.o(i.____hardfp_ldexp$lsc) refers to _rserrno.o(.text) for __set_errno
    ldexp_x.o(i.____hardfp_ldexp$lsc) refers to qnan.o(.constdata) for __mathlib_zero
    ldexp_x.o(i.____softfp_ldexp$lsc) refers (Special) to usenofp.o(x$fpl$usenofp) for __I$use$fp
    ldexp_x.o(i.____softfp_ldexp$lsc) refers to ldexp_x.o(i.____hardfp_ldexp$lsc) for ____hardfp_ldexp$lsc
    ldexp_x.o(i.____support_ldexp$lsc) refers (Special) to usenofp.o(x$fpl$usenofp) for __I$use$fp
    ldexp_x.o(i.____support_ldexp$lsc) refers to ldexp_x.o(i.____hardfp_ldexp$lsc) for ____hardfp_ldexp$lsc
    ldexp_x.o(i.__ldexp$lsc) refers (Special) to usenofp.o(x$fpl$usenofp) for __I$use$fp
    ldexp_x.o(i.__ldexp$lsc) refers to ldexp_x.o(i.____hardfp_ldexp$lsc) for ____hardfp_ldexp$lsc
    scalbn.o(x$fpl$scalbn) refers (Special) to usenofp.o(x$fpl$usenofp) for __I$use$fp
    scalbn.o(x$fpl$scalbn) refers to dcheck1.o(x$fpl$dcheck1) for __fpl_dcheck_NaN1
    dunder.o(i.__mathlib_dbl_divzero) refers to ddiv.o(x$fpl$ddiv) for __aeabi_ddiv
    dunder.o(i.__mathlib_dbl_infnan) refers to daddsub_clz.o(x$fpl$dadd) for __aeabi_dadd
    dunder.o(i.__mathlib_dbl_infnan2) refers to daddsub_clz.o(x$fpl$dadd) for __aeabi_dadd
    dunder.o(i.__mathlib_dbl_invalid) refers to ddiv.o(x$fpl$ddiv) for __aeabi_ddiv
    dunder.o(i.__mathlib_dbl_overflow) refers to dmul.o(x$fpl$dmul) for __aeabi_dmul
    dunder.o(i.__mathlib_dbl_posinfnan) refers to dmul.o(x$fpl$dmul) for __aeabi_dmul
    dunder.o(i.__mathlib_dbl_underflow) refers to dmul.o(x$fpl$dmul) for __aeabi_dmul
    qnan.o(.constdata) refers (Special) to usenofp.o(x$fpl$usenofp) for __I$use$fp
    dcheck1.o(x$fpl$dcheck1) refers (Special) to usenofp.o(x$fpl$usenofp) for __I$use$fp
    dcheck1.o(x$fpl$dcheck1) refers to retnan.o(x$fpl$retnan) for __fpl_return_NaN
    retnan.o(x$fpl$retnan) refers (Special) to usenofp.o(x$fpl$usenofp) for __I$use$fp
    retnan.o(x$fpl$retnan) refers to trapv.o(x$fpl$trapveneer) for __fpl_cmpreturn
    trapv.o(x$fpl$trapveneer) refers (Special) to usenofp.o(x$fpl$usenofp) for __I$use$fp
    main.o(.ARM.exidx) refers to main.o(i._ZN3ros9Publisher7publishEPKNS_3MsgE) for i._ZN3ros9Publisher7publishEPKNS_3MsgE
    main.o(t._ZN3ros11NodeHandle_I15ArduinoHardwareLi25ELi25ELi512ELi512ENS_19FlashReadOutBuffer_EE3logEcPKc) refers to main.o(i._ZN3ros3MsgC2Ev) for ros::Msg::Msg__sub_object()
    main.o(t._ZN3ros11NodeHandle_I15ArduinoHardwareLi25ELi25ELi512ELi512ENS_19FlashReadOutBuffer_EE3logEcPKc) refers to main.o(.constdata__ZTVN14rosserial_msgs3LogE) for vtable for rosserial_msgs::Log
    main.o(t._ZN3ros11NodeHandle_I15ArduinoHardwareLi25ELi25ELi512ELi512ENS_19FlashReadOutBuffer_EE3logEcPKc) refers to main.o(.constdata__ZZN14rosserial_msgs3LogC1EvEs) for rosserial_msgs::Log::Log()::string
    main.o(.ARM.exidx) refers to main.o(t._ZN3ros11NodeHandle_I15ArduinoHardwareLi25ELi25ELi512ELi512ENS_19FlashReadOutBuffer_EE3logEcPKc) for t._ZN3ros11NodeHandle_I15ArduinoHardwareLi25ELi25ELi512ELi512ENS_19FlashReadOutBuffer_EE3logEcPKc
    main.o(i._ZN8std_msgs4TimeC1Ev) refers to main.o(i._ZN3ros3MsgC2Ev) for ros::Msg::Msg__sub_object()
    main.o(i._ZN8std_msgs4TimeC1Ev) refers to main.o(.constdata__ZTVN8std_msgs4TimeE) for vtable for std_msgs::Time
    main.o(.ARM.exidx) refers to main.o(i._ZN8std_msgs4TimeC1Ev) for i._ZN8std_msgs4TimeC1Ev
    main.o(t._ZN3ros11NodeHandle_I15ArduinoHardwareLi25ELi25ELi512ELi512ENS_19FlashReadOutBuffer_EE15requestSyncTimeEv) refers to main.o(i._ZN8std_msgs4TimeC1Ev) for std_msgs::Time::Time()
    main.o(t._ZN3ros11NodeHandle_I15ArduinoHardwareLi25ELi25ELi512ELi512ENS_19FlashReadOutBuffer_EE15requestSyncTimeEv) refers to main.o(i._ZN15ArduinoHardware4timeEv) for ArduinoHardware::time()
    main.o(.ARM.exidx) refers to main.o(t._ZN3ros11NodeHandle_I15ArduinoHardwareLi25ELi25ELi512ELi512ENS_19FlashReadOutBuffer_EE15requestSyncTimeEv) for t._ZN3ros11NodeHandle_I15ArduinoHardwareLi25ELi25ELi512ELi512ENS_19FlashReadOutBuffer_EE15requestSyncTimeEv
    main.o(.ARM.exidx) refers to main.o(t._ZN3ros3Msg8arrToVarIjPhEEvRT_T0_) for t._ZN3ros3Msg8arrToVarIjPhEEvRT_T0_
    main.o(i._ZN14rosserial_msgs20RequestParamResponse11deserializeEPh) refers to h1_realloc.o(.text) for realloc
    main.o(i._ZN14rosserial_msgs20RequestParamResponse11deserializeEPh) refers to main.o(t._ZN3ros3Msg8arrToVarIjPhEEvRT_T0_) for void ros::Msg::arrToVar<unsigned, unsigned char*>(T1&, T2)
    main.o(.ARM.exidx) refers to main.o(i._ZN14rosserial_msgs20RequestParamResponse11deserializeEPh) for i._ZN14rosserial_msgs20RequestParamResponse11deserializeEPh
    main.o(.ARM.exidx) refers to main.o(i._ZN8std_msgs4Time11deserializeEPh) for i._ZN8std_msgs4Time11deserializeEPh
    main.o(i._ZN3ros19FlashReadOutBuffer_D1Ev) refers to delete.o(i._ZdlPv) for operator delete (void*)
    main.o(i._ZN3ros19FlashReadOutBuffer_D1Ev) refers to main.o(.constdata__ZTVN3ros19FlashReadOutBuffer_E) for vtable for ros::FlashReadOutBuffer_
    main.o(.ARM.exidx) refers to main.o(i._ZN3ros19FlashReadOutBuffer_D1Ev) for i._ZN3ros19FlashReadOutBuffer_D1Ev
    main.o(.ARM.exidx) refers to main.o(i._ZN3ros19FlashReadOutBuffer_13readFromFlashEPK19__FlashStringHelper) for i._ZN3ros19FlashReadOutBuffer_13readFromFlashEPK19__FlashStringHelper
    main.o(i._ZN3ros19FlashReadOutBuffer_C1Ev) refers to array_new.o(i._Znaj) for operator new[] (unsigned)
    main.o(i._ZN3ros19FlashReadOutBuffer_C1Ev) refers to main.o(.constdata__ZTVN3ros21DefaultReadOutBuffer_E) for vtable for ros::DefaultReadOutBuffer_
    main.o(i._ZN3ros19FlashReadOutBuffer_C1Ev) refers to main.o(.constdata__ZTVN3ros19FlashReadOutBuffer_E) for vtable for ros::FlashReadOutBuffer_
    main.o(.ARM.exidx) refers to main.o(i._ZN3ros19FlashReadOutBuffer_C1Ev) for i._ZN3ros19FlashReadOutBuffer_C1Ev
    main.o(t._ZN3ros11NodeHandle_I15ArduinoHardwareLi25ELi25ELi512ELi512ENS_19FlashReadOutBuffer_EE15negotiateTopicsEv) refers to main.o(i._ZN3ros3MsgC2Ev) for ros::Msg::Msg__sub_object()
    main.o(t._ZN3ros11NodeHandle_I15ArduinoHardwareLi25ELi25ELi512ELi512ENS_19FlashReadOutBuffer_EE15negotiateTopicsEv) refers to main.o(i._ZN3ros19FlashReadOutBuffer_C1Ev) for ros::FlashReadOutBuffer_::FlashReadOutBuffer_()
    main.o(t._ZN3ros11NodeHandle_I15ArduinoHardwareLi25ELi25ELi512ELi512ENS_19FlashReadOutBuffer_EE15negotiateTopicsEv) refers to main.o(i._ZN3ros19FlashReadOutBuffer_11readMsgInfoEPKc) for ros::FlashReadOutBuffer_::readMsgInfo(const char*)
    main.o(t._ZN3ros11NodeHandle_I15ArduinoHardwareLi25ELi25ELi512ELi512ENS_19FlashReadOutBuffer_EE15negotiateTopicsEv) refers to main.o(t._ZN3ros11NodeHandle_I15ArduinoHardwareLi25ELi25ELi512ELi512ENS_19FlashReadOutBuffer_EE8logerrorIPKcEEvT_) for void ros::NodeHandle_<ArduinoHardware, (int)25, (int)25, (int)512, (int)512, ros::FlashReadOutBuffer_>::logerror<const char*>(T1)
    main.o(t._ZN3ros11NodeHandle_I15ArduinoHardwareLi25ELi25ELi512ELi512ENS_19FlashReadOutBuffer_EE15negotiateTopicsEv) refers to main.o(i._ZN3ros19FlashReadOutBuffer_D1Ev) for ros::FlashReadOutBuffer_::~FlashReadOutBuffer_()
    main.o(t._ZN3ros11NodeHandle_I15ArduinoHardwareLi25ELi25ELi512ELi512ENS_19FlashReadOutBuffer_EE15negotiateTopicsEv) refers to main.o(.constdata__ZTVN14rosserial_msgs9TopicInfoE) for vtable for rosserial_msgs::TopicInfo
    main.o(t._ZN3ros11NodeHandle_I15ArduinoHardwareLi25ELi25ELi512ELi512ENS_19FlashReadOutBuffer_EE15negotiateTopicsEv) refers to main.o(.constdata__ZZN14rosserial_msgs9TopicInfoC1EvEs) for rosserial_msgs::TopicInfo::TopicInfo()::string
    main.o(t._ZN3ros11NodeHandle_I15ArduinoHardwareLi25ELi25ELi512ELi512ENS_19FlashReadOutBuffer_EE15negotiateTopicsEv) refers to main.o(.constdata__ZZN3ros11NodeHandle_I15ArduinoHardwareLi25ELi25ELi512ELi512ENS_19FlashReadOutBuffer_EE15negotiateTopicsEvEs) for ros::NodeHandle_<ArduinoHardware, (int)25, (int)25, (int)512, (int)512, ros::FlashReadOutBuffer_>::negotiateTopics()::string
    main.o(t._ZN3ros11NodeHandle_I15ArduinoHardwareLi25ELi25ELi512ELi512ENS_19FlashReadOutBuffer_EE15negotiateTopicsEv) refers to main.o(.constdata__ZZN3ros11NodeHandle_I15ArduinoHardwareLi25ELi25ELi512ELi512ENS_19FlashReadOutBuffer_EE15negotiateTopicsEvEs_0) for ros::NodeHandle_<ArduinoHardware, (int)25, (int)25, (int)512, (int)512, ros::FlashReadOutBuffer_>::negotiateTopics()::string (instance 2)
    main.o(.ARM.exidx) refers to main.o(t._ZN3ros11NodeHandle_I15ArduinoHardwareLi25ELi25ELi512ELi512ENS_19FlashReadOutBuffer_EE15negotiateTopicsEv) for t._ZN3ros11NodeHandle_I15ArduinoHardwareLi25ELi25ELi512ELi512ENS_19FlashReadOutBuffer_EE15negotiateTopicsEv
    main.o(t._ZN3ros11NodeHandle_I15ArduinoHardwareLi25ELi25ELi512ELi512ENS_19FlashReadOutBuffer_EE8spinOnceEv) refers to main.o(i._ZN15ArduinoHardware4timeEv) for ArduinoHardware::time()
    main.o(t._ZN3ros11NodeHandle_I15ArduinoHardwareLi25ELi25ELi512ELi512ENS_19FlashReadOutBuffer_EE8spinOnceEv) refers to main.o(t._ZN3ros11NodeHandle_I15ArduinoHardwareLi25ELi25ELi512ELi512ENS_19FlashReadOutBuffer_EE15requestSyncTimeEv) for ros::NodeHandle_<ArduinoHardware, (int)25, (int)25, (int)512, (int)512, ros::FlashReadOutBuffer_>::requestSyncTime()
    main.o(t._ZN3ros11NodeHandle_I15ArduinoHardwareLi25ELi25ELi512ELi512ENS_19FlashReadOutBuffer_EE8spinOnceEv) refers to main.o(t._ZN3ros11NodeHandle_I15ArduinoHardwareLi25ELi25ELi512ELi512ENS_19FlashReadOutBuffer_EE15negotiateTopicsEv) for ros::NodeHandle_<ArduinoHardware, (int)25, (int)25, (int)512, (int)512, ros::FlashReadOutBuffer_>::negotiateTopics()
    main.o(t._ZN3ros11NodeHandle_I15ArduinoHardwareLi25ELi25ELi512ELi512ENS_19FlashReadOutBuffer_EE8spinOnceEv) refers to main.o(t._ZN3ros11NodeHandle_I15ArduinoHardwareLi25ELi25ELi512ELi512ENS_19FlashReadOutBuffer_EE8syncTimeEPh) for ros::NodeHandle_<ArduinoHardware, (int)25, (int)25, (int)512, (int)512, ros::FlashReadOutBuffer_>::syncTime(unsigned char*)
    main.o(t._ZN3ros11NodeHandle_I15ArduinoHardwareLi25ELi25ELi512ELi512ENS_19FlashReadOutBuffer_EE8spinOnceEv) refers to main.o(i._ZN14rosserial_msgs20RequestParamResponse11deserializeEPh) for rosserial_msgs::RequestParamResponse::deserialize(unsigned char*)
    main.o(.ARM.exidx) refers to main.o(t._ZN3ros11NodeHandle_I15ArduinoHardwareLi25ELi25ELi512ELi512ENS_19FlashReadOutBuffer_EE8spinOnceEv) for t._ZN3ros11NodeHandle_I15ArduinoHardwareLi25ELi25ELi512ELi512ENS_19FlashReadOutBuffer_EE8spinOnceEv
    main.o(.ARM.exidx) refers to main.o(t._ZN3ros11NodeHandle_I15ArduinoHardwareLi25ELi25ELi512ELi512ENS_19FlashReadOutBuffer_EE9advertiseERNS_9PublisherE) for t._ZN3ros11NodeHandle_I15ArduinoHardwareLi25ELi25ELi512ELi512ENS_19FlashReadOutBuffer_EE9advertiseERNS_9PublisherE
    main.o(i._ZN13geometry_msgs7Vector3C1Ev) refers to main.o(i._ZN3ros3MsgC2Ev) for ros::Msg::Msg__sub_object()
    main.o(i._ZN13geometry_msgs7Vector3C1Ev) refers to main.o(.constdata__ZTVN13geometry_msgs7Vector3E) for vtable for geometry_msgs::Vector3
    main.o(.ARM.exidx) refers to main.o(i._ZN13geometry_msgs7Vector3C1Ev) for i._ZN13geometry_msgs7Vector3C1Ev
    main.o(.ARM.exidx) refers to main.o(i._ZN3ros3Msg19serializeAvrFloat64EPhf) for i._ZN3ros3Msg19serializeAvrFloat64EPhf
    main.o(.ARM.exidx) refers to main.o(i._ZN3ros3Msg21deserializeAvrFloat64EPKhPf) for i._ZN3ros3Msg21deserializeAvrFloat64EPKhPf
    main.o(.ARM.exidx) refers to main.o(t._ZN3ros3Msg8varToArrIPhjEEvT_T0_) for t._ZN3ros3Msg8varToArrIPhjEEvT_T0_
    main.o(.ARM.exidx) refers to main.o(i._ZN3ros9PublisherC1EPKcPNS_3MsgEi) for i._ZN3ros9PublisherC1EPKcPNS_3MsgEi
    main.o(t._ZN3ros11NodeHandle_I15ArduinoHardwareLi25ELi25ELi512ELi512ENS_19FlashReadOutBuffer_EEC1Ev) refers to main.o(i._ZN3ros3MsgC2Ev) for ros::Msg::Msg__sub_object()
    main.o(t._ZN3ros11NodeHandle_I15ArduinoHardwareLi25ELi25ELi512ELi512ENS_19FlashReadOutBuffer_EEC1Ev) refers to main.o(.constdata__ZTVN3ros15NodeHandleBase_E) for vtable for ros::NodeHandleBase_
    main.o(t._ZN3ros11NodeHandle_I15ArduinoHardwareLi25ELi25ELi512ELi512ENS_19FlashReadOutBuffer_EEC1Ev) refers to main.o(.constdata__ZTVN3ros11NodeHandle_I15ArduinoHardwareLi25ELi25ELi512ELi512ENS_19FlashReadOutBuffer_EEE) for vtable for ros::NodeHandle_<ArduinoHardware, (int)25, (int)25, (int)512, (int)512, ros::FlashReadOutBuffer_>
    main.o(t._ZN3ros11NodeHandle_I15ArduinoHardwareLi25ELi25ELi512ELi512ENS_19FlashReadOutBuffer_EEC1Ev) refers to hardwareserial.o(.bss) for Serial
    main.o(t._ZN3ros11NodeHandle_I15ArduinoHardwareLi25ELi25ELi512ELi512ENS_19FlashReadOutBuffer_EEC1Ev) refers to main.o(.constdata__ZTVN14rosserial_msgs20RequestParamResponseE) for vtable for rosserial_msgs::RequestParamResponse
    main.o(.ARM.exidx) refers to main.o(t._ZN3ros11NodeHandle_I15ArduinoHardwareLi25ELi25ELi512ELi512ENS_19FlashReadOutBuffer_EEC1Ev) for t._ZN3ros11NodeHandle_I15ArduinoHardwareLi25ELi25ELi512ELi512ENS_19FlashReadOutBuffer_EEC1Ev
    main.o(i._ZN13geometry_msgs7Vector311deserializeEPh) refers to main.o(i._ZN3ros3Msg21deserializeAvrFloat64EPKhPf) for ros::Msg::deserializeAvrFloat64(const unsigned char*, float*)
    main.o(.ARM.exidx) refers to main.o(i._ZN13geometry_msgs7Vector311deserializeEPh) for i._ZN13geometry_msgs7Vector311deserializeEPh
    main.o(i._ZN13geometry_msgs5Twist11deserializeEPh) refers to main.o(i._ZN13geometry_msgs7Vector311deserializeEPh) for geometry_msgs::Vector3::deserialize(unsigned char*)
    main.o(.ARM.exidx) refers to main.o(i._ZN13geometry_msgs5Twist11deserializeEPh) for i._ZN13geometry_msgs5Twist11deserializeEPh
    main.o(.ARM.exidx) refers to main.o(i._ZN9riki_msgs3PID11deserializeEPh) for i._ZN9riki_msgs3PID11deserializeEPh
    main.o(i._ZNK13geometry_msgs7Vector39serializeEPh) refers to main.o(i._ZN3ros3Msg19serializeAvrFloat64EPhf) for ros::Msg::serializeAvrFloat64(unsigned char*, float)
    main.o(.ARM.exidx) refers to main.o(i._ZNK13geometry_msgs7Vector39serializeEPh) for i._ZNK13geometry_msgs7Vector39serializeEPh
    main.o(i._ZN3ros3MsgC2Ev) refers to main.o(.constdata__ZTVN3ros3MsgE) for vtable for ros::Msg
    main.o(.ARM.exidx) refers to main.o(i._ZN3ros3MsgC2Ev) for i._ZN3ros3MsgC2Ev
    main.o(t._ZN3ros11NodeHandle_I15ArduinoHardwareLi25ELi25ELi512ELi512ENS_19FlashReadOutBuffer_EE8logerrorIPKcEEvT_) refers to main.o(t._ZN3ros11NodeHandle_I15ArduinoHardwareLi25ELi25ELi512ELi512ENS_19FlashReadOutBuffer_EE3logEcPKc) for ros::NodeHandle_<ArduinoHardware, (int)25, (int)25, (int)512, (int)512, ros::FlashReadOutBuffer_>::log(char, const char*)
    main.o(.ARM.exidx) refers to main.o(t._ZN3ros11NodeHandle_I15ArduinoHardwareLi25ELi25ELi512ELi512ENS_19FlashReadOutBuffer_EE8logerrorIPKcEEvT_) for t._ZN3ros11NodeHandle_I15ArduinoHardwareLi25ELi25ELi512ELi512ENS_19FlashReadOutBuffer_EE8logerrorIPKcEEvT_
    main.o(.ARM.exidx) refers to main.o(i._ZN13geometry_msgs7Vector3aSERKS0_) for i._ZN13geometry_msgs7Vector3aSERKS0_
    main.o(t._ZN3ros11NodeHandle_I15ArduinoHardwareLi25ELi25ELi512ELi512ENS_19FlashReadOutBuffer_EE7loginfoIPcEEvT_) refers to main.o(t._ZN3ros11NodeHandle_I15ArduinoHardwareLi25ELi25ELi512ELi512ENS_19FlashReadOutBuffer_EE3logEcPKc) for ros::NodeHandle_<ArduinoHardware, (int)25, (int)25, (int)512, (int)512, ros::FlashReadOutBuffer_>::log(char, const char*)
    main.o(.ARM.exidx) refers to main.o(t._ZN3ros11NodeHandle_I15ArduinoHardwareLi25ELi25ELi512ELi512ENS_19FlashReadOutBuffer_EE7loginfoIPcEEvT_) for t._ZN3ros11NodeHandle_I15ArduinoHardwareLi25ELi25ELi512ELi512ENS_19FlashReadOutBuffer_EE7loginfoIPcEEvT_
    main.o(i._ZN15ArduinoHardware4timeEv) refers to delay.o(i.millis) for millis
    main.o(.ARM.exidx) refers to main.o(i._ZN15ArduinoHardware4timeEv) for i._ZN15ArduinoHardware4timeEv
    main.o(t._ZN3ros11NodeHandle_I15ArduinoHardwareLi25ELi25ELi512ELi512ENS_19FlashReadOutBuffer_EE8syncTimeEPh) refers to main.o(i._ZN8std_msgs4TimeC1Ev) for std_msgs::Time::Time()
    main.o(t._ZN3ros11NodeHandle_I15ArduinoHardwareLi25ELi25ELi512ELi512ENS_19FlashReadOutBuffer_EE8syncTimeEPh) refers to main.o(i._ZN15ArduinoHardware4timeEv) for ArduinoHardware::time()
    main.o(t._ZN3ros11NodeHandle_I15ArduinoHardwareLi25ELi25ELi512ELi512ENS_19FlashReadOutBuffer_EE8syncTimeEPh) refers to main.o(i._ZN8std_msgs4Time11deserializeEPh) for std_msgs::Time::deserialize(unsigned char*)
    main.o(t._ZN3ros11NodeHandle_I15ArduinoHardwareLi25ELi25ELi512ELi512ENS_19FlashReadOutBuffer_EE8syncTimeEPh) refers to time.o(i._ZN3ros16normalizeSecNSecERjS0_) for ros::normalizeSecNSec(unsigned&, unsigned&)
    main.o(.ARM.exidx) refers to main.o(t._ZN3ros11NodeHandle_I15ArduinoHardwareLi25ELi25ELi512ELi512ENS_19FlashReadOutBuffer_EE8syncTimeEPh) for t._ZN3ros11NodeHandle_I15ArduinoHardwareLi25ELi25ELi512ELi512ENS_19FlashReadOutBuffer_EE8syncTimeEPh
    main.o(i._ZN3ros19FlashReadOutBuffer_11readMsgInfoEPKc) refers to main.o(i._ZN3ros19FlashReadOutBuffer_13readFromFlashEPK19__FlashStringHelper) for ros::FlashReadOutBuffer_::readFromFlash(const __FlashStringHelper*)
    main.o(.ARM.exidx) refers to main.o(i._ZN3ros19FlashReadOutBuffer_11readMsgInfoEPKc) for i._ZN3ros19FlashReadOutBuffer_11readMsgInfoEPKc
    main.o(i._ZN4Gy85D1Ev) refers to wire.o(i._ZN7TwoWireD1Ev) for TwoWire::~TwoWire()
    main.o(.ARM.exidx) refers to main.o(i._ZN4Gy85D1Ev) for i._ZN4Gy85D1Ev
    main.o(t._ZN3ros10SubscriberIN13geometry_msgs5TwistEvEC1EPKcPFvRKS2_Ei) refers to main.o(i._ZN3ros11Subscriber_C2Ev) for ros::Subscriber_::Subscriber___sub_object()
    main.o(t._ZN3ros10SubscriberIN13geometry_msgs5TwistEvEC1EPKcPFvRKS2_Ei) refers to main.o(i._ZN3ros3MsgC2Ev) for ros::Msg::Msg__sub_object()
    main.o(t._ZN3ros10SubscriberIN13geometry_msgs5TwistEvEC1EPKcPFvRKS2_Ei) refers to main.o(i._ZN13geometry_msgs7Vector3C1Ev) for geometry_msgs::Vector3::Vector3()
    main.o(t._ZN3ros10SubscriberIN13geometry_msgs5TwistEvEC1EPKcPFvRKS2_Ei) refers to main.o(.constdata__ZTVN3ros10SubscriberIN13geometry_msgs5TwistEvEE) for vtable for ros::Subscriber<geometry_msgs::Twist, void>
    main.o(t._ZN3ros10SubscriberIN13geometry_msgs5TwistEvEC1EPKcPFvRKS2_Ei) refers to main.o(.constdata__ZTVN13geometry_msgs5TwistE) for vtable for geometry_msgs::Twist
    main.o(.ARM.exidx) refers to main.o(t._ZN3ros10SubscriberIN13geometry_msgs5TwistEvEC1EPKcPFvRKS2_Ei) for t._ZN3ros10SubscriberIN13geometry_msgs5TwistEvEC1EPKcPFvRKS2_Ei
    main.o(t._ZN3ros10SubscriberIN9riki_msgs3PIDEvEC1EPKcPFvRKS2_Ei) refers to main.o(i._ZN3ros11Subscriber_C2Ev) for ros::Subscriber_::Subscriber___sub_object()
    main.o(t._ZN3ros10SubscriberIN9riki_msgs3PIDEvEC1EPKcPFvRKS2_Ei) refers to main.o(i._ZN3ros3MsgC2Ev) for ros::Msg::Msg__sub_object()
    main.o(t._ZN3ros10SubscriberIN9riki_msgs3PIDEvEC1EPKcPFvRKS2_Ei) refers to main.o(.constdata__ZTVN3ros10SubscriberIN9riki_msgs3PIDEvEE) for vtable for ros::Subscriber<riki_msgs::PID, void>
    main.o(t._ZN3ros10SubscriberIN9riki_msgs3PIDEvEC1EPKcPFvRKS2_Ei) refers to main.o(.constdata__ZTVN9riki_msgs3PIDE) for vtable for riki_msgs::PID
    main.o(.ARM.exidx) refers to main.o(t._ZN3ros10SubscriberIN9riki_msgs3PIDEvEC1EPKcPFvRKS2_Ei) for t._ZN3ros10SubscriberIN9riki_msgs3PIDEvEC1EPKcPFvRKS2_Ei
    main.o(i._ZN3ros11Subscriber_C2Ev) refers to main.o(.constdata__ZTVN3ros11Subscriber_E) for vtable for ros::Subscriber_
    main.o(.ARM.exidx) refers to main.o(i._ZN3ros11Subscriber_C2Ev) for i._ZN3ros11Subscriber_C2Ev
    main.o(.constdata__ZTVN3ros3MsgE) refers to main.o(.constdata__ZTIN3ros3MsgE) for typeinfo for ros::Msg
    main.o(.constdata__ZTVN3ros3MsgE) refers to pure_virt.o(i.__cxa_pure_virtual) for __cxa_pure_virtual
    main.o(.constdata__ZTVN13geometry_msgs7Vector3E) refers to main.o(.constdata__ZTIN13geometry_msgs7Vector3E) for typeinfo for geometry_msgs::Vector3
    main.o(.constdata__ZTVN13geometry_msgs7Vector3E) refers to main.o(i._ZNK13geometry_msgs7Vector39serializeEPh) for geometry_msgs::Vector3::serialize(unsigned char*) const
    main.o(.constdata__ZTVN13geometry_msgs7Vector3E) refers to main.o(i._ZN13geometry_msgs7Vector311deserializeEPh) for geometry_msgs::Vector3::deserialize(unsigned char*)
    main.o(.constdata__ZTVN13geometry_msgs7Vector3E) refers to main.o(i._ZN13geometry_msgs7Vector37getTypeEv) for geometry_msgs::Vector3::getType()
    main.o(.constdata__ZTVN13geometry_msgs7Vector3E) refers to main.o(i._ZN13geometry_msgs7Vector36getMD5Ev) for geometry_msgs::Vector3::getMD5()
    main.o(.constdata__ZTVN8std_msgs4TimeE) refers to main.o(.constdata__ZTIN8std_msgs4TimeE) for typeinfo for std_msgs::Time
    main.o(.constdata__ZTVN8std_msgs4TimeE) refers to main.o(i._ZNK8std_msgs4Time9serializeEPh) for std_msgs::Time::serialize(unsigned char*) const
    main.o(.constdata__ZTVN8std_msgs4TimeE) refers to main.o(i._ZN8std_msgs4Time11deserializeEPh) for std_msgs::Time::deserialize(unsigned char*)
    main.o(.constdata__ZTVN8std_msgs4TimeE) refers to main.o(i._ZN8std_msgs4Time7getTypeEv) for std_msgs::Time::getType()
    main.o(.constdata__ZTVN8std_msgs4TimeE) refers to main.o(i._ZN8std_msgs4Time6getMD5Ev) for std_msgs::Time::getMD5()
    main.o(.constdata__ZTVN14rosserial_msgs9TopicInfoE) refers to main.o(.constdata__ZTIN14rosserial_msgs9TopicInfoE) for typeinfo for rosserial_msgs::TopicInfo
    main.o(.constdata__ZTVN14rosserial_msgs9TopicInfoE) refers to main.o(i._ZNK14rosserial_msgs9TopicInfo9serializeEPh) for rosserial_msgs::TopicInfo::serialize(unsigned char*) const
    main.o(.constdata__ZTVN14rosserial_msgs9TopicInfoE) refers to main.o(i._ZN14rosserial_msgs9TopicInfo11deserializeEPh) for rosserial_msgs::TopicInfo::deserialize(unsigned char*)
    main.o(.constdata__ZTVN14rosserial_msgs9TopicInfoE) refers to main.o(i._ZN14rosserial_msgs9TopicInfo7getTypeEv) for rosserial_msgs::TopicInfo::getType()
    main.o(.constdata__ZTVN14rosserial_msgs9TopicInfoE) refers to main.o(i._ZN14rosserial_msgs9TopicInfo6getMD5Ev) for rosserial_msgs::TopicInfo::getMD5()
    main.o(.constdata__ZTVN14rosserial_msgs3LogE) refers to main.o(.constdata__ZTIN14rosserial_msgs3LogE) for typeinfo for rosserial_msgs::Log
    main.o(.constdata__ZTVN14rosserial_msgs3LogE) refers to main.o(i._ZNK14rosserial_msgs3Log9serializeEPh) for rosserial_msgs::Log::serialize(unsigned char*) const
    main.o(.constdata__ZTVN14rosserial_msgs3LogE) refers to main.o(i._ZN14rosserial_msgs3Log11deserializeEPh) for rosserial_msgs::Log::deserialize(unsigned char*)
    main.o(.constdata__ZTVN14rosserial_msgs3LogE) refers to main.o(i._ZN14rosserial_msgs3Log7getTypeEv) for rosserial_msgs::Log::getType()
    main.o(.constdata__ZTVN14rosserial_msgs3LogE) refers to main.o(i._ZN14rosserial_msgs3Log6getMD5Ev) for rosserial_msgs::Log::getMD5()
    main.o(.constdata__ZTVN14rosserial_msgs20RequestParamResponseE) refers to main.o(.constdata__ZTIN14rosserial_msgs20RequestParamResponseE) for typeinfo for rosserial_msgs::RequestParamResponse
    main.o(.constdata__ZTVN14rosserial_msgs20RequestParamResponseE) refers to main.o(i._ZNK14rosserial_msgs20RequestParamResponse9serializeEPh) for rosserial_msgs::RequestParamResponse::serialize(unsigned char*) const
    main.o(.constdata__ZTVN14rosserial_msgs20RequestParamResponseE) refers to main.o(i._ZN14rosserial_msgs20RequestParamResponse11deserializeEPh) for rosserial_msgs::RequestParamResponse::deserialize(unsigned char*)
    main.o(.constdata__ZTVN14rosserial_msgs20RequestParamResponseE) refers to main.o(i._ZN14rosserial_msgs20RequestParamResponse7getTypeEv) for rosserial_msgs::RequestParamResponse::getType()
    main.o(.constdata__ZTVN14rosserial_msgs20RequestParamResponseE) refers to main.o(i._ZN14rosserial_msgs20RequestParamResponse6getMD5Ev) for rosserial_msgs::RequestParamResponse::getMD5()
    main.o(.constdata__ZTVN3ros15NodeHandleBase_E) refers to main.o(.constdata__ZTIN3ros15NodeHandleBase_E) for typeinfo for ros::NodeHandleBase_
    main.o(.constdata__ZTVN3ros15NodeHandleBase_E) refers to pure_virt.o(i.__cxa_pure_virtual) for __cxa_pure_virtual
    main.o(.constdata__ZTVN3ros21DefaultReadOutBuffer_E) refers to main.o(.constdata__ZTIN3ros21DefaultReadOutBuffer_E) for typeinfo for ros::DefaultReadOutBuffer_
    main.o(.constdata__ZTVN3ros21DefaultReadOutBuffer_E) refers to main.o(i._ZN3ros21DefaultReadOutBuffer_9readTopicEPKcb) for ros::DefaultReadOutBuffer_::readTopic(const char*, bool)
    main.o(.constdata__ZTVN3ros21DefaultReadOutBuffer_E) refers to main.o(i._ZN3ros21DefaultReadOutBuffer_D1Ev) for ros::DefaultReadOutBuffer_::~DefaultReadOutBuffer_()
    main.o(.constdata__ZTVN3ros21DefaultReadOutBuffer_E) refers to main.o(i._ZN3ros21DefaultReadOutBuffer_D0Ev) for ros::DefaultReadOutBuffer_::~DefaultReadOutBuffer___deallocating()
    main.o(.constdata__ZTVN3ros21DefaultReadOutBuffer_E) refers to main.o(i._ZN3ros21DefaultReadOutBuffer_11readMsgInfoEPKc) for ros::DefaultReadOutBuffer_::readMsgInfo(const char*)
    main.o(.constdata__ZTVN3ros19FlashReadOutBuffer_E) refers to main.o(.constdata__ZTIN3ros19FlashReadOutBuffer_E) for typeinfo for ros::FlashReadOutBuffer_
    main.o(.constdata__ZTVN3ros19FlashReadOutBuffer_E) refers to main.o(i._ZN3ros19FlashReadOutBuffer_9readTopicEPKcb) for ros::FlashReadOutBuffer_::readTopic(const char*, bool)
    main.o(.constdata__ZTVN3ros19FlashReadOutBuffer_E) refers to main.o(i._ZN3ros19FlashReadOutBuffer_D1Ev) for ros::FlashReadOutBuffer_::~FlashReadOutBuffer_()
    main.o(.constdata__ZTVN3ros19FlashReadOutBuffer_E) refers to main.o(i._ZN3ros19FlashReadOutBuffer_D0Ev) for ros::FlashReadOutBuffer_::~FlashReadOutBuffer___deallocating()
    main.o(.constdata__ZTVN3ros19FlashReadOutBuffer_E) refers to main.o(i._ZN3ros19FlashReadOutBuffer_11readMsgInfoEPKc) for ros::FlashReadOutBuffer_::readMsgInfo(const char*)
    main.o(.constdata__ZTVN9riki_msgs10VelocitiesE) refers to main.o(.constdata__ZTIN9riki_msgs10VelocitiesE) for typeinfo for riki_msgs::Velocities
    main.o(.constdata__ZTVN9riki_msgs10VelocitiesE) refers to main.o(i._ZNK9riki_msgs10Velocities9serializeEPh) for riki_msgs::Velocities::serialize(unsigned char*) const
    main.o(.constdata__ZTVN9riki_msgs10VelocitiesE) refers to main.o(i._ZN9riki_msgs10Velocities11deserializeEPh) for riki_msgs::Velocities::deserialize(unsigned char*)
    main.o(.constdata__ZTVN9riki_msgs10VelocitiesE) refers to main.o(i._ZN9riki_msgs10Velocities7getTypeEv) for riki_msgs::Velocities::getType()
    main.o(.constdata__ZTVN9riki_msgs10VelocitiesE) refers to main.o(i._ZN9riki_msgs10Velocities6getMD5Ev) for riki_msgs::Velocities::getMD5()
    main.o(.constdata__ZTVN13geometry_msgs5TwistE) refers to main.o(.constdata__ZTIN13geometry_msgs5TwistE) for typeinfo for geometry_msgs::Twist
    main.o(.constdata__ZTVN13geometry_msgs5TwistE) refers to main.o(i._ZNK13geometry_msgs5Twist9serializeEPh) for geometry_msgs::Twist::serialize(unsigned char*) const
    main.o(.constdata__ZTVN13geometry_msgs5TwistE) refers to main.o(i._ZN13geometry_msgs5Twist11deserializeEPh) for geometry_msgs::Twist::deserialize(unsigned char*)
    main.o(.constdata__ZTVN13geometry_msgs5TwistE) refers to main.o(i._ZN13geometry_msgs5Twist7getTypeEv) for geometry_msgs::Twist::getType()
    main.o(.constdata__ZTVN13geometry_msgs5TwistE) refers to main.o(i._ZN13geometry_msgs5Twist6getMD5Ev) for geometry_msgs::Twist::getMD5()
    main.o(.constdata__ZTVN9riki_msgs3PIDE) refers to main.o(.constdata__ZTIN9riki_msgs3PIDE) for typeinfo for riki_msgs::PID
    main.o(.constdata__ZTVN9riki_msgs3PIDE) refers to main.o(i._ZNK9riki_msgs3PID9serializeEPh) for riki_msgs::PID::serialize(unsigned char*) const
    main.o(.constdata__ZTVN9riki_msgs3PIDE) refers to main.o(i._ZN9riki_msgs3PID11deserializeEPh) for riki_msgs::PID::deserialize(unsigned char*)
    main.o(.constdata__ZTVN9riki_msgs3PIDE) refers to main.o(i._ZN9riki_msgs3PID7getTypeEv) for riki_msgs::PID::getType()
    main.o(.constdata__ZTVN9riki_msgs3PIDE) refers to main.o(i._ZN9riki_msgs3PID6getMD5Ev) for riki_msgs::PID::getMD5()
    main.o(.constdata__ZTVN9riki_msgs3ImuE) refers to main.o(.constdata__ZTIN9riki_msgs3ImuE) for typeinfo for riki_msgs::Imu
    main.o(.constdata__ZTVN9riki_msgs3ImuE) refers to main.o(i._ZNK9riki_msgs3Imu9serializeEPh) for riki_msgs::Imu::serialize(unsigned char*) const
    main.o(.constdata__ZTVN9riki_msgs3ImuE) refers to main.o(i._ZN9riki_msgs3Imu11deserializeEPh) for riki_msgs::Imu::deserialize(unsigned char*)
    main.o(.constdata__ZTVN9riki_msgs3ImuE) refers to main.o(i._ZN9riki_msgs3Imu7getTypeEv) for riki_msgs::Imu::getType()
    main.o(.constdata__ZTVN9riki_msgs3ImuE) refers to main.o(i._ZN9riki_msgs3Imu6getMD5Ev) for riki_msgs::Imu::getMD5()
    main.o(.constdata__ZTVN9riki_msgs7BatteryE) refers to main.o(.constdata__ZTIN9riki_msgs7BatteryE) for typeinfo for riki_msgs::Battery
    main.o(.constdata__ZTVN9riki_msgs7BatteryE) refers to main.o(i._ZNK9riki_msgs7Battery9serializeEPh) for riki_msgs::Battery::serialize(unsigned char*) const
    main.o(.constdata__ZTVN9riki_msgs7BatteryE) refers to main.o(i._ZN9riki_msgs7Battery11deserializeEPh) for riki_msgs::Battery::deserialize(unsigned char*)
    main.o(.constdata__ZTVN9riki_msgs7BatteryE) refers to main.o(i._ZN9riki_msgs7Battery7getTypeEv) for riki_msgs::Battery::getType()
    main.o(.constdata__ZTVN9riki_msgs7BatteryE) refers to main.o(i._ZN9riki_msgs7Battery6getMD5Ev) for riki_msgs::Battery::getMD5()
    main.o(.constdata__ZTVN3ros11NodeHandle_I15ArduinoHardwareLi25ELi25ELi512ELi512ENS_19FlashReadOutBuffer_EEE) refers to main.o(.constdata__ZTIN3ros11NodeHandle_I15ArduinoHardwareLi25ELi25ELi512ELi512ENS_19FlashReadOutBuffer_EEE) for typeinfo for ros::NodeHandle_<ArduinoHardware, (int)25, (int)25, (int)512, (int)512, ros::FlashReadOutBuffer_>
    main.o(.constdata__ZTVN3ros11NodeHandle_I15ArduinoHardwareLi25ELi25ELi512ELi512ENS_19FlashReadOutBuffer_EEE) refers to main.o(t._ZN3ros11NodeHandle_I15ArduinoHardwareLi25ELi25ELi512ELi512ENS_19FlashReadOutBuffer_EE7publishEiPKNS_3MsgE) for ros::NodeHandle_<ArduinoHardware, (int)25, (int)25, (int)512, (int)512, ros::FlashReadOutBuffer_>::publish(int, const ros::Msg*)
    main.o(.constdata__ZTVN3ros11NodeHandle_I15ArduinoHardwareLi25ELi25ELi512ELi512ENS_19FlashReadOutBuffer_EEE) refers to main.o(t._ZN3ros11NodeHandle_I15ArduinoHardwareLi25ELi25ELi512ELi512ENS_19FlashReadOutBuffer_EE8spinOnceEv) for ros::NodeHandle_<ArduinoHardware, (int)25, (int)25, (int)512, (int)512, ros::FlashReadOutBuffer_>::spinOnce()
    main.o(.constdata__ZTVN3ros11NodeHandle_I15ArduinoHardwareLi25ELi25ELi512ELi512ENS_19FlashReadOutBuffer_EEE) refers to main.o(t._ZN3ros11NodeHandle_I15ArduinoHardwareLi25ELi25ELi512ELi512ENS_19FlashReadOutBuffer_EE9connectedEv) for ros::NodeHandle_<ArduinoHardware, (int)25, (int)25, (int)512, (int)512, ros::FlashReadOutBuffer_>::connected()
    main.o(.constdata__ZTVN3ros11Subscriber_E) refers to main.o(.constdata__ZTIN3ros11Subscriber_E) for typeinfo for ros::Subscriber_
    main.o(.constdata__ZTVN3ros11Subscriber_E) refers to pure_virt.o(i.__cxa_pure_virtual) for __cxa_pure_virtual
    main.o(.constdata__ZTVN3ros10SubscriberIN13geometry_msgs5TwistEvEE) refers to main.o(.constdata__ZTIN3ros10SubscriberIN13geometry_msgs5TwistEvEE) for typeinfo for ros::Subscriber<geometry_msgs::Twist, void>
    main.o(.constdata__ZTVN3ros10SubscriberIN13geometry_msgs5TwistEvEE) refers to main.o(t._ZN3ros10SubscriberIN13geometry_msgs5TwistEvE8callbackEPh) for ros::Subscriber<geometry_msgs::Twist, void>::callback(unsigned char*)
    main.o(.constdata__ZTVN3ros10SubscriberIN13geometry_msgs5TwistEvEE) refers to main.o(t._ZN3ros10SubscriberIN13geometry_msgs5TwistEvE15getEndpointTypeEv) for ros::Subscriber<geometry_msgs::Twist, void>::getEndpointType()
    main.o(.constdata__ZTVN3ros10SubscriberIN13geometry_msgs5TwistEvEE) refers to main.o(t._ZN3ros10SubscriberIN13geometry_msgs5TwistEvE10getMsgTypeEv) for ros::Subscriber<geometry_msgs::Twist, void>::getMsgType()
    main.o(.constdata__ZTVN3ros10SubscriberIN13geometry_msgs5TwistEvEE) refers to main.o(t._ZN3ros10SubscriberIN13geometry_msgs5TwistEvE9getMsgMD5Ev) for ros::Subscriber<geometry_msgs::Twist, void>::getMsgMD5()
    main.o(.constdata__ZTVN3ros10SubscriberIN9riki_msgs3PIDEvEE) refers to main.o(.constdata__ZTIN3ros10SubscriberIN9riki_msgs3PIDEvEE) for typeinfo for ros::Subscriber<riki_msgs::PID, void>
    main.o(.constdata__ZTVN3ros10SubscriberIN9riki_msgs3PIDEvEE) refers to main.o(t._ZN3ros10SubscriberIN9riki_msgs3PIDEvE8callbackEPh) for ros::Subscriber<riki_msgs::PID, void>::callback(unsigned char*)
    main.o(.constdata__ZTVN3ros10SubscriberIN9riki_msgs3PIDEvEE) refers to main.o(t._ZN3ros10SubscriberIN9riki_msgs3PIDEvE15getEndpointTypeEv) for ros::Subscriber<riki_msgs::PID, void>::getEndpointType()
    main.o(.constdata__ZTVN3ros10SubscriberIN9riki_msgs3PIDEvEE) refers to main.o(t._ZN3ros10SubscriberIN9riki_msgs3PIDEvE10getMsgTypeEv) for ros::Subscriber<riki_msgs::PID, void>::getMsgType()
    main.o(.constdata__ZTVN3ros10SubscriberIN9riki_msgs3PIDEvEE) refers to main.o(t._ZN3ros10SubscriberIN9riki_msgs3PIDEvE9getMsgMD5Ev) for ros::Subscriber<riki_msgs::PID, void>::getMsgMD5()
    main.o(.constdata__ZTIN3ros15NodeHandleBase_E) refers to lib_rtti_impl.o(.constdata__ZTVN10__cxxabiv117__class_type_infoE) for vtable for __cxxabiv1::__class_type_info
    main.o(.constdata__ZTIN3ros15NodeHandleBase_E) refers to main.o(.constdata__ZTSN3ros15NodeHandleBase_E) for typeinfo name for ros::NodeHandleBase_
    main.o(.constdata__ZTIN3ros21DefaultReadOutBuffer_E) refers to lib_rtti_impl.o(.constdata__ZTVN10__cxxabiv117__class_type_infoE) for vtable for __cxxabiv1::__class_type_info
    main.o(.constdata__ZTIN3ros21DefaultReadOutBuffer_E) refers to main.o(.constdata__ZTSN3ros21DefaultReadOutBuffer_E) for typeinfo name for ros::DefaultReadOutBuffer_
    main.o(.constdata__ZTIN3ros3MsgE) refers to lib_rtti_impl.o(.constdata__ZTVN10__cxxabiv117__class_type_infoE) for vtable for __cxxabiv1::__class_type_info
    main.o(.constdata__ZTIN3ros3MsgE) refers to main.o(.constdata__ZTSN3ros3MsgE) for typeinfo name for ros::Msg
    main.o(.constdata__ZTIN3ros11NodeHandle_I15ArduinoHardwareLi25ELi25ELi512ELi512ENS_19FlashReadOutBuffer_EEE) refers to lib_rtti_impl.o(.constdata__ZTVN10__cxxabiv120__si_class_type_infoE) for vtable for __cxxabiv1::__si_class_type_info
    main.o(.constdata__ZTIN3ros11NodeHandle_I15ArduinoHardwareLi25ELi25ELi512ELi512ENS_19FlashReadOutBuffer_EEE) refers to main.o(.constdata__ZTSN3ros11NodeHandle_I15ArduinoHardwareLi25ELi25ELi512ELi512ENS_19FlashReadOutBuffer_EEE) for typeinfo name for ros::NodeHandle_<ArduinoHardware, (int)25, (int)25, (int)512, (int)512, ros::FlashReadOutBuffer_>
    main.o(.constdata__ZTIN3ros11NodeHandle_I15ArduinoHardwareLi25ELi25ELi512ELi512ENS_19FlashReadOutBuffer_EEE) refers to main.o(.constdata__ZTIN3ros15NodeHandleBase_E) for typeinfo for ros::NodeHandleBase_
    main.o(.constdata__ZTIN3ros11Subscriber_E) refers to lib_rtti_impl.o(.constdata__ZTVN10__cxxabiv117__class_type_infoE) for vtable for __cxxabiv1::__class_type_info
    main.o(.constdata__ZTIN3ros11Subscriber_E) refers to main.o(.constdata__ZTSN3ros11Subscriber_E) for typeinfo name for ros::Subscriber_
    main.o(.constdata__ZTIN3ros19FlashReadOutBuffer_E) refers to lib_rtti_impl.o(.constdata__ZTVN10__cxxabiv120__si_class_type_infoE) for vtable for __cxxabiv1::__si_class_type_info
    main.o(.constdata__ZTIN3ros19FlashReadOutBuffer_E) refers to main.o(.constdata__ZTSN3ros19FlashReadOutBuffer_E) for typeinfo name for ros::FlashReadOutBuffer_
    main.o(.constdata__ZTIN3ros19FlashReadOutBuffer_E) refers to main.o(.constdata__ZTIN3ros21DefaultReadOutBuffer_E) for typeinfo for ros::DefaultReadOutBuffer_
    main.o(.constdata__ZTIN3ros10SubscriberIN13geometry_msgs5TwistEvEE) refers to lib_rtti_impl.o(.constdata__ZTVN10__cxxabiv120__si_class_type_infoE) for vtable for __cxxabiv1::__si_class_type_info
    main.o(.constdata__ZTIN3ros10SubscriberIN13geometry_msgs5TwistEvEE) refers to main.o(.constdata__ZTSN3ros10SubscriberIN13geometry_msgs5TwistEvEE) for typeinfo name for ros::Subscriber<geometry_msgs::Twist, void>
    main.o(.constdata__ZTIN3ros10SubscriberIN13geometry_msgs5TwistEvEE) refers to main.o(.constdata__ZTIN3ros11Subscriber_E) for typeinfo for ros::Subscriber_
    main.o(.constdata__ZTIN3ros10SubscriberIN9riki_msgs3PIDEvEE) refers to lib_rtti_impl.o(.constdata__ZTVN10__cxxabiv120__si_class_type_infoE) for vtable for __cxxabiv1::__si_class_type_info
    main.o(.constdata__ZTIN3ros10SubscriberIN9riki_msgs3PIDEvEE) refers to main.o(.constdata__ZTSN3ros10SubscriberIN9riki_msgs3PIDEvEE) for typeinfo name for ros::Subscriber<riki_msgs::PID, void>
    main.o(.constdata__ZTIN3ros10SubscriberIN9riki_msgs3PIDEvEE) refers to main.o(.constdata__ZTIN3ros11Subscriber_E) for typeinfo for ros::Subscriber_
    main.o(.constdata__ZTIN13geometry_msgs7Vector3E) refers to lib_rtti_impl.o(.constdata__ZTVN10__cxxabiv120__si_class_type_infoE) for vtable for __cxxabiv1::__si_class_type_info
    main.o(.constdata__ZTIN13geometry_msgs7Vector3E) refers to main.o(.constdata__ZTSN13geometry_msgs7Vector3E) for typeinfo name for geometry_msgs::Vector3
    main.o(.constdata__ZTIN13geometry_msgs7Vector3E) refers to main.o(.constdata__ZTIN3ros3MsgE) for typeinfo for ros::Msg
    main.o(.constdata__ZTIN13geometry_msgs5TwistE) refers to lib_rtti_impl.o(.constdata__ZTVN10__cxxabiv120__si_class_type_infoE) for vtable for __cxxabiv1::__si_class_type_info
    main.o(.constdata__ZTIN13geometry_msgs5TwistE) refers to main.o(.constdata__ZTSN13geometry_msgs5TwistE) for typeinfo name for geometry_msgs::Twist
    main.o(.constdata__ZTIN13geometry_msgs5TwistE) refers to main.o(.constdata__ZTIN3ros3MsgE) for typeinfo for ros::Msg
    main.o(.constdata__ZTIN8std_msgs4TimeE) refers to lib_rtti_impl.o(.constdata__ZTVN10__cxxabiv120__si_class_type_infoE) for vtable for __cxxabiv1::__si_class_type_info
    main.o(.constdata__ZTIN8std_msgs4TimeE) refers to main.o(.constdata__ZTSN8std_msgs4TimeE) for typeinfo name for std_msgs::Time
    main.o(.constdata__ZTIN8std_msgs4TimeE) refers to main.o(.constdata__ZTIN3ros3MsgE) for typeinfo for ros::Msg
    main.o(.constdata__ZTIN14rosserial_msgs9TopicInfoE) refers to lib_rtti_impl.o(.constdata__ZTVN10__cxxabiv120__si_class_type_infoE) for vtable for __cxxabiv1::__si_class_type_info
    main.o(.constdata__ZTIN14rosserial_msgs9TopicInfoE) refers to main.o(.constdata__ZTSN14rosserial_msgs9TopicInfoE) for typeinfo name for rosserial_msgs::TopicInfo
    main.o(.constdata__ZTIN14rosserial_msgs9TopicInfoE) refers to main.o(.constdata__ZTIN3ros3MsgE) for typeinfo for ros::Msg
    main.o(.constdata__ZTIN14rosserial_msgs3LogE) refers to lib_rtti_impl.o(.constdata__ZTVN10__cxxabiv120__si_class_type_infoE) for vtable for __cxxabiv1::__si_class_type_info
    main.o(.constdata__ZTIN14rosserial_msgs3LogE) refers to main.o(.constdata__ZTSN14rosserial_msgs3LogE) for typeinfo name for rosserial_msgs::Log
    main.o(.constdata__ZTIN14rosserial_msgs3LogE) refers to main.o(.constdata__ZTIN3ros3MsgE) for typeinfo for ros::Msg
    main.o(.constdata__ZTIN14rosserial_msgs20RequestParamResponseE) refers to lib_rtti_impl.o(.constdata__ZTVN10__cxxabiv120__si_class_type_infoE) for vtable for __cxxabiv1::__si_class_type_info
    main.o(.constdata__ZTIN14rosserial_msgs20RequestParamResponseE) refers to main.o(.constdata__ZTSN14rosserial_msgs20RequestParamResponseE) for typeinfo name for rosserial_msgs::RequestParamResponse
    main.o(.constdata__ZTIN14rosserial_msgs20RequestParamResponseE) refers to main.o(.constdata__ZTIN3ros3MsgE) for typeinfo for ros::Msg
    main.o(.constdata__ZTIN9riki_msgs10VelocitiesE) refers to lib_rtti_impl.o(.constdata__ZTVN10__cxxabiv120__si_class_type_infoE) for vtable for __cxxabiv1::__si_class_type_info
    main.o(.constdata__ZTIN9riki_msgs10VelocitiesE) refers to main.o(.constdata__ZTSN9riki_msgs10VelocitiesE) for typeinfo name for riki_msgs::Velocities
    main.o(.constdata__ZTIN9riki_msgs10VelocitiesE) refers to main.o(.constdata__ZTIN3ros3MsgE) for typeinfo for ros::Msg
    main.o(.constdata__ZTIN9riki_msgs3PIDE) refers to lib_rtti_impl.o(.constdata__ZTVN10__cxxabiv120__si_class_type_infoE) for vtable for __cxxabiv1::__si_class_type_info
    main.o(.constdata__ZTIN9riki_msgs3PIDE) refers to main.o(.constdata__ZTSN9riki_msgs3PIDE) for typeinfo name for riki_msgs::PID
    main.o(.constdata__ZTIN9riki_msgs3PIDE) refers to main.o(.constdata__ZTIN3ros3MsgE) for typeinfo for ros::Msg
    main.o(.constdata__ZTIN9riki_msgs3ImuE) refers to lib_rtti_impl.o(.constdata__ZTVN10__cxxabiv120__si_class_type_infoE) for vtable for __cxxabiv1::__si_class_type_info
    main.o(.constdata__ZTIN9riki_msgs3ImuE) refers to main.o(.constdata__ZTSN9riki_msgs3ImuE) for typeinfo name for riki_msgs::Imu
    main.o(.constdata__ZTIN9riki_msgs3ImuE) refers to main.o(.constdata__ZTIN3ros3MsgE) for typeinfo for ros::Msg
    main.o(.constdata__ZTIN9riki_msgs7BatteryE) refers to lib_rtti_impl.o(.constdata__ZTVN10__cxxabiv120__si_class_type_infoE) for vtable for __cxxabiv1::__si_class_type_info
    main.o(.constdata__ZTIN9riki_msgs7BatteryE) refers to main.o(.constdata__ZTSN9riki_msgs7BatteryE) for typeinfo name for riki_msgs::Battery
    main.o(.constdata__ZTIN9riki_msgs7BatteryE) refers to main.o(.constdata__ZTIN3ros3MsgE) for typeinfo for ros::Msg
    main.o(.ARM.exidx) refers to main.o(i._ZN3ros21DefaultReadOutBuffer_D1Ev) for i._ZN3ros21DefaultReadOutBuffer_D1Ev
    main.o(i._ZN3ros21DefaultReadOutBuffer_9readTopicEPKcb) refers to main.o(.constdata__ZZN3ros21DefaultReadOutBuffer_9readTopicEPKcbEs) for ros::DefaultReadOutBuffer_::readTopic(const char*, bool)::string
    main.o(.ARM.exidx) refers to main.o(i._ZN3ros21DefaultReadOutBuffer_9readTopicEPKcb) for i._ZN3ros21DefaultReadOutBuffer_9readTopicEPKcb
    main.o(i._ZN3ros21DefaultReadOutBuffer_D0Ev) refers to delete.o(i._ZdlPv) for operator delete (void*)
    main.o(.ARM.exidx) refers to main.o(i._ZN3ros21DefaultReadOutBuffer_D0Ev) for i._ZN3ros21DefaultReadOutBuffer_D0Ev
    main.o(.ARM.exidx) refers to main.o(i._ZN3ros21DefaultReadOutBuffer_11readMsgInfoEPKc) for i._ZN3ros21DefaultReadOutBuffer_11readMsgInfoEPKc
    main.o(i._ZN3ros19FlashReadOutBuffer_9readTopicEPKcb) refers to main.o(i._ZN3ros19FlashReadOutBuffer_13readFromFlashEPK19__FlashStringHelper) for ros::FlashReadOutBuffer_::readFromFlash(const __FlashStringHelper*)
    main.o(.ARM.exidx) refers to main.o(i._ZN3ros19FlashReadOutBuffer_9readTopicEPKcb) for i._ZN3ros19FlashReadOutBuffer_9readTopicEPKcb
    main.o(i._ZN3ros19FlashReadOutBuffer_D0Ev) refers to main.o(i._ZN3ros19FlashReadOutBuffer_D1Ev) for ros::FlashReadOutBuffer_::~FlashReadOutBuffer_()
    main.o(i._ZN3ros19FlashReadOutBuffer_D0Ev) refers to delete.o(i._ZdlPv) for operator delete (void*)
    main.o(.ARM.exidx) refers to main.o(i._ZN3ros19FlashReadOutBuffer_D0Ev) for i._ZN3ros19FlashReadOutBuffer_D0Ev
    main.o(.ARM.exidx) refers to main.o(t._ZN3ros11NodeHandle_I15ArduinoHardwareLi25ELi25ELi512ELi512ENS_19FlashReadOutBuffer_EE9connectedEv) for t._ZN3ros11NodeHandle_I15ArduinoHardwareLi25ELi25ELi512ELi512ENS_19FlashReadOutBuffer_EE9connectedEv
    main.o(t._ZN3ros11NodeHandle_I15ArduinoHardwareLi25ELi25ELi512ELi512ENS_19FlashReadOutBuffer_EE7publishEiPKNS_3MsgE) refers to main.o(t._ZN3ros11NodeHandle_I15ArduinoHardwareLi25ELi25ELi512ELi512ENS_19FlashReadOutBuffer_EE8logerrorIPKcEEvT_) for void ros::NodeHandle_<ArduinoHardware, (int)25, (int)25, (int)512, (int)512, ros::FlashReadOutBuffer_>::logerror<const char*>(T1)
    main.o(t._ZN3ros11NodeHandle_I15ArduinoHardwareLi25ELi25ELi512ELi512ENS_19FlashReadOutBuffer_EE7publishEiPKNS_3MsgE) refers to main.o(.constdata__ZZN3ros11NodeHandle_I15ArduinoHardwareLi25ELi25ELi512ELi512ENS_19FlashReadOutBuffer_EE7publishEiPKNS_3MsgEEs) for ros::NodeHandle_<ArduinoHardware, (int)25, (int)25, (int)512, (int)512, ros::FlashReadOutBuffer_>::publish(int, const ros::Msg*)::string
    main.o(.ARM.exidx) refers to main.o(t._ZN3ros11NodeHandle_I15ArduinoHardwareLi25ELi25ELi512ELi512ENS_19FlashReadOutBuffer_EE7publishEiPKNS_3MsgE) for t._ZN3ros11NodeHandle_I15ArduinoHardwareLi25ELi25ELi512ELi512ENS_19FlashReadOutBuffer_EE7publishEiPKNS_3MsgE
    main.o(t._ZN3ros10SubscriberIN13geometry_msgs5TwistEvE8callbackEPh) refers to main.o(i._ZN13geometry_msgs5Twist11deserializeEPh) for geometry_msgs::Twist::deserialize(unsigned char*)
    main.o(.ARM.exidx) refers to main.o(t._ZN3ros10SubscriberIN13geometry_msgs5TwistEvE8callbackEPh) for t._ZN3ros10SubscriberIN13geometry_msgs5TwistEvE8callbackEPh
    main.o(i._ZN13geometry_msgs5Twist7getTypeEv) refers to main.o(.constdata__ZZN13geometry_msgs5Twist7getTypeEvEs) for geometry_msgs::Twist::getType()::string
    main.o(.ARM.exidx) refers to main.o(i._ZN13geometry_msgs5Twist7getTypeEv) for i._ZN13geometry_msgs5Twist7getTypeEv
    main.o(t._ZN3ros10SubscriberIN13geometry_msgs5TwistEvE10getMsgTypeEv) refers to main.o(.constdata__ZZN13geometry_msgs5Twist7getTypeEvEs) for geometry_msgs::Twist::getType()::string
    main.o(.ARM.exidx) refers to main.o(t._ZN3ros10SubscriberIN13geometry_msgs5TwistEvE10getMsgTypeEv) for t._ZN3ros10SubscriberIN13geometry_msgs5TwistEvE10getMsgTypeEv
    main.o(i._ZN13geometry_msgs5Twist6getMD5Ev) refers to main.o(.constdata__ZZN13geometry_msgs5Twist6getMD5EvEs) for geometry_msgs::Twist::getMD5()::string
    main.o(.ARM.exidx) refers to main.o(i._ZN13geometry_msgs5Twist6getMD5Ev) for i._ZN13geometry_msgs5Twist6getMD5Ev
    main.o(t._ZN3ros10SubscriberIN13geometry_msgs5TwistEvE9getMsgMD5Ev) refers to main.o(.constdata__ZZN13geometry_msgs5Twist6getMD5EvEs) for geometry_msgs::Twist::getMD5()::string
    main.o(.ARM.exidx) refers to main.o(t._ZN3ros10SubscriberIN13geometry_msgs5TwistEvE9getMsgMD5Ev) for t._ZN3ros10SubscriberIN13geometry_msgs5TwistEvE9getMsgMD5Ev
    main.o(.ARM.exidx) refers to main.o(t._ZN3ros10SubscriberIN13geometry_msgs5TwistEvE15getEndpointTypeEv) for t._ZN3ros10SubscriberIN13geometry_msgs5TwistEvE15getEndpointTypeEv
    main.o(t._ZN3ros10SubscriberIN9riki_msgs3PIDEvE8callbackEPh) refers to main.o(i._ZN9riki_msgs3PID11deserializeEPh) for riki_msgs::PID::deserialize(unsigned char*)
    main.o(.ARM.exidx) refers to main.o(t._ZN3ros10SubscriberIN9riki_msgs3PIDEvE8callbackEPh) for t._ZN3ros10SubscriberIN9riki_msgs3PIDEvE8callbackEPh
    main.o(i._ZN9riki_msgs3PID7getTypeEv) refers to main.o(.constdata__ZZN9riki_msgs3PID7getTypeEvEs) for riki_msgs::PID::getType()::string
    main.o(.ARM.exidx) refers to main.o(i._ZN9riki_msgs3PID7getTypeEv) for i._ZN9riki_msgs3PID7getTypeEv
    main.o(t._ZN3ros10SubscriberIN9riki_msgs3PIDEvE10getMsgTypeEv) refers to main.o(.constdata__ZZN9riki_msgs3PID7getTypeEvEs) for riki_msgs::PID::getType()::string
    main.o(.ARM.exidx) refers to main.o(t._ZN3ros10SubscriberIN9riki_msgs3PIDEvE10getMsgTypeEv) for t._ZN3ros10SubscriberIN9riki_msgs3PIDEvE10getMsgTypeEv
    main.o(i._ZN9riki_msgs3PID6getMD5Ev) refers to main.o(.constdata__ZZN9riki_msgs3PID6getMD5EvEs) for riki_msgs::PID::getMD5()::string
    main.o(.ARM.exidx) refers to main.o(i._ZN9riki_msgs3PID6getMD5Ev) for i._ZN9riki_msgs3PID6getMD5Ev
    main.o(t._ZN3ros10SubscriberIN9riki_msgs3PIDEvE9getMsgMD5Ev) refers to main.o(.constdata__ZZN9riki_msgs3PID6getMD5EvEs) for riki_msgs::PID::getMD5()::string
    main.o(.ARM.exidx) refers to main.o(t._ZN3ros10SubscriberIN9riki_msgs3PIDEvE9getMsgMD5Ev) for t._ZN3ros10SubscriberIN9riki_msgs3PIDEvE9getMsgMD5Ev
    main.o(.ARM.exidx) refers to main.o(t._ZN3ros10SubscriberIN9riki_msgs3PIDEvE15getEndpointTypeEv) for t._ZN3ros10SubscriberIN9riki_msgs3PIDEvE15getEndpointTypeEv
    main.o(i._ZN13geometry_msgs7Vector37getTypeEv) refers to main.o(.constdata__ZZN13geometry_msgs7Vector37getTypeEvEs) for geometry_msgs::Vector3::getType()::string
    main.o(.ARM.exidx) refers to main.o(i._ZN13geometry_msgs7Vector37getTypeEv) for i._ZN13geometry_msgs7Vector37getTypeEv
    main.o(i._ZN13geometry_msgs7Vector36getMD5Ev) refers to main.o(.constdata__ZZN13geometry_msgs7Vector36getMD5EvEs) for geometry_msgs::Vector3::getMD5()::string
    main.o(.ARM.exidx) refers to main.o(i._ZN13geometry_msgs7Vector36getMD5Ev) for i._ZN13geometry_msgs7Vector36getMD5Ev
    main.o(i._ZNK13geometry_msgs5Twist9serializeEPh) refers to main.o(i._ZNK13geometry_msgs7Vector39serializeEPh) for geometry_msgs::Vector3::serialize(unsigned char*) const
    main.o(.ARM.exidx) refers to main.o(i._ZNK13geometry_msgs5Twist9serializeEPh) for i._ZNK13geometry_msgs5Twist9serializeEPh
    main.o(.ARM.exidx) refers to main.o(i._ZNK8std_msgs4Time9serializeEPh) for i._ZNK8std_msgs4Time9serializeEPh
    main.o(i._ZN8std_msgs4Time7getTypeEv) refers to main.o(.constdata__ZZN8std_msgs4Time7getTypeEvEs) for std_msgs::Time::getType()::string
    main.o(.ARM.exidx) refers to main.o(i._ZN8std_msgs4Time7getTypeEv) for i._ZN8std_msgs4Time7getTypeEv
    main.o(i._ZN8std_msgs4Time6getMD5Ev) refers to main.o(.constdata__ZZN8std_msgs4Time6getMD5EvEs) for std_msgs::Time::getMD5()::string
    main.o(.ARM.exidx) refers to main.o(i._ZN8std_msgs4Time6getMD5Ev) for i._ZN8std_msgs4Time6getMD5Ev
    main.o(i._ZNK14rosserial_msgs9TopicInfo9serializeEPh) refers to strlen.o(.text) for strlen
    main.o(i._ZNK14rosserial_msgs9TopicInfo9serializeEPh) refers to main.o(t._ZN3ros3Msg8varToArrIPhjEEvT_T0_) for void ros::Msg::varToArr<unsigned char*, unsigned>(T1, T2)
    main.o(i._ZNK14rosserial_msgs9TopicInfo9serializeEPh) refers to rt_memcpy_v6.o(.text) for __aeabi_memcpy
    main.o(.ARM.exidx) refers to main.o(i._ZNK14rosserial_msgs9TopicInfo9serializeEPh) for i._ZNK14rosserial_msgs9TopicInfo9serializeEPh
    main.o(i._ZN14rosserial_msgs9TopicInfo11deserializeEPh) refers to main.o(t._ZN3ros3Msg8arrToVarIjPhEEvRT_T0_) for void ros::Msg::arrToVar<unsigned, unsigned char*>(T1&, T2)
    main.o(.ARM.exidx) refers to main.o(i._ZN14rosserial_msgs9TopicInfo11deserializeEPh) for i._ZN14rosserial_msgs9TopicInfo11deserializeEPh
    main.o(i._ZN14rosserial_msgs9TopicInfo7getTypeEv) refers to main.o(.constdata__ZZN14rosserial_msgs9TopicInfo7getTypeEvEs) for rosserial_msgs::TopicInfo::getType()::string
    main.o(.ARM.exidx) refers to main.o(i._ZN14rosserial_msgs9TopicInfo7getTypeEv) for i._ZN14rosserial_msgs9TopicInfo7getTypeEv
    main.o(i._ZN14rosserial_msgs9TopicInfo6getMD5Ev) refers to main.o(.constdata__ZZN14rosserial_msgs9TopicInfo6getMD5EvEs) for rosserial_msgs::TopicInfo::getMD5()::string
    main.o(.ARM.exidx) refers to main.o(i._ZN14rosserial_msgs9TopicInfo6getMD5Ev) for i._ZN14rosserial_msgs9TopicInfo6getMD5Ev
    main.o(i._ZNK14rosserial_msgs3Log9serializeEPh) refers to strlen.o(.text) for strlen
    main.o(i._ZNK14rosserial_msgs3Log9serializeEPh) refers to main.o(t._ZN3ros3Msg8varToArrIPhjEEvT_T0_) for void ros::Msg::varToArr<unsigned char*, unsigned>(T1, T2)
    main.o(i._ZNK14rosserial_msgs3Log9serializeEPh) refers to rt_memcpy_v6.o(.text) for __aeabi_memcpy
    main.o(.ARM.exidx) refers to main.o(i._ZNK14rosserial_msgs3Log9serializeEPh) for i._ZNK14rosserial_msgs3Log9serializeEPh
    main.o(i._ZN14rosserial_msgs3Log11deserializeEPh) refers to main.o(t._ZN3ros3Msg8arrToVarIjPhEEvRT_T0_) for void ros::Msg::arrToVar<unsigned, unsigned char*>(T1&, T2)
    main.o(.ARM.exidx) refers to main.o(i._ZN14rosserial_msgs3Log11deserializeEPh) for i._ZN14rosserial_msgs3Log11deserializeEPh
    main.o(i._ZN14rosserial_msgs3Log7getTypeEv) refers to main.o(.constdata__ZZN14rosserial_msgs3Log7getTypeEvEs) for rosserial_msgs::Log::getType()::string
    main.o(.ARM.exidx) refers to main.o(i._ZN14rosserial_msgs3Log7getTypeEv) for i._ZN14rosserial_msgs3Log7getTypeEv
    main.o(i._ZN14rosserial_msgs3Log6getMD5Ev) refers to main.o(.constdata__ZZN14rosserial_msgs3Log6getMD5EvEs) for rosserial_msgs::Log::getMD5()::string
    main.o(.ARM.exidx) refers to main.o(i._ZN14rosserial_msgs3Log6getMD5Ev) for i._ZN14rosserial_msgs3Log6getMD5Ev
    main.o(i._ZNK14rosserial_msgs20RequestParamResponse9serializeEPh) refers to strlen.o(.text) for strlen
    main.o(i._ZNK14rosserial_msgs20RequestParamResponse9serializeEPh) refers to main.o(t._ZN3ros3Msg8varToArrIPhjEEvT_T0_) for void ros::Msg::varToArr<unsigned char*, unsigned>(T1, T2)
    main.o(i._ZNK14rosserial_msgs20RequestParamResponse9serializeEPh) refers to rt_memcpy_v6.o(.text) for __aeabi_memcpy
    main.o(.ARM.exidx) refers to main.o(i._ZNK14rosserial_msgs20RequestParamResponse9serializeEPh) for i._ZNK14rosserial_msgs20RequestParamResponse9serializeEPh
    main.o(i._ZN14rosserial_msgs20RequestParamResponse7getTypeEv) refers to main.o(.constdata) for rosserial_msgs::REQUESTPARAM
    main.o(.ARM.exidx) refers to main.o(i._ZN14rosserial_msgs20RequestParamResponse7getTypeEv) for i._ZN14rosserial_msgs20RequestParamResponse7getTypeEv
    main.o(i._ZN14rosserial_msgs20RequestParamResponse6getMD5Ev) refers to main.o(.constdata__ZZN14rosserial_msgs20RequestParamResponse6getMD5EvEs) for rosserial_msgs::RequestParamResponse::getMD5()::string
    main.o(.ARM.exidx) refers to main.o(i._ZN14rosserial_msgs20RequestParamResponse6getMD5Ev) for i._ZN14rosserial_msgs20RequestParamResponse6getMD5Ev
    main.o(.ARM.exidx) refers to main.o(i._ZNK9riki_msgs10Velocities9serializeEPh) for i._ZNK9riki_msgs10Velocities9serializeEPh
    main.o(.ARM.exidx) refers to main.o(i._ZN9riki_msgs10Velocities11deserializeEPh) for i._ZN9riki_msgs10Velocities11deserializeEPh
    main.o(i._ZN9riki_msgs10Velocities7getTypeEv) refers to main.o(.constdata__ZZN9riki_msgs10Velocities7getTypeEvEs) for riki_msgs::Velocities::getType()::string
    main.o(.ARM.exidx) refers to main.o(i._ZN9riki_msgs10Velocities7getTypeEv) for i._ZN9riki_msgs10Velocities7getTypeEv
    main.o(i._ZN9riki_msgs10Velocities6getMD5Ev) refers to main.o(.constdata__ZZN9riki_msgs10Velocities6getMD5EvEs) for riki_msgs::Velocities::getMD5()::string
    main.o(.ARM.exidx) refers to main.o(i._ZN9riki_msgs10Velocities6getMD5Ev) for i._ZN9riki_msgs10Velocities6getMD5Ev
    main.o(.ARM.exidx) refers to main.o(i._ZNK9riki_msgs3PID9serializeEPh) for i._ZNK9riki_msgs3PID9serializeEPh
    main.o(i._ZNK9riki_msgs3Imu9serializeEPh) refers to main.o(i._ZNK13geometry_msgs7Vector39serializeEPh) for geometry_msgs::Vector3::serialize(unsigned char*) const
    main.o(.ARM.exidx) refers to main.o(i._ZNK9riki_msgs3Imu9serializeEPh) for i._ZNK9riki_msgs3Imu9serializeEPh
    main.o(i._ZN9riki_msgs3Imu11deserializeEPh) refers to main.o(i._ZN13geometry_msgs7Vector311deserializeEPh) for geometry_msgs::Vector3::deserialize(unsigned char*)
    main.o(.ARM.exidx) refers to main.o(i._ZN9riki_msgs3Imu11deserializeEPh) for i._ZN9riki_msgs3Imu11deserializeEPh
    main.o(i._ZN9riki_msgs3Imu7getTypeEv) refers to main.o(.constdata__ZZN9riki_msgs3Imu7getTypeEvEs) for riki_msgs::Imu::getType()::string
    main.o(.ARM.exidx) refers to main.o(i._ZN9riki_msgs3Imu7getTypeEv) for i._ZN9riki_msgs3Imu7getTypeEv
    main.o(i._ZN9riki_msgs3Imu6getMD5Ev) refers to main.o(.constdata__ZZN9riki_msgs3Imu6getMD5EvEs) for riki_msgs::Imu::getMD5()::string
    main.o(.ARM.exidx) refers to main.o(i._ZN9riki_msgs3Imu6getMD5Ev) for i._ZN9riki_msgs3Imu6getMD5Ev
    main.o(.ARM.exidx) refers to main.o(i._ZNK9riki_msgs7Battery9serializeEPh) for i._ZNK9riki_msgs7Battery9serializeEPh
    main.o(.ARM.exidx) refers to main.o(i._ZN9riki_msgs7Battery11deserializeEPh) for i._ZN9riki_msgs7Battery11deserializeEPh
    main.o(i._ZN9riki_msgs7Battery7getTypeEv) refers to main.o(.constdata__ZZN9riki_msgs7Battery7getTypeEvEs) for riki_msgs::Battery::getType()::string
    main.o(.ARM.exidx) refers to main.o(i._ZN9riki_msgs7Battery7getTypeEv) for i._ZN9riki_msgs7Battery7getTypeEv
    main.o(i._ZN9riki_msgs7Battery6getMD5Ev) refers to main.o(.constdata__ZZN9riki_msgs7Battery6getMD5EvEs) for riki_msgs::Battery::getMD5()::string
    main.o(.ARM.exidx) refers to main.o(i._ZN9riki_msgs7Battery6getMD5Ev) for i._ZN9riki_msgs7Battery6getMD5Ev
    accelstepper.o(.constdata__ZTV12AccelStepper) refers to accelstepper.o(.constdata__ZTI12AccelStepper) for typeinfo for AccelStepper
    accelstepper.o(.constdata__ZTV12AccelStepper) refers to accelstepper.o(i._ZN12AccelStepper14disableOutputsEv) for AccelStepper::disableOutputs()
    accelstepper.o(.constdata__ZTV12AccelStepper) refers to accelstepper.o(i._ZN12AccelStepper13enableOutputsEv) for AccelStepper::enableOutputs()
    accelstepper.o(.constdata__ZTV12AccelStepper) refers to accelstepper.o(i._ZN12AccelStepper13setOutputPinsEh) for AccelStepper::setOutputPins(unsigned char)
    accelstepper.o(.constdata__ZTV12AccelStepper) refers to accelstepper.o(i._ZN12AccelStepper4stepEl) for AccelStepper::step(long)
    accelstepper.o(.constdata__ZTV12AccelStepper) refers to accelstepper.o(i._ZN12AccelStepper5step0El) for AccelStepper::step0(long)
    accelstepper.o(.constdata__ZTV12AccelStepper) refers to accelstepper.o(i._ZN12AccelStepper5step1El) for AccelStepper::step1(long)
    accelstepper.o(.constdata__ZTV12AccelStepper) refers to accelstepper.o(i._ZN12AccelStepper5step2El) for AccelStepper::step2(long)
    accelstepper.o(.constdata__ZTV12AccelStepper) refers to accelstepper.o(i._ZN12AccelStepper5step3El) for AccelStepper::step3(long)
    accelstepper.o(.constdata__ZTV12AccelStepper) refers to accelstepper.o(i._ZN12AccelStepper5step4El) for AccelStepper::step4(long)
    accelstepper.o(.constdata__ZTV12AccelStepper) refers to accelstepper.o(i._ZN12AccelStepper5step6El) for AccelStepper::step6(long)
    accelstepper.o(.constdata__ZTV12AccelStepper) refers to accelstepper.o(i._ZN12AccelStepper5step8El) for AccelStepper::step8(long)
    accelstepper.o(.constdata__ZTI12AccelStepper) refers to lib_rtti_impl.o(.constdata__ZTVN10__cxxabiv117__class_type_infoE) for vtable for __cxxabiv1::__class_type_info
    accelstepper.o(.constdata__ZTI12AccelStepper) refers to accelstepper.o(.constdata__ZTS12AccelStepper) for typeinfo name for AccelStepper
    servo.o(.ARM.exidx) refers to servo.o(i._ZNK5Servo8attachedEv) for i._ZNK5Servo8attachedEv
    odrivearduino.o(i._ZlsIfER5PrintS1_T_) refers to f2d.o(x$fpl$f2d) for __aeabi_f2d
    odrivearduino.o(i._ZlsIfER5PrintS1_T_) refers to print.o(i._ZN5Print5printEdi) for Print::print(double, int)
    odrivearduino.o(.ARM.exidx) refers to odrivearduino.o(i._ZlsIfER5PrintS1_T_) for i._ZlsIfER5PrintS1_T_
    odrivearduino.o(t._ZlsIPKcER5PrintS3_T_) refers to print.o(i._ZN5Print5printEPKc) for Print::print(const char*)
    odrivearduino.o(.ARM.exidx) refers to odrivearduino.o(t._ZlsIPKcER5PrintS3_T_) for t._ZlsIPKcER5PrintS3_T_
    odrivearduino.o(t._ZlsIiER5PrintS1_T_) refers to print.o(i._ZN5Print5printEii) for Print::print(int, int)
    odrivearduino.o(.ARM.exidx) refers to odrivearduino.o(t._ZlsIiER5PrintS1_T_) for t._ZlsIiER5PrintS1_T_
    print.o(.constdata__ZTV5Print) refers to print.o(.constdata__ZTI5Print) for typeinfo for Print
    print.o(.constdata__ZTV5Print) refers to pure_virt.o(i.__cxa_pure_virtual) for __cxa_pure_virtual
    print.o(.constdata__ZTV5Print) refers to print.o(i._ZN5Print5writeEPKc) for Print::write(const char*)
    print.o(.constdata__ZTV5Print) refers to print.o(i._ZN5Print5writeEPKvj) for Print::write(const void*, unsigned)
    print.o(.constdata__ZTI5Print) refers to lib_rtti_impl.o(.constdata__ZTVN10__cxxabiv117__class_type_infoE) for vtable for __cxxabiv1::__class_type_info
    print.o(.constdata__ZTI5Print) refers to print.o(.constdata__ZTS5Print) for typeinfo name for Print
    wstring.o(i.isspace) refers to rt_ctype_table.o(.text) for __rt_ctype_table
    wstring.o(.ARM.exidx) refers to wstring.o(i.isspace) for i.isspace
    wstring.o(.ARM.exidx) refers to wstring.o(i._ZN6String4initEv) for i._ZN6String4initEv
    wstring.o(i._ZSt6strstrPcPKc) refers to strstr.o(.text) for strstr
    wstring.o(.ARM.exidx) refers to wstring.o(i._ZSt6strstrPcPKc) for i._ZSt6strstrPcPKc
    stream.o(i._ZN6StringpLEc) refers to wstring.o(i._ZN6String6concatEc) for String::concat(char)
    stream.o(.ARM.exidx) refers to stream.o(i._ZN6StringpLEc) for i._ZN6StringpLEc
    hardwareserial.o(.constdata__ZTV14HardwareSerial) refers to hardwareserial.o(.constdata__ZTI14HardwareSerial) for typeinfo for HardwareSerial
    hardwareserial.o(.constdata__ZTV14HardwareSerial) refers to hardwareserial.o(i._ZN14HardwareSerial5writeEh) for HardwareSerial::write(unsigned char)
    hardwareserial.o(.constdata__ZTV14HardwareSerial) refers to print.o(i._ZN5Print5writeEPKc) for Print::write(const char*)
    hardwareserial.o(.constdata__ZTV14HardwareSerial) refers to print.o(i._ZN5Print5writeEPKvj) for Print::write(const void*, unsigned)
    hardwareserial.o(.constdata__ZTV14HardwareSerial) refers to hardwareserial.o(i._ZN14HardwareSerial9availableEv) for HardwareSerial::available()
    hardwareserial.o(.constdata__ZTV14HardwareSerial) refers to hardwareserial.o(i._ZN14HardwareSerial4readEv) for HardwareSerial::read()
    hardwareserial.o(.constdata__ZTV14HardwareSerial) refers to hardwareserial.o(i._ZN14HardwareSerial4peekEv) for HardwareSerial::peek()
    hardwareserial.o(.constdata__ZTV14HardwareSerial) refers to hardwareserial.o(i._ZN14HardwareSerial5flushEv) for HardwareSerial::flush()
    hardwareserial.o(.constdata__ZTV6Stream) refers to hardwareserial.o(.constdata__ZTI6Stream) for typeinfo for Stream
    hardwareserial.o(.constdata__ZTV6Stream) refers to pure_virt.o(i.__cxa_pure_virtual) for __cxa_pure_virtual
    hardwareserial.o(.constdata__ZTV6Stream) refers to print.o(i._ZN5Print5writeEPKc) for Print::write(const char*)
    hardwareserial.o(.constdata__ZTV6Stream) refers to print.o(i._ZN5Print5writeEPKvj) for Print::write(const void*, unsigned)
    hardwareserial.o(.constdata__ZTI14HardwareSerial) refers to lib_rtti_impl.o(.constdata__ZTVN10__cxxabiv120__si_class_type_infoE) for vtable for __cxxabiv1::__si_class_type_info
    hardwareserial.o(.constdata__ZTI14HardwareSerial) refers to hardwareserial.o(.constdata__ZTS14HardwareSerial) for typeinfo name for HardwareSerial
    hardwareserial.o(.constdata__ZTI14HardwareSerial) refers to hardwareserial.o(.constdata__ZTI6Stream) for typeinfo for Stream
    hardwareserial.o(.constdata__ZTI6Stream) refers to lib_rtti_impl.o(.constdata__ZTVN10__cxxabiv120__si_class_type_infoE) for vtable for __cxxabiv1::__si_class_type_info
    hardwareserial.o(.constdata__ZTI6Stream) refers to hardwareserial.o(.constdata__ZTS6Stream) for typeinfo name for Stream
    hardwareserial.o(.constdata__ZTI6Stream) refers to print.o(.constdata__ZTI5Print) for typeinfo for Print
    wirebase.o(.constdata__ZTV8WireBase) refers to wirebase.o(.constdata__ZTI8WireBase) for typeinfo for WireBase
    wirebase.o(.constdata__ZTV8WireBase) refers to pure_virt.o(i.__cxa_pure_virtual) for __cxa_pure_virtual
    wirebase.o(.constdata__ZTV8WireBase) refers to wirebase.o(i._ZN8WireBase5beginEh) for WireBase::begin(unsigned char)
    wirebase.o(.constdata__ZTI8WireBase) refers to lib_rtti_impl.o(.constdata__ZTVN10__cxxabiv117__class_type_infoE) for vtable for __cxxabiv1::__class_type_info
    wirebase.o(.constdata__ZTI8WireBase) refers to wirebase.o(.constdata__ZTS8WireBase) for typeinfo name for WireBase
    wire.o(.constdata__ZTV7TwoWire) refers to wire.o(.constdata__ZTI7TwoWire) for typeinfo for TwoWire
    wire.o(.constdata__ZTV7TwoWire) refers to wire.o(i._ZN7TwoWire7processEv) for TwoWire::process()
    wire.o(.constdata__ZTV7TwoWire) refers to wire.o(i._ZN7TwoWire5beginEh) for TwoWire::begin(unsigned char)
    wire.o(.constdata__ZTI7TwoWire) refers to lib_rtti_impl.o(.constdata__ZTVN10__cxxabiv120__si_class_type_infoE) for vtable for __cxxabiv1::__si_class_type_info
    wire.o(.constdata__ZTI7TwoWire) refers to wire.o(.constdata__ZTS7TwoWire) for typeinfo name for TwoWire
    wire.o(.constdata__ZTI7TwoWire) refers to wirebase.o(.constdata__ZTI8WireBase) for typeinfo for WireBase
    lib_rtti_impl.o(.constdata__ZTVN10__cxxabiv123__fundamental_type_infoE) refers to lib_rtti_impl.o(.constdata__ZTIN10__cxxabiv123__fundamental_type_infoE) for typeinfo for __cxxabiv1::__fundamental_type_info
    lib_rtti_impl.o(.constdata__ZTVN10__cxxabiv123__fundamental_type_infoE) refers to lib_rtti_impl.o(i._ZN10__cxxabiv123__fundamental_type_infoD1Ev) for __cxxabiv1::__fundamental_type_info::~__fundamental_type_info()
    lib_rtti_impl.o(.constdata__ZTVN10__cxxabiv123__fundamental_type_infoE) refers to lib_rtti_impl.o(i._ZN10__cxxabiv123__fundamental_type_infoD0Ev) for __cxxabiv1::__fundamental_type_info::~__fundamental_type_info__deallocating()
    lib_rtti_impl.o(.constdata__ZTVN10__cxxabiv117__array_type_infoE) refers to lib_rtti_impl.o(.constdata__ZTIN10__cxxabiv117__array_type_infoE) for typeinfo for __cxxabiv1::__array_type_info
    lib_rtti_impl.o(.constdata__ZTVN10__cxxabiv117__array_type_infoE) refers to lib_rtti_impl.o(i._ZN10__cxxabiv117__array_type_infoD1Ev) for __cxxabiv1::__array_type_info::~__array_type_info()
    lib_rtti_impl.o(.constdata__ZTVN10__cxxabiv117__array_type_infoE) refers to lib_rtti_impl.o(i._ZN10__cxxabiv117__array_type_infoD0Ev) for __cxxabiv1::__array_type_info::~__array_type_info__deallocating()
    lib_rtti_impl.o(.constdata__ZTVN10__cxxabiv120__function_type_infoE) refers to lib_rtti_impl.o(.constdata__ZTIN10__cxxabiv120__function_type_infoE) for typeinfo for __cxxabiv1::__function_type_info
    lib_rtti_impl.o(.constdata__ZTVN10__cxxabiv120__function_type_infoE) refers to lib_rtti_impl.o(i._ZN10__cxxabiv120__function_type_infoD1Ev) for __cxxabiv1::__function_type_info::~__function_type_info()
    lib_rtti_impl.o(.constdata__ZTVN10__cxxabiv120__function_type_infoE) refers to lib_rtti_impl.o(i._ZN10__cxxabiv120__function_type_infoD0Ev) for __cxxabiv1::__function_type_info::~__function_type_info__deallocating()
    lib_rtti_impl.o(.constdata__ZTVN10__cxxabiv116__enum_type_infoE) refers to lib_rtti_impl.o(.constdata__ZTIN10__cxxabiv116__enum_type_infoE) for typeinfo for __cxxabiv1::__enum_type_info
    lib_rtti_impl.o(.constdata__ZTVN10__cxxabiv116__enum_type_infoE) refers to lib_rtti_impl.o(i._ZN10__cxxabiv116__enum_type_infoD1Ev) for __cxxabiv1::__enum_type_info::~__enum_type_info()
    lib_rtti_impl.o(.constdata__ZTVN10__cxxabiv116__enum_type_infoE) refers to lib_rtti_impl.o(i._ZN10__cxxabiv116__enum_type_infoD0Ev) for __cxxabiv1::__enum_type_info::~__enum_type_info__deallocating()
    lib_rtti_impl.o(.constdata__ZTVN10__cxxabiv117__class_type_infoE) refers to lib_rtti_impl.o(.constdata__ZTIN10__cxxabiv117__class_type_infoE) for typeinfo for __cxxabiv1::__class_type_info
    lib_rtti_impl.o(.constdata__ZTVN10__cxxabiv117__class_type_infoE) refers to lib_rtti_impl.o(i._ZN10__cxxabiv117__class_type_infoD1Ev) for __cxxabiv1::__class_type_info::~__class_type_info()
    lib_rtti_impl.o(.constdata__ZTVN10__cxxabiv117__class_type_infoE) refers to lib_rtti_impl.o(i._ZN10__cxxabiv117__class_type_infoD0Ev) for __cxxabiv1::__class_type_info::~__class_type_info__deallocating()
    lib_rtti_impl.o(.constdata__ZTVN10__cxxabiv120__si_class_type_infoE) refers to lib_rtti_impl.o(.constdata__ZTIN10__cxxabiv120__si_class_type_infoE) for typeinfo for __cxxabiv1::__si_class_type_info
    lib_rtti_impl.o(.constdata__ZTVN10__cxxabiv120__si_class_type_infoE) refers to lib_rtti_impl.o(i._ZN10__cxxabiv120__si_class_type_infoD1Ev) for __cxxabiv1::__si_class_type_info::~__si_class_type_info()
    lib_rtti_impl.o(.constdata__ZTVN10__cxxabiv120__si_class_type_infoE) refers to lib_rtti_impl.o(i._ZN10__cxxabiv120__si_class_type_infoD0Ev) for __cxxabiv1::__si_class_type_info::~__si_class_type_info__deallocating()
    lib_rtti_impl.o(.constdata__ZTVN10__cxxabiv121__vmi_class_type_infoE) refers to lib_rtti_impl.o(.constdata__ZTIN10__cxxabiv121__vmi_class_type_infoE) for typeinfo for __cxxabiv1::__vmi_class_type_info
    lib_rtti_impl.o(.constdata__ZTVN10__cxxabiv121__vmi_class_type_infoE) refers to lib_rtti_impl.o(i._ZN10__cxxabiv121__vmi_class_type_infoD1Ev) for __cxxabiv1::__vmi_class_type_info::~__vmi_class_type_info()
    lib_rtti_impl.o(.constdata__ZTVN10__cxxabiv121__vmi_class_type_infoE) refers to lib_rtti_impl.o(i._ZN10__cxxabiv121__vmi_class_type_infoD0Ev) for __cxxabiv1::__vmi_class_type_info::~__vmi_class_type_info__deallocating()
    lib_rtti_impl.o(.constdata__ZTVN10__cxxabiv117__pbase_type_infoE) refers to lib_rtti_impl.o(.constdata__ZTIN10__cxxabiv117__pbase_type_infoE) for typeinfo for __cxxabiv1::__pbase_type_info
    lib_rtti_impl.o(.constdata__ZTVN10__cxxabiv117__pbase_type_infoE) refers to lib_rtti_impl.o(i._ZN10__cxxabiv117__pbase_type_infoD1Ev) for __cxxabiv1::__pbase_type_info::~__pbase_type_info()
    lib_rtti_impl.o(.constdata__ZTVN10__cxxabiv117__pbase_type_infoE) refers to lib_rtti_impl.o(i._ZN10__cxxabiv117__pbase_type_infoD0Ev) for __cxxabiv1::__pbase_type_info::~__pbase_type_info__deallocating()
    lib_rtti_impl.o(.constdata__ZTVN10__cxxabiv119__pointer_type_infoE) refers to lib_rtti_impl.o(.constdata__ZTIN10__cxxabiv119__pointer_type_infoE) for typeinfo for __cxxabiv1::__pointer_type_info
    lib_rtti_impl.o(.constdata__ZTVN10__cxxabiv119__pointer_type_infoE) refers to lib_rtti_impl.o(i._ZN10__cxxabiv119__pointer_type_infoD1Ev) for __cxxabiv1::__pointer_type_info::~__pointer_type_info()
    lib_rtti_impl.o(.constdata__ZTVN10__cxxabiv119__pointer_type_infoE) refers to lib_rtti_impl.o(i._ZN10__cxxabiv119__pointer_type_infoD0Ev) for __cxxabiv1::__pointer_type_info::~__pointer_type_info__deallocating()
    lib_rtti_impl.o(.constdata__ZTVN10__cxxabiv129__pointer_to_member_type_infoE) refers to lib_rtti_impl.o(.constdata__ZTIN10__cxxabiv129__pointer_to_member_type_infoE) for typeinfo for __cxxabiv1::__pointer_to_member_type_info
    lib_rtti_impl.o(.constdata__ZTVN10__cxxabiv129__pointer_to_member_type_infoE) refers to lib_rtti_impl.o(i._ZN10__cxxabiv129__pointer_to_member_type_infoD1Ev) for __cxxabiv1::__pointer_to_member_type_info::~__pointer_to_member_type_info()
    lib_rtti_impl.o(.constdata__ZTVN10__cxxabiv129__pointer_to_member_type_infoE) refers to lib_rtti_impl.o(i._ZN10__cxxabiv129__pointer_to_member_type_infoD0Ev) for __cxxabiv1::__pointer_to_member_type_info::~__pointer_to_member_type_info__deallocating()
    lib_rtti_impl.o(.ARM.exidx) refers to lib_rtti_impl.o(i._ZNSt9type_infodlEPv) for i._ZNSt9type_infodlEPv
    lib_rtti_impl.o(.constdata__ZTIN10__cxxabiv123__fundamental_type_infoE) refers to lib_rtti_impl.o(.constdata__ZTVN10__cxxabiv120__si_class_type_infoE) for vtable for __cxxabiv1::__si_class_type_info
    lib_rtti_impl.o(.constdata__ZTIN10__cxxabiv123__fundamental_type_infoE) refers to lib_rtti_impl.o(.constdata__ZTSN10__cxxabiv123__fundamental_type_infoE) for typeinfo name for __cxxabiv1::__fundamental_type_info
    lib_rtti_impl.o(.constdata__ZTIN10__cxxabiv123__fundamental_type_infoE) refers to type_info_dtor.o(.constdata__ZTISt9type_info) for typeinfo for std::type_info
    lib_rtti_impl.o(.constdata__ZTIN10__cxxabiv117__array_type_infoE) refers to lib_rtti_impl.o(.constdata__ZTVN10__cxxabiv120__si_class_type_infoE) for vtable for __cxxabiv1::__si_class_type_info
    lib_rtti_impl.o(.constdata__ZTIN10__cxxabiv117__array_type_infoE) refers to lib_rtti_impl.o(.constdata__ZTSN10__cxxabiv117__array_type_infoE) for typeinfo name for __cxxabiv1::__array_type_info
    lib_rtti_impl.o(.constdata__ZTIN10__cxxabiv117__array_type_infoE) refers to type_info_dtor.o(.constdata__ZTISt9type_info) for typeinfo for std::type_info
    lib_rtti_impl.o(.constdata__ZTIN10__cxxabiv120__function_type_infoE) refers to lib_rtti_impl.o(.constdata__ZTVN10__cxxabiv120__si_class_type_infoE) for vtable for __cxxabiv1::__si_class_type_info
    lib_rtti_impl.o(.constdata__ZTIN10__cxxabiv120__function_type_infoE) refers to lib_rtti_impl.o(.constdata__ZTSN10__cxxabiv120__function_type_infoE) for typeinfo name for __cxxabiv1::__function_type_info
    lib_rtti_impl.o(.constdata__ZTIN10__cxxabiv120__function_type_infoE) refers to type_info_dtor.o(.constdata__ZTISt9type_info) for typeinfo for std::type_info
    lib_rtti_impl.o(.constdata__ZTIN10__cxxabiv116__enum_type_infoE) refers to lib_rtti_impl.o(.constdata__ZTVN10__cxxabiv120__si_class_type_infoE) for vtable for __cxxabiv1::__si_class_type_info
    lib_rtti_impl.o(.constdata__ZTIN10__cxxabiv116__enum_type_infoE) refers to lib_rtti_impl.o(.constdata__ZTSN10__cxxabiv116__enum_type_infoE) for typeinfo name for __cxxabiv1::__enum_type_info
    lib_rtti_impl.o(.constdata__ZTIN10__cxxabiv116__enum_type_infoE) refers to type_info_dtor.o(.constdata__ZTISt9type_info) for typeinfo for std::type_info
    lib_rtti_impl.o(.constdata__ZTIN10__cxxabiv117__class_type_infoE) refers to lib_rtti_impl.o(.constdata__ZTVN10__cxxabiv120__si_class_type_infoE) for vtable for __cxxabiv1::__si_class_type_info
    lib_rtti_impl.o(.constdata__ZTIN10__cxxabiv117__class_type_infoE) refers to lib_rtti_impl.o(.constdata__ZTSN10__cxxabiv117__class_type_infoE) for typeinfo name for __cxxabiv1::__class_type_info
    lib_rtti_impl.o(.constdata__ZTIN10__cxxabiv117__class_type_infoE) refers to type_info_dtor.o(.constdata__ZTISt9type_info) for typeinfo for std::type_info
    lib_rtti_impl.o(.constdata__ZTIN10__cxxabiv120__si_class_type_infoE) refers to lib_rtti_impl.o(.constdata__ZTVN10__cxxabiv120__si_class_type_infoE) for vtable for __cxxabiv1::__si_class_type_info
    lib_rtti_impl.o(.constdata__ZTIN10__cxxabiv120__si_class_type_infoE) refers to lib_rtti_impl.o(.constdata__ZTSN10__cxxabiv120__si_class_type_infoE) for typeinfo name for __cxxabiv1::__si_class_type_info
    lib_rtti_impl.o(.constdata__ZTIN10__cxxabiv120__si_class_type_infoE) refers to lib_rtti_impl.o(.constdata__ZTIN10__cxxabiv117__class_type_infoE) for typeinfo for __cxxabiv1::__class_type_info
    lib_rtti_impl.o(.constdata__ZTIN10__cxxabiv121__vmi_class_type_infoE) refers to lib_rtti_impl.o(.constdata__ZTVN10__cxxabiv120__si_class_type_infoE) for vtable for __cxxabiv1::__si_class_type_info
    lib_rtti_impl.o(.constdata__ZTIN10__cxxabiv121__vmi_class_type_infoE) refers to lib_rtti_impl.o(.constdata__ZTSN10__cxxabiv121__vmi_class_type_infoE) for typeinfo name for __cxxabiv1::__vmi_class_type_info
    lib_rtti_impl.o(.constdata__ZTIN10__cxxabiv121__vmi_class_type_infoE) refers to lib_rtti_impl.o(.constdata__ZTIN10__cxxabiv117__class_type_infoE) for typeinfo for __cxxabiv1::__class_type_info
    lib_rtti_impl.o(.constdata__ZTIN10__cxxabiv117__pbase_type_infoE) refers to lib_rtti_impl.o(.constdata__ZTVN10__cxxabiv120__si_class_type_infoE) for vtable for __cxxabiv1::__si_class_type_info
    lib_rtti_impl.o(.constdata__ZTIN10__cxxabiv117__pbase_type_infoE) refers to lib_rtti_impl.o(.constdata__ZTSN10__cxxabiv117__pbase_type_infoE) for typeinfo name for __cxxabiv1::__pbase_type_info
    lib_rtti_impl.o(.constdata__ZTIN10__cxxabiv117__pbase_type_infoE) refers to type_info_dtor.o(.constdata__ZTISt9type_info) for typeinfo for std::type_info
    lib_rtti_impl.o(.constdata__ZTIN10__cxxabiv119__pointer_type_infoE) refers to lib_rtti_impl.o(.constdata__ZTVN10__cxxabiv120__si_class_type_infoE) for vtable for __cxxabiv1::__si_class_type_info
    lib_rtti_impl.o(.constdata__ZTIN10__cxxabiv119__pointer_type_infoE) refers to lib_rtti_impl.o(.constdata__ZTSN10__cxxabiv119__pointer_type_infoE) for typeinfo name for __cxxabiv1::__pointer_type_info
    lib_rtti_impl.o(.constdata__ZTIN10__cxxabiv119__pointer_type_infoE) refers to lib_rtti_impl.o(.constdata__ZTIN10__cxxabiv117__pbase_type_infoE) for typeinfo for __cxxabiv1::__pbase_type_info
    lib_rtti_impl.o(.constdata__ZTIN10__cxxabiv129__pointer_to_member_type_infoE) refers to lib_rtti_impl.o(.constdata__ZTVN10__cxxabiv120__si_class_type_infoE) for vtable for __cxxabiv1::__si_class_type_info
    lib_rtti_impl.o(.constdata__ZTIN10__cxxabiv129__pointer_to_member_type_infoE) refers to lib_rtti_impl.o(.constdata__ZTSN10__cxxabiv129__pointer_to_member_type_infoE) for typeinfo name for __cxxabiv1::__pointer_to_member_type_info
    lib_rtti_impl.o(.constdata__ZTIN10__cxxabiv129__pointer_to_member_type_infoE) refers to lib_rtti_impl.o(.constdata__ZTIN10__cxxabiv117__pbase_type_infoE) for typeinfo for __cxxabiv1::__pbase_type_info
    lib_rtti_impl.o(i.__ARM_common_noexcept_landing) refers to arm_exceptions_callterm.o(.text) for __cxa_call_terminate
    lib_rtti_impl.o(.ARM.exidx) refers to lib_rtti_impl.o(i.__ARM_common_noexcept_landing) for i.__ARM_common_noexcept_landing
    bad_alloc_dtor.o(.constdata__ZTVSt9bad_alloc) refers to bad_alloc_dtor.o(.constdata__ZTISt9bad_alloc) for typeinfo for std::bad_alloc
    bad_alloc_dtor.o(.constdata__ZTVSt9bad_alloc) refers to bad_alloc_dtor.o(i._ZNSt9bad_allocD1Ev) for std::bad_alloc::~bad_alloc()
    bad_alloc_dtor.o(.constdata__ZTVSt9bad_alloc) refers to bad_alloc_dtor.o(i._ZNSt9bad_allocD0Ev) for std::bad_alloc::~bad_alloc__deallocating()
    bad_alloc_dtor.o(.constdata__ZTVSt9bad_alloc) refers to bad_alloc_what.o(i._ZNKSt9bad_alloc4whatEv) for std::bad_alloc::what() const
    bad_alloc_dtor.o(.constdata__ZTISt9bad_alloc) refers to lib_rtti_impl.o(.constdata__ZTVN10__cxxabiv120__si_class_type_infoE) for vtable for __cxxabiv1::__si_class_type_info
    bad_alloc_dtor.o(.constdata__ZTISt9bad_alloc) refers to bad_alloc_dtor.o(.constdata__ZTSSt9bad_alloc) for typeinfo name for std::bad_alloc
    bad_alloc_dtor.o(.constdata__ZTISt9bad_alloc) refers to exception_dtor.o(.constdata__ZTISt9exception) for typeinfo for std::exception
    type_info_dtor.o(.constdata__ZTVSt9type_info) refers to type_info_dtor.o(.constdata__ZTISt9type_info) for typeinfo for std::type_info
    type_info_dtor.o(.constdata__ZTVSt9type_info) refers to type_info_dtor.o(i._ZNSt9type_infoD1Ev) for std::type_info::~type_info()
    type_info_dtor.o(.constdata__ZTVSt9type_info) refers to type_info_dtor.o(i._ZNSt9type_infoD0Ev) for std::type_info::~type_info__deallocating()
    type_info_dtor.o(.constdata__ZTISt9type_info) refers to lib_rtti_impl.o(.constdata__ZTVN10__cxxabiv117__class_type_infoE) for vtable for __cxxabiv1::__class_type_info
    type_info_dtor.o(.constdata__ZTISt9type_info) refers to type_info_dtor.o(.constdata__ZTSSt9type_info) for typeinfo name for std::type_info
    exception_dtor.o(.constdata__ZTVSt9exception) refers to exception_dtor.o(.constdata__ZTISt9exception) for typeinfo for std::exception
    exception_dtor.o(.constdata__ZTVSt9exception) refers to exception_dtor.o(i._ZNSt9exceptionD1Ev) for std::exception::~exception()
    exception_dtor.o(.constdata__ZTVSt9exception) refers to exception_dtor.o(i._ZNSt9exceptionD0Ev) for std::exception::~exception__deallocating()
    exception_dtor.o(.constdata__ZTVSt9exception) refers to exception_what.o(i._ZNKSt9exception4whatEv) for std::exception::what() const
    exception_dtor.o(.constdata__ZTISt9exception) refers to lib_rtti_impl.o(.constdata__ZTVN10__cxxabiv117__class_type_infoE) for vtable for __cxxabiv1::__class_type_info
    exception_dtor.o(.constdata__ZTISt9exception) refers to exception_dtor.o(.constdata__ZTSSt9exception) for typeinfo name for std::exception


==============================================================================

Removing Unused input sections from the image.

    Removing main.o(.rev16_text), (4 bytes).
    Removing main.o(.revsh_text), (4 bytes).
    Removing main.o(.rrx_text), (6 bytes).
    Removing main.o(i._Z10publishBATv), (36 bytes).
    Removing main.o(i._Z11print_debugv), (252 bytes).
    Removing main.o(i._Z11publish_imuv), (76 bytes).
    Removing main.o(i._Z9check_imuv), (184 bytes).
    Removing main.o(.ARM.exidx), (8 bytes).
    Removing main.o(.ARM.exidx), (8 bytes).
    Removing main.o(.ARM.exidx), (8 bytes).
    Removing main.o(.ARM.exidx), (8 bytes).
    Removing main.o(.ARM.exidx), (8 bytes).
    Removing main.o(.ARM.exidx), (8 bytes).
    Removing main.o(.ARM.exidx), (8 bytes).
    Removing main.o(.ARM.exidx), (8 bytes).
    Removing main.o(.ARM.exidx), (8 bytes).
    Removing main.o(.ARM.exidx), (8 bytes).
    Removing main.o(.ARM.exidx), (8 bytes).
    Removing main.o(.ARM.exidx), (8 bytes).
    Removing accelstepper.o(.rev16_text), (4 bytes).
    Removing accelstepper.o(.revsh_text), (4 bytes).
    Removing accelstepper.o(.rrx_text), (6 bytes).
    Removing accelstepper.o(i._ZN12AccelStepper11setMaxSpeedEf), (108 bytes).
    Removing accelstepper.o(i._ZN12AccelStepper12distanceToGoEv), (10 bytes).
    Removing accelstepper.o(i._ZN12AccelStepper12setEnablePinEh), (44 bytes).
    Removing accelstepper.o(i._ZN12AccelStepper13enableOutputsEv), (112 bytes).
    Removing accelstepper.o(i._ZN12AccelStepper13runToPositionEv), (18 bytes).
    Removing accelstepper.o(i._ZN12AccelStepper13setOutputPinsEh), (92 bytes).
    Removing accelstepper.o(i._ZN12AccelStepper14disableOutputsEv), (52 bytes).
    Removing accelstepper.o(i._ZN12AccelStepper14targetPositionEv), (6 bytes).
    Removing accelstepper.o(i._ZN12AccelStepper15computeNewSpeedEv), (332 bytes).
    Removing accelstepper.o(i._ZN12AccelStepper15currentPositionEv), (6 bytes).
    Removing accelstepper.o(i._ZN12AccelStepper15setAccelerationEf), (148 bytes).
    Removing accelstepper.o(i._ZN12AccelStepper15setPinsInvertedEbbb), (12 bytes).
    Removing accelstepper.o(i._ZN12AccelStepper15setPinsInvertedEbbbbb), (20 bytes).
    Removing accelstepper.o(i._ZN12AccelStepper16runToNewPositionEl), (22 bytes).
    Removing accelstepper.o(i._ZN12AccelStepper16setMinPulseWidthEj), (4 bytes).
    Removing accelstepper.o(i._ZN12AccelStepper18runSpeedToPositionEv), (42 bytes).
    Removing accelstepper.o(i._ZN12AccelStepper18setCurrentPositionEl), (24 bytes).
    Removing accelstepper.o(i._ZN12AccelStepper3runEv), (48 bytes).
    Removing accelstepper.o(i._ZN12AccelStepper4moveEl), (18 bytes).
    Removing accelstepper.o(i._ZN12AccelStepper4stepEl), (114 bytes).
    Removing accelstepper.o(i._ZN12AccelStepper4stopEv), (88 bytes).
    Removing accelstepper.o(i._ZN12AccelStepper5speedEv), (6 bytes).
    Removing accelstepper.o(i._ZN12AccelStepper5step0El), (32 bytes).
    Removing accelstepper.o(i._ZN12AccelStepper5step1El), (74 bytes).
    Removing accelstepper.o(i._ZN12AccelStepper5step2El), (78 bytes).
    Removing accelstepper.o(i._ZN12AccelStepper5step3El), (68 bytes).
    Removing accelstepper.o(i._ZN12AccelStepper5step4El), (78 bytes).
    Removing accelstepper.o(i._ZN12AccelStepper5step6El), (106 bytes).
    Removing accelstepper.o(i._ZN12AccelStepper5step8El), (126 bytes).
    Removing accelstepper.o(i._ZN12AccelStepper6moveToEl), (22 bytes).
    Removing accelstepper.o(i._ZN12AccelStepper8maxSpeedEv), (6 bytes).
    Removing accelstepper.o(i._ZN12AccelStepper8runSpeedEv), (68 bytes).
    Removing accelstepper.o(i._ZN12AccelStepper8setSpeedEf), (144 bytes).
    Removing accelstepper.o(i._ZN12AccelStepper9isRunningEv), (32 bytes).
    Removing accelstepper.o(i._ZN12AccelStepperC1EPFvvES1_), (156 bytes).
    Removing accelstepper.o(i._ZN12AccelStepperC1Ehhhhhb), (176 bytes).
    Removing accelstepper.o(.ARM.exidx), (8 bytes).
    Removing accelstepper.o(.ARM.exidx), (8 bytes).
    Removing accelstepper.o(.ARM.exidx), (8 bytes).
    Removing accelstepper.o(.ARM.exidx), (8 bytes).
    Removing accelstepper.o(.ARM.exidx), (8 bytes).
    Removing accelstepper.o(.ARM.exidx), (8 bytes).
    Removing accelstepper.o(.ARM.exidx), (8 bytes).
    Removing accelstepper.o(.ARM.exidx), (8 bytes).
    Removing accelstepper.o(.ARM.exidx), (8 bytes).
    Removing accelstepper.o(.ARM.exidx), (8 bytes).
    Removing accelstepper.o(.ARM.exidx), (8 bytes).
    Removing accelstepper.o(.ARM.exidx), (8 bytes).
    Removing accelstepper.o(.ARM.exidx), (8 bytes).
    Removing accelstepper.o(.ARM.exidx), (8 bytes).
    Removing accelstepper.o(.ARM.exidx), (8 bytes).
    Removing accelstepper.o(.ARM.exidx), (8 bytes).
    Removing accelstepper.o(.ARM.exidx), (8 bytes).
    Removing accelstepper.o(.ARM.exidx), (8 bytes).
    Removing accelstepper.o(.ARM.exidx), (8 bytes).
    Removing accelstepper.o(.ARM.exidx), (8 bytes).
    Removing accelstepper.o(.ARM.exidx), (8 bytes).
    Removing accelstepper.o(.ARM.exidx), (8 bytes).
    Removing accelstepper.o(.ARM.exidx), (8 bytes).
    Removing accelstepper.o(.ARM.exidx), (8 bytes).
    Removing accelstepper.o(.ARM.exidx), (8 bytes).
    Removing accelstepper.o(.ARM.exidx), (8 bytes).
    Removing accelstepper.o(.ARM.exidx), (8 bytes).
    Removing accelstepper.o(.ARM.exidx), (8 bytes).
    Removing accelstepper.o(.ARM.exidx), (8 bytes).
    Removing accelstepper.o(.ARM.exidx), (8 bytes).
    Removing accelstepper.o(.ARM.exidx), (8 bytes).
    Removing accelstepper.o(.ARM.exidx), (8 bytes).
    Removing accelstepper.o(.ARM.exidx), (8 bytes).
    Removing accelstepper.o(.ARM.exidx), (8 bytes).
    Removing accelstepper.o(.ARM.exidx), (8 bytes).
    Removing accelstepper.o(.ARM.exidx), (8 bytes).
    Removing multistepper.o(.rev16_text), (4 bytes).
    Removing multistepper.o(.revsh_text), (4 bytes).
    Removing multistepper.o(.rrx_text), (6 bytes).
    Removing multistepper.o(i._ZN12MultiStepper10addStepperER12AccelStepper), (34 bytes).
    Removing multistepper.o(i._ZN12MultiStepper18runSpeedToPositionEv), (18 bytes).
    Removing multistepper.o(i._ZN12MultiStepper3runEv), (46 bytes).
    Removing multistepper.o(i._ZN12MultiStepper6moveToEPl), (188 bytes).
    Removing multistepper.o(i._ZN12MultiStepperC1Ev), (8 bytes).
    Removing multistepper.o(.ARM.exidx), (8 bytes).
    Removing multistepper.o(.ARM.exidx), (8 bytes).
    Removing multistepper.o(.ARM.exidx), (8 bytes).
    Removing multistepper.o(.ARM.exidx), (8 bytes).
    Removing multistepper.o(.ARM.exidx), (8 bytes).
    Removing servo.o(.rev16_text), (4 bytes).
    Removing servo.o(.revsh_text), (4 bytes).
    Removing servo.o(.rrx_text), (6 bytes).
    Removing servo.o(i._ZN5Servo11resetFieldsEv), (28 bytes).
    Removing servo.o(i._ZN5Servo17writeMicrosecondsEf), (740 bytes).
    Removing servo.o(i._ZN5Servo17writeMicrosecondsEt), (680 bytes).
    Removing servo.o(i._ZN5Servo5writeEf), (178 bytes).
    Removing servo.o(i._ZN5Servo5writeEi), (82 bytes).
    Removing servo.o(i._ZN5Servo6attachEhttss), (948 bytes).
    Removing servo.o(i._ZN5Servo6detachEv), (64 bytes).
    Removing servo.o(i._ZN5ServoC1Ev), (14 bytes).
    Removing servo.o(i._ZNK5Servo16readMicrosecondsEv), (688 bytes).
    Removing servo.o(i._ZNK5Servo18readMicroseconds_fEv), (680 bytes).
    Removing servo.o(i._ZNK5Servo4readEv), (66 bytes).
    Removing servo.o(i._ZNK5Servo6read_fEv), (120 bytes).
    Removing servo.o(.ARM.exidx), (8 bytes).
    Removing servo.o(.ARM.exidx), (8 bytes).
    Removing servo.o(.ARM.exidx), (8 bytes).
    Removing servo.o(.ARM.exidx), (8 bytes).
    Removing servo.o(.ARM.exidx), (8 bytes).
    Removing servo.o(.ARM.exidx), (8 bytes).
    Removing servo.o(.ARM.exidx), (8 bytes).
    Removing servo.o(.ARM.exidx), (8 bytes).
    Removing servo.o(.ARM.exidx), (8 bytes).
    Removing servo.o(.ARM.exidx), (8 bytes).
    Removing servo.o(.ARM.exidx), (8 bytes).
    Removing servo.o(.ARM.exidx), (8 bytes).
    Removing duration.o(i._ZN3ros22normalizeSecNSecSignedERiS0_), (44 bytes).
    Removing duration.o(i._ZN3ros8DurationmIERKS0_), (38 bytes).
    Removing duration.o(i._ZN3ros8DurationmLEd), (88 bytes).
    Removing duration.o(i._ZN3ros8DurationpLERKS0_), (34 bytes).
    Removing duration.o(.ARM.exidx), (8 bytes).
    Removing duration.o(.ARM.exidx), (8 bytes).
    Removing duration.o(.ARM.exidx), (8 bytes).
    Removing duration.o(.ARM.exidx), (8 bytes).
    Removing time.o(i._ZN3ros4Time8fromNSecEi), (44 bytes).
    Removing time.o(i._ZN3ros4TimemIERKNS_8DurationE), (38 bytes).
    Removing time.o(i._ZN3ros4TimepLERKNS_8DurationE), (34 bytes).
    Removing time.o(.ARM.exidx), (8 bytes).
    Removing time.o(.ARM.exidx), (8 bytes).
    Removing time.o(.ARM.exidx), (8 bytes).
    Removing time.o(.ARM.exidx), (8 bytes).
    Removing odrivearduino.o(.rev16_text), (4 bytes).
    Removing odrivearduino.o(.revsh_text), (4 bytes).
    Removing odrivearduino.o(.rrx_text), (6 bytes).
    Removing odrivearduino.o(i._ZN13ODriveArduino10SetCurrentEif), (80 bytes).
    Removing odrivearduino.o(i._ZN13ODriveArduino11GetPositionEi), (76 bytes).
    Removing odrivearduino.o(i._ZN13ODriveArduino11SetPositionEif), (44 bytes).
    Removing odrivearduino.o(i._ZN13ODriveArduino11SetPositionEiff), (48 bytes).
    Removing odrivearduino.o(i._ZN13ODriveArduino11SetPositionEifff), (128 bytes).
    Removing odrivearduino.o(i._ZN13ODriveArduino15TrapezoidalMoveEif), (80 bytes).
    Removing odrivearduino.o(i._ZN13ODriveArduino7readIntEv), (30 bytes).
    Removing odrivearduino.o(i._ZN13ODriveArduino9run_stateEiibf), (212 bytes).
    Removing odrivearduino.o(.ARM.exidx), (8 bytes).
    Removing odrivearduino.o(.ARM.exidx), (8 bytes).
    Removing odrivearduino.o(.ARM.exidx), (8 bytes).
    Removing odrivearduino.o(.ARM.exidx), (8 bytes).
    Removing odrivearduino.o(.ARM.exidx), (8 bytes).
    Removing odrivearduino.o(.ARM.exidx), (8 bytes).
    Removing odrivearduino.o(.ARM.exidx), (8 bytes).
    Removing odrivearduino.o(.ARM.exidx), (8 bytes).
    Removing odrivearduino.o(.ARM.exidx), (8 bytes).
    Removing odrivearduino.o(.ARM.exidx), (8 bytes).
    Removing odrivearduino.o(.ARM.exidx), (8 bytes).
    Removing odrivearduino.o(.ARM.exidx), (8 bytes).
    Removing odrivearduino.o(.ARM.exidx), (8 bytes).
    Removing odrivearduino.o(.ARM.exidx), (8 bytes).
    Removing arduino.o(.rev16_text), (4 bytes).
    Removing arduino.o(.revsh_text), (4 bytes).
    Removing arduino.o(.rrx_text), (6 bytes).
    Removing arduino.o(i.analogRead), (60 bytes).
    Removing arduino.o(i.analogRead_DMA), (52 bytes).
    Removing arduino.o(i.analogWrite), (56 bytes).
    Removing arduino.o(i.fmap), (156 bytes).
    Removing arduino.o(i.map), (22 bytes).
    Removing arduino.o(i.pulseIn), (212 bytes).
    Removing arduino.o(i.shiftIn), (94 bytes).
    Removing arduino.o(i.shiftOut), (148 bytes).
    Removing arduino.o(i.yield), (2 bytes).
    Removing dtostrf.o(i.dtostrf), (68 bytes).
    Removing itoa.o(i.itoa), (20 bytes).
    Removing itoa.o(i.ltoa), (144 bytes).
    Removing itoa.o(i.ultoa), (106 bytes).
    Removing itoa.o(i.utoa), (20 bytes).
    Removing print.o(i._ZN5Print5printEPK19__FlashStringHelper), (16 bytes).
    Removing print.o(i._ZN5Print5printERK6String), (34 bytes).
    Removing print.o(i._ZN5Print5printERK9Printable), (18 bytes).
    Removing print.o(i._ZN5Print5printEhi), (22 bytes).
    Removing print.o(i._ZN5Print5printEji), (22 bytes).
    Removing print.o(i._ZN5Print5printEli), (22 bytes).
    Removing print.o(i._ZN5Print5printEmi), (22 bytes).
    Removing print.o(i._ZN5Print5printEyi), (54 bytes).
    Removing print.o(i._ZN5Print5writeEPKvj), (48 bytes).
    Removing print.o(i._ZN5Print6printfEPKcz), (48 bytes).
    Removing print.o(i._ZN5Print7printlnEPK19__FlashStringHelper), (28 bytes).
    Removing print.o(i._ZN5Print7printlnEPKc), (28 bytes).
    Removing print.o(i._ZN5Print7printlnERK6String), (28 bytes).
    Removing print.o(i._ZN5Print7printlnERK9Printable), (28 bytes).
    Removing print.o(i._ZN5Print7printlnEc), (28 bytes).
    Removing print.o(i._ZN5Print7printlnEdi), (52 bytes).
    Removing print.o(i._ZN5Print7printlnEhi), (36 bytes).
    Removing print.o(i._ZN5Print7printlnEii), (36 bytes).
    Removing print.o(i._ZN5Print7printlnEji), (36 bytes).
    Removing print.o(i._ZN5Print7printlnEli), (34 bytes).
    Removing print.o(i._ZN5Print7printlnEmi), (34 bytes).
    Removing print.o(i._ZN5Print7printlnEv), (28 bytes).
    Removing print.o(i._ZN5Print7printlnExi), (44 bytes).
    Removing print.o(i._ZN5Print7printlnEyi), (44 bytes).
    Removing print.o(.ARM.exidx), (8 bytes).
    Removing print.o(.ARM.exidx), (8 bytes).
    Removing print.o(.ARM.exidx), (8 bytes).
    Removing print.o(.ARM.exidx), (8 bytes).
    Removing print.o(.ARM.exidx), (8 bytes).
    Removing print.o(.ARM.exidx), (8 bytes).
    Removing print.o(.ARM.exidx), (8 bytes).
    Removing print.o(.ARM.exidx), (8 bytes).
    Removing print.o(.ARM.exidx), (8 bytes).
    Removing print.o(.ARM.exidx), (8 bytes).
    Removing print.o(.ARM.exidx), (8 bytes).
    Removing print.o(.ARM.exidx), (8 bytes).
    Removing print.o(.ARM.exidx), (8 bytes).
    Removing print.o(.ARM.exidx), (8 bytes).
    Removing print.o(.ARM.exidx), (8 bytes).
    Removing print.o(.ARM.exidx), (8 bytes).
    Removing print.o(.ARM.exidx), (8 bytes).
    Removing print.o(.ARM.exidx), (8 bytes).
    Removing print.o(.ARM.exidx), (8 bytes).
    Removing print.o(.ARM.exidx), (8 bytes).
    Removing print.o(.ARM.exidx), (8 bytes).
    Removing print.o(.ARM.exidx), (8 bytes).
    Removing print.o(.ARM.exidx), (8 bytes).
    Removing print.o(.ARM.exidx), (8 bytes).
    Removing print.o(.ARM.exidx), (8 bytes).
    Removing print.o(.ARM.exidx), (8 bytes).
    Removing print.o(.ARM.exidx), (8 bytes).
    Removing print.o(.ARM.exidx), (8 bytes).
    Removing print.o(.ARM.exidx), (8 bytes).
    Removing print.o(.ARM.exidx), (8 bytes).
    Removing print.o(.ARM.exidx), (8 bytes).
    Removing print.o(.ARM.exidx), (8 bytes).
    Removing wstring.o(i._ZN6String11toLowerCaseEv), (34 bytes).
    Removing wstring.o(i._ZN6String11toUpperCaseEv), (34 bytes).
    Removing wstring.o(i._ZN6String4copyEPK19__FlashStringHelperj), (42 bytes).
    Removing wstring.o(i._ZN6String4trimEv), (88 bytes).
    Removing wstring.o(i._ZN6String6concatEPK19__FlashStringHelper), (66 bytes).
    Removing wstring.o(i._ZN6String6concatEPKc), (32 bytes).
    Removing wstring.o(i._ZN6String6concatERKS_), (18 bytes).
    Removing wstring.o(i._ZN6String6concatEd), (64 bytes).
    Removing wstring.o(i._ZN6String6concatEf), (72 bytes).
    Removing wstring.o(i._ZN6String6concatEh), (36 bytes).
    Removing wstring.o(i._ZN6String6concatEi), (38 bytes).
    Removing wstring.o(i._ZN6String6concatEj), (38 bytes).
    Removing wstring.o(i._ZN6String6concatEl), (38 bytes).
    Removing wstring.o(i._ZN6String6concatEm), (38 bytes).
    Removing wstring.o(i._ZN6String6removeEj), (20 bytes).
    Removing wstring.o(i._ZN6String6removeEjj), (74 bytes).
    Removing wstring.o(i._ZN6String7replaceERKS_S1_), (300 bytes).
    Removing wstring.o(i._ZN6String7replaceEcc), (34 bytes).
    Removing wstring.o(i._ZN6String7sprintfEPKcz), (58 bytes).
    Removing wstring.o(i._ZN6String9setCharAtEjc), (12 bytes).
    Removing wstring.o(i._ZN6StringC1EPK19__FlashStringHelper), (24 bytes).
    Removing wstring.o(i._ZN6StringC1ERKS_), (24 bytes).
    Removing wstring.o(i._ZN6StringC1Ec), (34 bytes).
    Removing wstring.o(i._ZN6StringC1Edh), (66 bytes).
    Removing wstring.o(i._ZN6StringC1Efh), (74 bytes).
    Removing wstring.o(i._ZN6StringC1Ehh), (36 bytes).
    Removing wstring.o(i._ZN6StringC1Eih), (40 bytes).
    Removing wstring.o(i._ZN6StringC1Ejh), (40 bytes).
    Removing wstring.o(i._ZN6StringC1Elh), (40 bytes).
    Removing wstring.o(i._ZN6StringC1Emh), (40 bytes).
    Removing wstring.o(i._ZN6StringaSEPK19__FlashStringHelper), (38 bytes).
    Removing wstring.o(i._ZN6StringaSEPKc), (38 bytes).
    Removing wstring.o(i._ZN6StringaSERKS_), (40 bytes).
    Removing wstring.o(i._ZN6StringixEj), (32 bytes).
    Removing wstring.o(i._ZNK6String10startsWithERKS_), (30 bytes).
    Removing wstring.o(i._ZNK6String10startsWithERKS_j), (52 bytes).
    Removing wstring.o(i._ZNK6String11lastIndexOfERKS_), (22 bytes).
    Removing wstring.o(i._ZNK6String11lastIndexOfERKS_j), (94 bytes).
    Removing wstring.o(i._ZNK6String11lastIndexOfEc), (20 bytes).
    Removing wstring.o(i._ZNK6String11lastIndexOfEcj), (76 bytes).
    Removing wstring.o(i._ZNK6String16equalsIgnoreCaseERKS_), (80 bytes).
    Removing wstring.o(i._ZNK6String5toIntEv), (20 bytes).
    Removing wstring.o(i._ZNK6String6charAtEj), (16 bytes).
    Removing wstring.o(i._ZNK6String6equalsEPKc), (58 bytes).
    Removing wstring.o(i._ZNK6String6equalsERKS_), (32 bytes).
    Removing wstring.o(i._ZNK6String7indexOfERKS_), (18 bytes).
    Removing wstring.o(i._ZNK6String7indexOfERKS_j), (50 bytes).
    Removing wstring.o(i._ZNK6String7indexOfEc), (18 bytes).
    Removing wstring.o(i._ZNK6String7indexOfEcj), (56 bytes).
    Removing wstring.o(i._ZNK6String8endsWithERKS_), (52 bytes).
    Removing wstring.o(i._ZNK6String8getBytesEPhjj), (72 bytes).
    Removing wstring.o(i._ZNK6String9compareToERKS_), (58 bytes).
    Removing wstring.o(i._ZNK6String9substringEjj), (84 bytes).
    Removing wstring.o(i._ZNK6StringgeERKS_), (20 bytes).
    Removing wstring.o(i._ZNK6StringgtERKS_), (26 bytes).
    Removing wstring.o(i._ZNK6StringixEj), (22 bytes).
    Removing wstring.o(i._ZNK6StringleERKS_), (26 bytes).
    Removing wstring.o(i._ZNK6StringltERKS_), (18 bytes).
    Removing wstring.o(i._ZplRK15StringSumHelperPK19__FlashStringHelper), (28 bytes).
    Removing wstring.o(i._ZplRK15StringSumHelperPKc), (44 bytes).
    Removing wstring.o(i._ZplRK15StringSumHelperRK6String), (30 bytes).
    Removing wstring.o(i._ZplRK15StringSumHelperc), (28 bytes).
    Removing wstring.o(i._ZplRK15StringSumHelperd), (48 bytes).
    Removing wstring.o(i._ZplRK15StringSumHelperf), (40 bytes).
    Removing wstring.o(i._ZplRK15StringSumHelperh), (28 bytes).
    Removing wstring.o(i._ZplRK15StringSumHelperi), (28 bytes).
    Removing wstring.o(i._ZplRK15StringSumHelperj), (28 bytes).
    Removing wstring.o(i._ZplRK15StringSumHelperl), (28 bytes).
    Removing wstring.o(i._ZplRK15StringSumHelperm), (28 bytes).
    Removing wstring.o(.ARM.exidx), (8 bytes).
    Removing wstring.o(.ARM.exidx), (8 bytes).
    Removing wstring.o(.ARM.exidx), (8 bytes).
    Removing wstring.o(.ARM.exidx), (8 bytes).
    Removing wstring.o(.ARM.exidx), (8 bytes).
    Removing wstring.o(.ARM.exidx), (8 bytes).
    Removing wstring.o(.ARM.exidx), (8 bytes).
    Removing wstring.o(.ARM.exidx), (8 bytes).
    Removing wstring.o(.ARM.exidx), (8 bytes).
    Removing wstring.o(.ARM.exidx), (8 bytes).
    Removing wstring.o(.ARM.exidx), (8 bytes).
    Removing wstring.o(.ARM.exidx), (8 bytes).
    Removing wstring.o(.ARM.exidx), (8 bytes).
    Removing wstring.o(.ARM.exidx), (8 bytes).
    Removing wstring.o(.ARM.exidx), (8 bytes).
    Removing wstring.o(.ARM.exidx), (8 bytes).
    Removing wstring.o(.ARM.exidx), (8 bytes).
    Removing wstring.o(.ARM.exidx), (8 bytes).
    Removing wstring.o(.ARM.exidx), (8 bytes).
    Removing wstring.o(.ARM.exidx), (8 bytes).
    Removing wstring.o(.ARM.exidx), (8 bytes).
    Removing wstring.o(.ARM.exidx), (8 bytes).
    Removing wstring.o(.ARM.exidx), (8 bytes).
    Removing wstring.o(.ARM.exidx), (8 bytes).
    Removing wstring.o(.ARM.exidx), (8 bytes).
    Removing wstring.o(.ARM.exidx), (8 bytes).
    Removing wstring.o(.ARM.exidx), (8 bytes).
    Removing wstring.o(.ARM.exidx), (8 bytes).
    Removing wstring.o(.ARM.exidx), (8 bytes).
    Removing wstring.o(.ARM.exidx), (8 bytes).
    Removing wstring.o(.ARM.exidx), (8 bytes).
    Removing wstring.o(.ARM.exidx), (8 bytes).
    Removing wstring.o(.ARM.exidx), (8 bytes).
    Removing wstring.o(.ARM.exidx), (8 bytes).
    Removing wstring.o(.ARM.exidx), (8 bytes).
    Removing wstring.o(.ARM.exidx), (8 bytes).
    Removing wstring.o(.ARM.exidx), (8 bytes).
    Removing wstring.o(.ARM.exidx), (8 bytes).
    Removing wstring.o(.ARM.exidx), (8 bytes).
    Removing wstring.o(.ARM.exidx), (8 bytes).
    Removing wstring.o(.ARM.exidx), (8 bytes).
    Removing wstring.o(.ARM.exidx), (8 bytes).
    Removing wstring.o(.ARM.exidx), (8 bytes).
    Removing wstring.o(.ARM.exidx), (8 bytes).
    Removing wstring.o(.ARM.exidx), (8 bytes).
    Removing wstring.o(.ARM.exidx), (8 bytes).
    Removing wstring.o(.ARM.exidx), (8 bytes).
    Removing wstring.o(.ARM.exidx), (8 bytes).
    Removing wstring.o(.ARM.exidx), (8 bytes).
    Removing wstring.o(.ARM.exidx), (8 bytes).
    Removing wstring.o(.ARM.exidx), (8 bytes).
    Removing wstring.o(.ARM.exidx), (8 bytes).
    Removing wstring.o(.ARM.exidx), (8 bytes).
    Removing wstring.o(.ARM.exidx), (8 bytes).
    Removing wstring.o(.ARM.exidx), (8 bytes).
    Removing wstring.o(.ARM.exidx), (8 bytes).
    Removing wstring.o(.ARM.exidx), (8 bytes).
    Removing wstring.o(.ARM.exidx), (8 bytes).
    Removing wstring.o(.ARM.exidx), (8 bytes).
    Removing wstring.o(.ARM.exidx), (8 bytes).
    Removing wstring.o(.ARM.exidx), (8 bytes).
    Removing wstring.o(.ARM.exidx), (8 bytes).
    Removing wstring.o(.ARM.exidx), (8 bytes).
    Removing wstring.o(.ARM.exidx), (8 bytes).
    Removing wstring.o(.ARM.exidx), (8 bytes).
    Removing wstring.o(.ARM.exidx), (8 bytes).
    Removing wstring.o(.ARM.exidx), (8 bytes).
    Removing wstring.o(.ARM.exidx), (8 bytes).
    Removing wstring.o(.ARM.exidx), (8 bytes).
    Removing wstring.o(.ARM.exidx), (8 bytes).
    Removing wstring.o(.ARM.exidx), (8 bytes).
    Removing wstring.o(.ARM.exidx), (8 bytes).
    Removing wstring.o(.ARM.exidx), (8 bytes).
    Removing wstring.o(.ARM.exidx), (8 bytes).
    Removing wstring.o(.ARM.exidx), (8 bytes).
    Removing wstring.o(.ARM.exidx), (8 bytes).
    Removing wstring.o(.ARM.exidx), (8 bytes).
    Removing wstring.o(.ARM.exidx), (8 bytes).
    Removing wstring.o(.data), (1 bytes).
    Removing stream.o(.rev16_text), (4 bytes).
    Removing stream.o(.revsh_text), (4 bytes).
    Removing stream.o(.rrx_text), (6 bytes).
    Removing stream.o(i._ZN6Stream10parseFloatEc), (196 bytes).
    Removing stream.o(i._ZN6Stream10parseFloatEv), (14 bytes).
    Removing stream.o(i._ZN6Stream10readStringEv), (52 bytes).
    Removing stream.o(i._ZN6Stream10setTimeoutEm), (4 bytes).
    Removing stream.o(i._ZN6Stream13peekNextDigitEv), (52 bytes).
    Removing stream.o(i._ZN6Stream14readBytesUntilEcPcj), (60 bytes).
    Removing stream.o(i._ZN6Stream15readStringUntilEc), (64 bytes).
    Removing stream.o(i._ZN6Stream4findEPc), (24 bytes).
    Removing stream.o(i._ZN6Stream4findEPcj), (26 bytes).
    Removing stream.o(i._ZN6Stream8parseIntEc), (108 bytes).
    Removing stream.o(i._ZN6Stream8parseIntEv), (14 bytes).
    Removing stream.o(i._ZN6Stream9findMultiEPNS_11MultiTargetEi), (268 bytes).
    Removing stream.o(i._ZN6Stream9findUntilEPcS0_), (44 bytes).
    Removing stream.o(i._ZN6Stream9findUntilEPcjS0_j), (104 bytes).
    Removing stream.o(i._ZN6Stream9readBytesEPcj), (48 bytes).
    Removing stream.o(i._ZN6Stream9timedPeekEv), (50 bytes).
    Removing stream.o(i._ZN6Stream9timedReadEv), (50 bytes).
    Removing stream.o(.ARM.exidx), (8 bytes).
    Removing stream.o(.ARM.exidx), (8 bytes).
    Removing stream.o(.ARM.exidx), (8 bytes).
    Removing stream.o(.ARM.exidx), (8 bytes).
    Removing stream.o(.ARM.exidx), (8 bytes).
    Removing stream.o(.ARM.exidx), (8 bytes).
    Removing stream.o(.ARM.exidx), (8 bytes).
    Removing stream.o(.ARM.exidx), (8 bytes).
    Removing stream.o(.ARM.exidx), (8 bytes).
    Removing stream.o(.ARM.exidx), (8 bytes).
    Removing stream.o(.ARM.exidx), (8 bytes).
    Removing stream.o(.ARM.exidx), (8 bytes).
    Removing stream.o(.ARM.exidx), (8 bytes).
    Removing stream.o(.ARM.exidx), (8 bytes).
    Removing stream.o(.ARM.exidx), (8 bytes).
    Removing stream.o(.ARM.exidx), (8 bytes).
    Removing stream.o(.ARM.exidx), (8 bytes).
    Removing wmath.o(i._Z10randomSeedm), (14 bytes).
    Removing wmath.o(i._Z6randoml), (24 bytes).
    Removing wmath.o(i._Z6randomll), (26 bytes).
    Removing wmath.o(i._Z8makeWordhh), (8 bytes).
    Removing wmath.o(i._Z8makeWordj), (2 bytes).
    Removing wmath.o(.ARM.exidx), (8 bytes).
    Removing wmath.o(.ARM.exidx), (8 bytes).
    Removing wmath.o(.ARM.exidx), (8 bytes).
    Removing wmath.o(.ARM.exidx), (8 bytes).
    Removing wmath.o(.ARM.exidx), (8 bytes).
    Removing hardwareserial.o(.rev16_text), (4 bytes).
    Removing hardwareserial.o(.revsh_text), (4 bytes).
    Removing hardwareserial.o(.rrx_text), (6 bytes).
    Removing hardwareserial.o(i._ZN14HardwareSerial15attachInterruptEPFvvE), (4 bytes).
    Removing hardwareserial.o(i._ZN14HardwareSerial3endEv), (14 bytes).
    Removing hardwareserial.o(i._ZN14HardwareSerial4peekEv), (26 bytes).
    Removing hardwareserial.o(i._ZN14HardwareSerial5flushEv), (6 bytes).
    Removing hardwareserial.o(.ARM.exidx), (8 bytes).
    Removing hardwareserial.o(.ARM.exidx), (8 bytes).
    Removing hardwareserial.o(.ARM.exidx), (8 bytes).
    Removing hardwareserial.o(.ARM.exidx), (8 bytes).
    Removing hardwareserial.o(.ARM.exidx), (8 bytes).
    Removing hardwareserial.o(.ARM.exidx), (8 bytes).
    Removing hardwareserial.o(.ARM.exidx), (8 bytes).
    Removing hardwareserial.o(.ARM.exidx), (8 bytes).
    Removing hardwareserial.o(.ARM.exidx), (8 bytes).
    Removing hardwareserial.o(.ARM.exidx), (8 bytes).
    Removing hardwareserial.o(.ARM.exidx), (8 bytes).
    Removing hardwareserial.o(.ARM.exidx), (8 bytes).
    Removing hardwareserial.o(.ARM.exidx), (8 bytes).
    Removing hardwareserial.o(.ARM.exidx), (8 bytes).
    Removing hardwareserial.o(.ARM.exidx), (8 bytes).
    Removing hardwareserial.o(.ARM.exidx), (8 bytes).
    Removing wirebase.o(.rev16_text), (4 bytes).
    Removing wirebase.o(.revsh_text), (4 bytes).
    Removing wirebase.o(.rrx_text), (6 bytes).
    Removing wirebase.o(i._ZN8WireBase11requestFromEhi), (64 bytes).
    Removing wirebase.o(i._ZN8WireBase11requestFromEii), (20 bytes).
    Removing wirebase.o(i._ZN8WireBase15endTransmissionEv), (38 bytes).
    Removing wirebase.o(i._ZN8WireBase17beginTransmissionEh), (22 bytes).
    Removing wirebase.o(i._ZN8WireBase17beginTransmissionEi), (16 bytes).
    Removing wirebase.o(i._ZN8WireBase4readEv), (84 bytes).
    Removing wirebase.o(i._ZN8WireBase5beginEh), (20 bytes).
    Removing wirebase.o(i._ZN8WireBase5writeEPc), (28 bytes).
    Removing wirebase.o(i._ZN8WireBase5writeEPhi), (30 bytes).
    Removing wirebase.o(i._ZN8WireBase5writeEPii), (20 bytes).
    Removing wirebase.o(i._ZN8WireBase5writeEh), (44 bytes).
    Removing wirebase.o(i._ZN8WireBase5writeEi), (16 bytes).
    Removing wirebase.o(i._ZN8WireBase8setClockEj), (2 bytes).
    Removing wirebase.o(i._ZN8WireBase9availableEv), (16 bytes).
    Removing wirebase.o(.ARM.exidx), (8 bytes).
    Removing wirebase.o(.ARM.exidx), (8 bytes).
    Removing wirebase.o(.ARM.exidx), (8 bytes).
    Removing wirebase.o(.ARM.exidx), (8 bytes).
    Removing wirebase.o(.ARM.exidx), (8 bytes).
    Removing wirebase.o(.ARM.exidx), (8 bytes).
    Removing wirebase.o(.ARM.exidx), (8 bytes).
    Removing wirebase.o(.ARM.exidx), (8 bytes).
    Removing wirebase.o(.ARM.exidx), (8 bytes).
    Removing wirebase.o(.ARM.exidx), (8 bytes).
    Removing wirebase.o(.ARM.exidx), (8 bytes).
    Removing wirebase.o(.ARM.exidx), (8 bytes).
    Removing wirebase.o(.ARM.exidx), (8 bytes).
    Removing wirebase.o(.ARM.exidx), (8 bytes).
    Removing wire.o(.rev16_text), (4 bytes).
    Removing wire.o(.revsh_text), (4 bytes).
    Removing wire.o(.rrx_text), (6 bytes).
    Removing wire.o(i._ZN7TwoWire11i2c_get_ackEv), (58 bytes).
    Removing wire.o(i._ZN7TwoWire12i2c_send_ackEv), (30 bytes).
    Removing wire.o(i._ZN7TwoWire12i2c_shift_inEv), (62 bytes).
    Removing wire.o(i._ZN7TwoWire13i2c_send_nackEv), (30 bytes).
    Removing wire.o(i._ZN7TwoWire13i2c_shift_outEh), (60 bytes).
    Removing wire.o(i._ZN7TwoWire7processEv), (170 bytes).
    Removing wire.o(i._ZN7TwoWire8i2c_stopEv), (30 bytes).
    Removing wire.o(i._ZN7TwoWire9i2c_startEv), (22 bytes).
    Removing wire.o(.ARM.exidx), (8 bytes).
    Removing wire.o(.ARM.exidx), (8 bytes).
    Removing wire.o(.ARM.exidx), (8 bytes).
    Removing wire.o(.ARM.exidx), (8 bytes).
    Removing wire.o(.ARM.exidx), (8 bytes).
    Removing wire.o(.ARM.exidx), (8 bytes).
    Removing wire.o(.ARM.exidx), (8 bytes).
    Removing wire.o(.ARM.exidx), (8 bytes).
    Removing wire.o(.ARM.exidx), (8 bytes).
    Removing wire.o(.ARM.exidx), (8 bytes).
    Removing wire.o(.ARM.exidx), (8 bytes).
    Removing wire.o(.ARM.exidx), (8 bytes).
    Removing wire.o(.ARM.exidx), (8 bytes).
    Removing wire.o(.ARM.exidx), (8 bytes).
    Removing spi.o(.rev16_text), (4 bytes).
    Removing spi.o(.revsh_text), (4 bytes).
    Removing spi.o(.rrx_text), (6 bytes).
    Removing spi.o(i._ZN8SPIClass10beginSlaveEv), (44 bytes).
    Removing spi.o(i._ZN8SPIClass11setBitOrderEt), (38 bytes).
    Removing spi.o(i._ZN8SPIClass11setDataModeEh), (82 bytes).
    Removing spi.o(i._ZN8SPIClass11setDataSizeEt), (26 bytes).
    Removing spi.o(i._ZN8SPIClass12SPI_SettingsEP11SPI_TypeDeftttttt), (128 bytes).
    Removing spi.o(i._ZN8SPIClass14endTransactionEv), (14 bytes).
    Removing spi.o(i._ZN8SPIClass15setClockDividerEj), (22 bytes).
    Removing spi.o(i._ZN8SPIClass16beginTransactionE11SPISettings), (88 bytes).
    Removing spi.o(i._ZN8SPIClass21beginTransactionSlaveEv), (12 bytes).
    Removing spi.o(i._ZN8SPIClass3endEv), (14 bytes).
    Removing spi.o(i._ZN8SPIClass4readEPhj), (112 bytes).
    Removing spi.o(i._ZN8SPIClass4readEv), (22 bytes).
    Removing spi.o(i._ZN8SPIClass4recvEv), (14 bytes).
    Removing spi.o(i._ZN8SPIClass4sendEPhj), (22 bytes).
    Removing spi.o(i._ZN8SPIClass4sendEh), (18 bytes).
    Removing spi.o(i._ZN8SPIClass5beginE11SPISettings), (54 bytes).
    Removing spi.o(i._ZN8SPIClass5beginEjtt), (54 bytes).
    Removing spi.o(i._ZN8SPIClass5beginEv), (348 bytes).
    Removing spi.o(i._ZN8SPIClass5writeEPKhj), (64 bytes).
    Removing spi.o(i._ZN8SPIClass5writeEPKtj), (64 bytes).
    Removing spi.o(i._ZN8SPIClass5writeEt), (34 bytes).
    Removing spi.o(i._ZN8SPIClass5writeEtj), (46 bytes).
    Removing spi.o(i._ZN8SPIClass8setClockEj), (96 bytes).
    Removing spi.o(i._ZNK8SPIClass10transfer16Et), (48 bytes).
    Removing spi.o(i._ZNK8SPIClass8transferEh), (50 bytes).
    Removing spi.o(.ARM.exidx), (8 bytes).
    Removing spi.o(.ARM.exidx), (8 bytes).
    Removing spi.o(.ARM.exidx), (8 bytes).
    Removing spi.o(.ARM.exidx), (8 bytes).
    Removing spi.o(.ARM.exidx), (8 bytes).
    Removing spi.o(.ARM.exidx), (8 bytes).
    Removing spi.o(.ARM.exidx), (8 bytes).
    Removing spi.o(.ARM.exidx), (8 bytes).
    Removing spi.o(.ARM.exidx), (8 bytes).
    Removing spi.o(.ARM.exidx), (8 bytes).
    Removing spi.o(.ARM.exidx), (8 bytes).
    Removing spi.o(.ARM.exidx), (8 bytes).
    Removing spi.o(.ARM.exidx), (8 bytes).
    Removing spi.o(.ARM.exidx), (8 bytes).
    Removing spi.o(.ARM.exidx), (8 bytes).
    Removing spi.o(.ARM.exidx), (8 bytes).
    Removing spi.o(.ARM.exidx), (8 bytes).
    Removing spi.o(.ARM.exidx), (8 bytes).
    Removing spi.o(.ARM.exidx), (8 bytes).
    Removing spi.o(.ARM.exidx), (8 bytes).
    Removing spi.o(.ARM.exidx), (8 bytes).
    Removing spi.o(.ARM.exidx), (8 bytes).
    Removing spi.o(.ARM.exidx), (8 bytes).
    Removing spi.o(.ARM.exidx), (8 bytes).
    Removing spi.o(.ARM.exidx), (8 bytes).
    Removing spi.o(.ARM.exidx), (8 bytes).
    Removing spi.o(.ARM.exidx), (8 bytes).
    Removing tone.o(.rev16_text), (4 bytes).
    Removing tone.o(.revsh_text), (4 bytes).
    Removing tone.o(.rrx_text), (6 bytes).
    Removing tone.o(i._Z12toneSetTimerP11TIM_TypeDef), (148 bytes).
    Removing tone.o(i._Z16toneBlock_Volumnhjjj), (136 bytes).
    Removing tone.o(i._Z17tone_TimerHandlerv), (88 bytes).
    Removing tone.o(i._Z19toneBlock_Volumn_ushjjj), (136 bytes).
    Removing tone.o(i._Z4tonehj), (196 bytes).
    Removing tone.o(i._Z4tonehjj), (68 bytes).
    Removing tone.o(i._Z6noToneh), (40 bytes).
    Removing tone.o(i._Z9toneBlockhjj), (116 bytes).
    Removing tone.o(.ARM.exidx), (8 bytes).
    Removing tone.o(.ARM.exidx), (8 bytes).
    Removing tone.o(.ARM.exidx), (8 bytes).
    Removing tone.o(.ARM.exidx), (8 bytes).
    Removing tone.o(.ARM.exidx), (8 bytes).
    Removing tone.o(.ARM.exidx), (8 bytes).
    Removing tone.o(.ARM.exidx), (8 bytes).
    Removing tone.o(.ARM.exidx), (8 bytes).
    Removing tone.o(.data), (16 bytes).
    Removing adc.o(.rev16_text), (4 bytes).
    Removing adc.o(.revsh_text), (4 bytes).
    Removing adc.o(.rrx_text), (6 bytes).
    Removing adc.o(i.ADC_DMA_Config), (128 bytes).
    Removing adc.o(i.ADC_DMA_GetValue), (112 bytes).
    Removing adc.o(i.ADC_DMA_Init), (180 bytes).
    Removing adc.o(i.ADCx_GetValue), (46 bytes).
    Removing delay.o(.rev16_text), (4 bytes).
    Removing delay.o(.revsh_text), (4 bytes).
    Removing delay.o(.rrx_text), (6 bytes).
    Removing delay.o(i.delay_ms), (24 bytes).
    Removing delay.o(i.micros), (64 bytes).
    Removing exti.o(.rev16_text), (4 bytes).
    Removing exti.o(.revsh_text), (4 bytes).
    Removing exti.o(.rrx_text), (6 bytes).
    Removing exti.o(i.EXTI_GetIRQn), (78 bytes).
    Removing exti.o(i.EXTIx_Init), (144 bytes).
    Removing exti.o(i.attachInterrupt), (26 bytes).
    Removing exti.o(i.detachInterrupt), (56 bytes).
    Removing gpio.o(.rev16_text), (4 bytes).
    Removing gpio.o(.revsh_text), (4 bytes).
    Removing gpio.o(.rrx_text), (6 bytes).
    Removing gpio.o(i.GPIO_GetPinNum), (24 bytes).
    Removing gpio.o(i.GPIO_GetPortNum), (252 bytes).
    Removing pwm.o(.rev16_text), (4 bytes).
    Removing pwm.o(.revsh_text), (4 bytes).
    Removing pwm.o(.rrx_text), (6 bytes).
    Removing pwm.o(i.PWM_Init), (284 bytes).
    Removing pwm.o(i.TIM_GetGPIO_AF), (304 bytes).
    Removing pwm.o(i.TIMx_OCxInit), (344 bytes).
    Removing pwm.o(i.pwmWrite), (88 bytes).
    Removing pwm.o(i.timer_generate_update), (6 bytes).
    Removing pwm.o(i.timer_get_compare), (50 bytes).
    Removing pwm.o(i.timer_set_prescaler), (4 bytes).
    Removing pwm.o(i.timer_set_reload), (4 bytes).
    Removing timer.o(.rev16_text), (4 bytes).
    Removing timer.o(.revsh_text), (4 bytes).
    Removing timer.o(.rrx_text), (6 bytes).
    Removing timer.o(i.Qsqrt), (96 bytes).
    Removing timer.o(i.TIM6_DAC_IRQHandler), (48 bytes).
    Removing timer.o(i.TIM7_IRQHandler), (48 bytes).
    Removing timer.o(i.TIM8_UP_TIM13_IRQHandler), (84 bytes).
    Removing timer.o(i.Timer_ClockCmd), (288 bytes).
    Removing timer.o(i.Timer_FreqToArrPsc), (148 bytes).
    Removing timer.o(i.Timer_GetClockOut), (208 bytes).
    Removing timer.o(i.Timer_SetInterrupt), (240 bytes).
    Removing timer.o(i.Timer_SetInterruptBase), (396 bytes).
    Removing timer.o(i.Timer_SetInterruptFreqUpdate), (240 bytes).
    Removing timer.o(i.Timer_SetInterruptTimeUpdate), (236 bytes).
    Removing timer.o(i.Timer_TimeToArrPsc), (108 bytes).
    Removing battery.o(.rev16_text), (4 bytes).
    Removing battery.o(.revsh_text), (4 bytes).
    Removing battery.o(.rrx_text), (6 bytes).
    Removing battery.o(i._ZN7Battery15get_battery_lowEv), (32 bytes).
    Removing battery.o(i._ZN7Battery20get_battery_notifierEv), (84 bytes).
    Removing battery.o(i._ZN7Battery4initEv), (18 bytes).
    Removing battery.o(i._ZN7Battery8get_voltEv), (112 bytes).
    Removing battery.o(.ARM.exidx), (8 bytes).
    Removing battery.o(.ARM.exidx), (8 bytes).
    Removing battery.o(.ARM.exidx), (8 bytes).
    Removing battery.o(.ARM.exidx), (8 bytes).
    Removing battery.o(.ARM.exidx), (8 bytes).
    Removing encoder.o(.rev16_text), (4 bytes).
    Removing encoder.o(.revsh_text), (4 bytes).
    Removing encoder.o(.rrx_text), (6 bytes).
    Removing encoder.o(i.count_pos1), (128 bytes).
    Removing encoder.o(i.count_pos2), (128 bytes).
    Removing encoder.o(i.count_pos3), (132 bytes).
    Removing encoder.o(i.count_pos4), (136 bytes).
    Removing encoder.o(i.encoder_init), (124 bytes).
    Removing encoder.o(.data), (16 bytes).
    Removing pid.o(.rev16_text), (4 bytes).
    Removing pid.o(.revsh_text), (4 bytes).
    Removing pid.o(.rrx_text), (6 bytes).
    Removing pid.o(i._ZN3PID7computeEff), (388 bytes).
    Removing pid.o(.ARM.exidx), (8 bytes).
    Removing pid.o(.ARM.exidx), (8 bytes).
    Removing pid.o(.ARM.exidx), (8 bytes).
    Removing motor.o(.rev16_text), (4 bytes).
    Removing motor.o(.revsh_text), (4 bytes).
    Removing motor.o(.rrx_text), (6 bytes).
    Removing motor.o(i._ZN5Motor11updateSpeedEl), (128 bytes).
    Removing motor.o(i._ZN5Motor4initEv), (64 bytes).
    Removing motor.o(i._ZN5Motor4spinEi), (172 bytes).
    Removing motor.o(.ARM.exidx), (8 bytes).
    Removing motor.o(.ARM.exidx), (8 bytes).
    Removing motor.o(.ARM.exidx), (8 bytes).
    Removing motor.o(.ARM.exidx), (8 bytes).
    Removing motor.o(.constdata), (24 bytes).
    Removing kinematics.o(.rev16_text), (4 bytes).
    Removing kinematics.o(.revsh_text), (4 bytes).
    Removing kinematics.o(.rrx_text), (6 bytes).
    Removing kinematics.o(.ARM.exidx), (8 bytes).
    Removing kinematics.o(.ARM.exidx), (8 bytes).
    Removing kinematics.o(.ARM.exidx), (8 bytes).
    Removing kinematics.o(.ARM.exidx), (8 bytes).
    Removing gy85.o(.rev16_text), (4 bytes).
    Removing gy85.o(.revsh_text), (4 bytes).
    Removing gy85.o(.rrx_text), (6 bytes).
    Removing gy85.o(i._ZN4Gy8510send_valueEih), (38 bytes).
    Removing gy85.o(i._ZN4Gy8515check_gyroscopeEv), (78 bytes).
    Removing gy85.o(i._ZN4Gy8517measure_gyroscopeEv), (252 bytes).
    Removing gy85.o(i._ZN4Gy8517write_to_registerEihh), (54 bytes).
    Removing gy85.o(i._ZN4Gy8518check_magnetometerEv), (44 bytes).
    Removing gy85.o(i._ZN4Gy8519check_accelerometerEv), (62 bytes).
    Removing gy85.o(i._ZN4Gy8520measure_accelerationEv), (276 bytes).
    Removing gy85.o(i._ZN4Gy8520measure_magnetometerEv), (344 bytes).
    Removing gy85.o(i._ZN4Gy858check_idEih), (58 bytes).
    Removing gy85.o(.ARM.exidx), (8 bytes).
    Removing gy85.o(.ARM.exidx), (8 bytes).
    Removing gy85.o(.ARM.exidx), (8 bytes).
    Removing gy85.o(.ARM.exidx), (8 bytes).
    Removing gy85.o(.ARM.exidx), (8 bytes).
    Removing gy85.o(.ARM.exidx), (8 bytes).
    Removing gy85.o(.ARM.exidx), (8 bytes).
    Removing gy85.o(.ARM.exidx), (8 bytes).
    Removing gy85.o(.ARM.exidx), (8 bytes).
    Removing gy85.o(.ARM.exidx), (8 bytes).
    Removing mpu6050.o(.rev16_text), (4 bytes).
    Removing mpu6050.o(.revsh_text), (4 bytes).
    Removing mpu6050.o(.rrx_text), (6 bytes).
    Removing mpu6050.o(i._ZN7MPU605010getMotion6EPsS0_S0_S0_S0_S0_), (124 bytes).
    Removing mpu6050.o(i._ZN7MPU605010getMotion9EPsS0_S0_S0_S0_S0_S0_S0_S0_), (40 bytes).
    Removing mpu6050.o(i._ZN7MPU605010initializeEv), (38 bytes).
    Removing mpu6050.o(i._ZN7MPU605011getDHPFModeEv), (36 bytes).
    Removing mpu6050.o(i._ZN7MPU605011getDLPFModeEv), (36 bytes).
    Removing mpu6050.o(i._ZN7MPU605011getDeviceIDEv), (36 bytes).
    Removing mpu6050.o(i._ZN7MPU605011getFIFOByteEv), (28 bytes).
    Removing mpu6050.o(i._ZN7MPU605011getRotationEPsS0_S0_), (72 bytes).
    Removing mpu6050.o(i._ZN7MPU605011setDHPFModeEh), (22 bytes).
    Removing mpu6050.o(i._ZN7MPU605011setDLPFModeEh), (22 bytes).
    Removing mpu6050.o(i._ZN7MPU605011setDeviceIDEh), (22 bytes).
    Removing mpu6050.o(i._ZN7MPU605011setFIFOByteEh), (18 bytes).
    Removing mpu6050.o(i._ZN7MPU605012getFIFOBytesEPhh), (44 bytes).
    Removing mpu6050.o(i._ZN7MPU605012getFIFOCountEv), (36 bytes).
    Removing mpu6050.o(i._ZN7MPU605012getIntStatusEv), (28 bytes).
    Removing mpu6050.o(i._ZN7MPU605012getRotationXEv), (40 bytes).
    Removing mpu6050.o(i._ZN7MPU605012getRotationYEv), (40 bytes).
    Removing mpu6050.o(i._ZN7MPU605012getRotationZEv), (40 bytes).
    Removing mpu6050.o(i._ZN7MPU605012getXFineGainEv), (28 bytes).
    Removing mpu6050.o(i._ZN7MPU605012getYFineGainEv), (28 bytes).
    Removing mpu6050.o(i._ZN7MPU605012getZFineGainEv), (28 bytes).
    Removing mpu6050.o(i._ZN7MPU605012resetSensorsEv), (18 bytes).
    Removing mpu6050.o(i._ZN7MPU605012setXFineGainEa), (18 bytes).
    Removing mpu6050.o(i._ZN7MPU605012setYFineGainEa), (18 bytes).
    Removing mpu6050.o(i._ZN7MPU605012setZFineGainEa), (18 bytes).
    Removing mpu6050.o(i._ZN7MPU605013getDMPConfig1Ev), (28 bytes).
    Removing mpu6050.o(i._ZN7MPU605013getDMPConfig2Ev), (28 bytes).
    Removing mpu6050.o(i._ZN7MPU605013getDMPEnabledEv), (40 bytes).
    Removing mpu6050.o(i._ZN7MPU605013getIntEnabledEv), (28 bytes).
    Removing mpu6050.o(i._ZN7MPU605013getSlave0NackEv), (40 bytes).
    Removing mpu6050.o(i._ZN7MPU605013getSlave1NackEv), (40 bytes).
    Removing mpu6050.o(i._ZN7MPU605013getSlave2NackEv), (40 bytes).
    Removing mpu6050.o(i._ZN7MPU605013getSlave3NackEv), (40 bytes).
    Removing mpu6050.o(i._ZN7MPU605013getSlave4NackEv), (40 bytes).
    Removing mpu6050.o(i._ZN7MPU605013setDMPConfig1Eh), (18 bytes).
    Removing mpu6050.o(i._ZN7MPU605013setDMPConfig2Eh), (18 bytes).
    Removing mpu6050.o(i._ZN7MPU605013setDMPEnabledEb), (20 bytes).
    Removing mpu6050.o(i._ZN7MPU605013setIntEnabledEh), (18 bytes).
    Removing mpu6050.o(i._ZN7MPU605013setMemoryBankEhbb), (42 bytes).
    Removing mpu6050.o(i._ZN7MPU605014getClockSourceEv), (36 bytes).
    Removing mpu6050.o(i._ZN7MPU605014getFIFOEnabledEv), (40 bytes).
    Removing mpu6050.o(i._ZN7MPU605014getTemperatureEv), (40 bytes).
    Removing mpu6050.o(i._ZN7MPU605014getXGyroOffsetEv), (40 bytes).
    Removing mpu6050.o(i._ZN7MPU605014getYGyroOffsetEv), (40 bytes).
    Removing mpu6050.o(i._ZN7MPU605014getZGyroOffsetEv), (40 bytes).
    Removing mpu6050.o(i._ZN7MPU605014readMemoryByteEv), (28 bytes).
    Removing mpu6050.o(i._ZN7MPU605014resetI2CMasterEv), (18 bytes).
    Removing mpu6050.o(i._ZN7MPU605014setClockSourceEh), (22 bytes).
    Removing mpu6050.o(i._ZN7MPU605014setFIFOEnabledEb), (20 bytes).
    Removing mpu6050.o(i._ZN7MPU605014setXGyroOffsetEs), (18 bytes).
    Removing mpu6050.o(i._ZN7MPU605014setYGyroOffsetEs), (18 bytes).
    Removing mpu6050.o(i._ZN7MPU605014setZGyroOffsetEs), (18 bytes).
    Removing mpu6050.o(i._ZN7MPU605014testConnectionEv), (22 bytes).
    Removing mpu6050.o(i._ZN7MPU605015getAccelerationEPsS0_S0_), (72 bytes).
    Removing mpu6050.o(i._ZN7MPU605015getIntDMPStatusEv), (40 bytes).
    Removing mpu6050.o(i._ZN7MPU605015getMotionStatusEv), (28 bytes).
    Removing mpu6050.o(i._ZN7MPU605015getOTPBankValidEv), (32 bytes).
    Removing mpu6050.o(i._ZN7MPU605015getSlave4IsDoneEv), (40 bytes).
    Removing mpu6050.o(i._ZN7MPU605015getSlaveAddressEh), (44 bytes).
    Removing mpu6050.o(i._ZN7MPU605015getSlaveEnabledEh), (56 bytes).
    Removing mpu6050.o(i._ZN7MPU605015getSleepEnabledEv), (40 bytes).
    Removing mpu6050.o(i._ZN7MPU605015getXAccelOffsetEv), (40 bytes).
    Removing mpu6050.o(i._ZN7MPU605015getYAccelOffsetEv), (40 bytes).
    Removing mpu6050.o(i._ZN7MPU605015getZAccelOffsetEv), (40 bytes).
    Removing mpu6050.o(i._ZN7MPU605015readMemoryBlockEPhthh), (140 bytes).
    Removing mpu6050.o(i._ZN7MPU605015setOTPBankValidEb), (20 bytes).
    Removing mpu6050.o(i._ZN7MPU605015setSlaveAddressEhh), (34 bytes).
    Removing mpu6050.o(i._ZN7MPU605015setSlaveEnabledEhb), (36 bytes).
    Removing mpu6050.o(i._ZN7MPU605015setSleepEnabledEb), (20 bytes).
    Removing mpu6050.o(i._ZN7MPU605015setXAccelOffsetEs), (18 bytes).
    Removing mpu6050.o(i._ZN7MPU605015setYAccelOffsetEs), (18 bytes).
    Removing mpu6050.o(i._ZN7MPU605015setZAccelOffsetEs), (18 bytes).
    Removing mpu6050.o(i._ZN7MPU605015writeMemoryByteEh), (18 bytes).
    Removing mpu6050.o(i._ZN7MPU605016getAccelerationXEv), (40 bytes).
    Removing mpu6050.o(i._ZN7MPU605016getAccelerationYEv), (40 bytes).
    Removing mpu6050.o(i._ZN7MPU605016getAccelerationZEv), (40 bytes).
    Removing mpu6050.o(i._ZN7MPU605016getAuxVDDIOLevelEv), (32 bytes).
    Removing mpu6050.o(i._ZN7MPU605016getDMPInt0StatusEv), (40 bytes).
    Removing mpu6050.o(i._ZN7MPU605016getDMPInt1StatusEv), (40 bytes).
    Removing mpu6050.o(i._ZN7MPU605016getDMPInt2StatusEv), (40 bytes).
    Removing mpu6050.o(i._ZN7MPU605016getDMPInt3StatusEv), (40 bytes).
    Removing mpu6050.o(i._ZN7MPU605016getDMPInt4StatusEv), (40 bytes).
    Removing mpu6050.o(i._ZN7MPU605016getDMPInt5StatusEv), (40 bytes).
    Removing mpu6050.o(i._ZN7MPU605016getIntDMPEnabledEv), (40 bytes).
    Removing mpu6050.o(i._ZN7MPU605016getInterruptModeEv), (40 bytes).
    Removing mpu6050.o(i._ZN7MPU605016getSlave4AddressEv), (28 bytes).
    Removing mpu6050.o(i._ZN7MPU605016getSlave4EnabledEv), (40 bytes).
    Removing mpu6050.o(i._ZN7MPU605016getSlaveRegisterEh), (44 bytes).
    Removing mpu6050.o(i._ZN7MPU605016getWakeFrequencyEv), (36 bytes).
    Removing mpu6050.o(i._ZN7MPU605016getXGyroOffsetTCEv), (36 bytes).
    Removing mpu6050.o(i._ZN7MPU605016getYGyroOffsetTCEv), (36 bytes).
    Removing mpu6050.o(i._ZN7MPU605016getZGyroOffsetTCEv), (36 bytes).
    Removing mpu6050.o(i._ZN7MPU605016setAuxVDDIOLevelEh), (20 bytes).
    Removing mpu6050.o(i._ZN7MPU605016setIntDMPEnabledEb), (20 bytes).
    Removing mpu6050.o(i._ZN7MPU605016setInterruptModeEb), (20 bytes).
    Removing mpu6050.o(i._ZN7MPU605016setSlave4AddressEh), (18 bytes).
    Removing mpu6050.o(i._ZN7MPU605016setSlave4EnabledEb), (20 bytes).
    Removing mpu6050.o(i._ZN7MPU605016setSlaveRegisterEhh), (34 bytes).
    Removing mpu6050.o(i._ZN7MPU605016setWakeFrequencyEh), (22 bytes).
    Removing mpu6050.o(i._ZN7MPU605016setXGyroOffsetTCEa), (24 bytes).
    Removing mpu6050.o(i._ZN7MPU605016setYGyroOffsetTCEa), (24 bytes).
    Removing mpu6050.o(i._ZN7MPU605016setZGyroOffsetTCEa), (24 bytes).
    Removing mpu6050.o(i._ZN7MPU605016switchSPIEnabledEb), (20 bytes).
    Removing mpu6050.o(i._ZN7MPU605016writeMemoryBlockEPKhthhbb), (324 bytes).
    Removing mpu6050.o(i._ZN7MPU605017getAccelXSelfTestEv), (40 bytes).
    Removing mpu6050.o(i._ZN7MPU605017getAccelYSelfTestEv), (40 bytes).
    Removing mpu6050.o(i._ZN7MPU605017getAccelZSelfTestEv), (40 bytes).
    Removing mpu6050.o(i._ZN7MPU605017getInterruptDriveEv), (40 bytes).
    Removing mpu6050.o(i._ZN7MPU605017getInterruptLatchEv), (40 bytes).
    Removing mpu6050.o(i._ZN7MPU605017getSlave4RegisterEv), (28 bytes).
    Removing mpu6050.o(i._ZN7MPU605017getSlaveWriteModeEh), (56 bytes).
    Removing mpu6050.o(i._ZN7MPU605017setAccelXSelfTestEb), (20 bytes).
    Removing mpu6050.o(i._ZN7MPU605017setAccelYSelfTestEb), (20 bytes).
    Removing mpu6050.o(i._ZN7MPU605017setAccelZSelfTestEb), (20 bytes).
    Removing mpu6050.o(i._ZN7MPU605017setInterruptDriveEb), (20 bytes).
    Removing mpu6050.o(i._ZN7MPU605017setInterruptLatchEb), (20 bytes).
    Removing mpu6050.o(i._ZN7MPU605017setSlave4RegisterEh), (18 bytes).
    Removing mpu6050.o(i._ZN7MPU605017setSlaveWriteModeEhb), (36 bytes).
    Removing mpu6050.o(i._ZN7MPU605018getIntMotionStatusEv), (40 bytes).
    Removing mpu6050.o(i._ZN7MPU605018getLostArbitrationEv), (40 bytes).
    Removing mpu6050.o(i._ZN7MPU605018getSlate4InputByteEv), (28 bytes).
    Removing mpu6050.o(i._ZN7MPU605018getSlave4WriteModeEv), (40 bytes).
    Removing mpu6050.o(i._ZN7MPU605018getSlaveDataLengthEh), (52 bytes).
    Removing mpu6050.o(i._ZN7MPU605018getTempFIFOEnabledEv), (40 bytes).
    Removing mpu6050.o(i._ZN7MPU605018resetGyroscopePathEv), (18 bytes).
    Removing mpu6050.o(i._ZN7MPU605018setSlave4WriteModeEb), (20 bytes).
    Removing mpu6050.o(i._ZN7MPU605018setSlaveDataLengthEhh), (38 bytes).
    Removing mpu6050.o(i._ZN7MPU605018setSlaveOutputByteEhh), (32 bytes).
    Removing mpu6050.o(i._ZN7MPU605018setTempFIFOEnabledEb), (20 bytes).
    Removing mpu6050.o(i._ZN7MPU605019getAccelFIFOEnabledEv), (40 bytes).
    Removing mpu6050.o(i._ZN7MPU605019getI2CBypassEnabledEv), (40 bytes).
    Removing mpu6050.o(i._ZN7MPU605019getIntMotionEnabledEv), (40 bytes).
    Removing mpu6050.o(i._ZN7MPU605019getMasterClockSpeedEv), (36 bytes).
    Removing mpu6050.o(i._ZN7MPU605019getWakeCycleEnabledEv), (40 bytes).
    Removing mpu6050.o(i._ZN7MPU605019getXGyroFIFOEnabledEv), (40 bytes).
    Removing mpu6050.o(i._ZN7MPU605019getYGyroFIFOEnabledEv), (40 bytes).
    Removing mpu6050.o(i._ZN7MPU605019getZGyroFIFOEnabledEv), (40 bytes).
    Removing mpu6050.o(i._ZN7MPU605019setAccelFIFOEnabledEb), (20 bytes).
    Removing mpu6050.o(i._ZN7MPU605019setI2CBypassEnabledEb), (20 bytes).
    Removing mpu6050.o(i._ZN7MPU605019setIntMotionEnabledEb), (20 bytes).
    Removing mpu6050.o(i._ZN7MPU605019setMasterClockSpeedEh), (22 bytes).
    Removing mpu6050.o(i._ZN7MPU605019setSlave4OutputByteEh), (18 bytes).
    Removing mpu6050.o(i._ZN7MPU605019setWakeCycleEnabledEb), (20 bytes).
    Removing mpu6050.o(i._ZN7MPU605019setXGyroFIFOEnabledEb), (20 bytes).
    Removing mpu6050.o(i._ZN7MPU605019setYGyroFIFOEnabledEb), (20 bytes).
    Removing mpu6050.o(i._ZN7MPU605019setZGyroFIFOEnabledEb), (20 bytes).
    Removing mpu6050.o(i._ZN7MPU605020getExternalFrameSyncEv), (36 bytes).
    Removing mpu6050.o(i._ZN7MPU605020getIntFreefallStatusEv), (40 bytes).
    Removing mpu6050.o(i._ZN7MPU605020getIntPLLReadyStatusEv), (40 bytes).
    Removing mpu6050.o(i._ZN7MPU605020getPassthroughStatusEv), (40 bytes).
    Removing mpu6050.o(i._ZN7MPU605020getSlave0FIFOEnabledEv), (40 bytes).
    Removing mpu6050.o(i._ZN7MPU605020getSlave1FIFOEnabledEv), (40 bytes).
    Removing mpu6050.o(i._ZN7MPU605020getSlave2FIFOEnabledEv), (40 bytes).
    Removing mpu6050.o(i._ZN7MPU605020getSlave3FIFOEnabledEv), (40 bytes).
    Removing mpu6050.o(i._ZN7MPU605020getSlave4MasterDelayEv), (36 bytes).
    Removing mpu6050.o(i._ZN7MPU605020getSlaveDelayEnabledEh), (48 bytes).
    Removing mpu6050.o(i._ZN7MPU605020getSlaveWordByteSwapEh), (56 bytes).
    Removing mpu6050.o(i._ZN7MPU605020getTempSensorEnabledEv), (40 bytes).
    Removing mpu6050.o(i._ZN7MPU605020resetTemperaturePathEv), (18 bytes).
    Removing mpu6050.o(i._ZN7MPU605020setExternalFrameSyncEh), (22 bytes).
    Removing mpu6050.o(i._ZN7MPU605020setSlave0FIFOEnabledEb), (20 bytes).
    Removing mpu6050.o(i._ZN7MPU605020setSlave1FIFOEnabledEb), (20 bytes).
    Removing mpu6050.o(i._ZN7MPU605020setSlave2FIFOEnabledEb), (20 bytes).
    Removing mpu6050.o(i._ZN7MPU605020setSlave3FIFOEnabledEb), (20 bytes).
    Removing mpu6050.o(i._ZN7MPU605020setSlave4MasterDelayEh), (22 bytes).
    Removing mpu6050.o(i._ZN7MPU605020setSlaveDelayEnabledEhb), (22 bytes).
    Removing mpu6050.o(i._ZN7MPU605020setSlaveWordByteSwapEhb), (36 bytes).
    Removing mpu6050.o(i._ZN7MPU605020setTempSensorEnabledEb), (22 bytes).
    Removing mpu6050.o(i._ZN7MPU605020writeProgMemoryBlockEPKhthhb), (40 bytes).
    Removing mpu6050.o(i._ZN7MPU605021getClockOutputEnabledEv), (40 bytes).
    Removing mpu6050.o(i._ZN7MPU605021getExternalSensorByteEi), (32 bytes).
    Removing mpu6050.o(i._ZN7MPU605021getExternalSensorWordEi), (44 bytes).
    Removing mpu6050.o(i._ZN7MPU605021getFullScaleGyroRangeEv), (36 bytes).
    Removing mpu6050.o(i._ZN7MPU605021getIntDataReadyStatusEv), (40 bytes).
    Removing mpu6050.o(i._ZN7MPU605021getIntFreefallEnabledEv), (40 bytes).
    Removing mpu6050.o(i._ZN7MPU605021getIntI2CMasterStatusEv), (40 bytes).
    Removing mpu6050.o(i._ZN7MPU605021getIntPLLReadyEnabledEv), (40 bytes).
    Removing mpu6050.o(i._ZN7MPU605021getMultiMasterEnabledEv), (40 bytes).
    Removing mpu6050.o(i._ZN7MPU605021getXNegMotionDetectedEv), (40 bytes).
    Removing mpu6050.o(i._ZN7MPU605021getXPosMotionDetectedEv), (40 bytes).
    Removing mpu6050.o(i._ZN7MPU605021getYNegMotionDetectedEv), (40 bytes).
    Removing mpu6050.o(i._ZN7MPU605021getYPosMotionDetectedEv), (40 bytes).
    Removing mpu6050.o(i._ZN7MPU605021getZNegMotionDetectedEv), (40 bytes).
    Removing mpu6050.o(i._ZN7MPU605021getZPosMotionDetectedEv), (40 bytes).
    Removing mpu6050.o(i._ZN7MPU605021getZeroMotionDetectedEv), (40 bytes).
    Removing mpu6050.o(i._ZN7MPU605021setClockOutputEnabledEb), (20 bytes).
    Removing mpu6050.o(i._ZN7MPU605021setFullScaleGyroRangeEh), (22 bytes).
    Removing mpu6050.o(i._ZN7MPU605021setIntFreefallEnabledEb), (20 bytes).
    Removing mpu6050.o(i._ZN7MPU605021setIntPLLReadyEnabledEb), (20 bytes).
    Removing mpu6050.o(i._ZN7MPU605021setMemoryStartAddressEh), (18 bytes).
    Removing mpu6050.o(i._ZN7MPU605021setMultiMasterEnabledEb), (20 bytes).
    Removing mpu6050.o(i._ZN7MPU605022getExternalSensorDWordEi), (56 bytes).
    Removing mpu6050.o(i._ZN7MPU605022getFSyncInterruptLevelEv), (40 bytes).
    Removing mpu6050.o(i._ZN7MPU605022getFullScaleAccelRangeEv), (36 bytes).
    Removing mpu6050.o(i._ZN7MPU605022getIntDataReadyEnabledEv), (40 bytes).
    Removing mpu6050.o(i._ZN7MPU605022getIntI2CMasterEnabledEv), (40 bytes).
    Removing mpu6050.o(i._ZN7MPU605022getIntZeroMotionStatusEv), (40 bytes).
    Removing mpu6050.o(i._ZN7MPU605022getInterruptLatchClearEv), (40 bytes).
    Removing mpu6050.o(i._ZN7MPU605022getStandbyXGyroEnabledEv), (40 bytes).
    Removing mpu6050.o(i._ZN7MPU605022getStandbyYGyroEnabledEv), (40 bytes).
    Removing mpu6050.o(i._ZN7MPU605022getStandbyZGyroEnabledEv), (40 bytes).
    Removing mpu6050.o(i._ZN7MPU605022resetAccelerometerPathEv), (18 bytes).
    Removing mpu6050.o(i._ZN7MPU605022setFSyncInterruptLevelEb), (20 bytes).
    Removing mpu6050.o(i._ZN7MPU605022setFullScaleAccelRangeEh), (22 bytes).
    Removing mpu6050.o(i._ZN7MPU605022setIntDataReadyEnabledEb), (20 bytes).
    Removing mpu6050.o(i._ZN7MPU605022setIntI2CMasterEnabledEb), (20 bytes).
    Removing mpu6050.o(i._ZN7MPU605022setInterruptLatchClearEb), (20 bytes).
    Removing mpu6050.o(i._ZN7MPU605022setStandbyXGyroEnabledEb), (20 bytes).
    Removing mpu6050.o(i._ZN7MPU605022setStandbyYGyroEnabledEb), (20 bytes).
    Removing mpu6050.o(i._ZN7MPU605022setStandbyZGyroEnabledEb), (20 bytes).
    Removing mpu6050.o(i._ZN7MPU605023getI2CMasterModeEnabledEv), (40 bytes).
    Removing mpu6050.o(i._ZN7MPU605023getIntZeroMotionEnabledEv), (40 bytes).
    Removing mpu6050.o(i._ZN7MPU605023getSlaveWordGroupOffsetEh), (56 bytes).
    Removing mpu6050.o(i._ZN7MPU605023getStandbyXAccelEnabledEv), (40 bytes).
    Removing mpu6050.o(i._ZN7MPU605023getStandbyYAccelEnabledEv), (40 bytes).
    Removing mpu6050.o(i._ZN7MPU605023getStandbyZAccelEnabledEv), (40 bytes).
    Removing mpu6050.o(i._ZN7MPU605023setI2CMasterModeEnabledEb), (20 bytes).
    Removing mpu6050.o(i._ZN7MPU605023setIntZeroMotionEnabledEb), (20 bytes).
    Removing mpu6050.o(i._ZN7MPU605023setSlaveWordGroupOffsetEhb), (36 bytes).
    Removing mpu6050.o(i._ZN7MPU605023setStandbyXAccelEnabledEb), (20 bytes).
    Removing mpu6050.o(i._ZN7MPU605023setStandbyYAccelEnabledEb), (20 bytes).
    Removing mpu6050.o(i._ZN7MPU605023setStandbyZAccelEnabledEb), (20 bytes).
    Removing mpu6050.o(i._ZN7MPU605024getFSyncInterruptEnabledEv), (40 bytes).
    Removing mpu6050.o(i._ZN7MPU605024setFSyncInterruptEnabledEb), (20 bytes).
    Removing mpu6050.o(i._ZN7MPU605024writeDMPConfigurationSetEPKhtb), (266 bytes).
    Removing mpu6050.o(i._ZN7MPU605025getSlave4InterruptEnabledEv), (40 bytes).
    Removing mpu6050.o(i._ZN7MPU605025setSlave4InterruptEnabledEb), (20 bytes).
    Removing mpu6050.o(i._ZN7MPU605026getMotionDetectionDurationEv), (28 bytes).
    Removing mpu6050.o(i._ZN7MPU605026setMotionDetectionDurationEh), (18 bytes).
    Removing mpu6050.o(i._ZN7MPU605027getGyroXSelfTestFactoryTrimEv), (32 bytes).
    Removing mpu6050.o(i._ZN7MPU605027getGyroYSelfTestFactoryTrimEv), (32 bytes).
    Removing mpu6050.o(i._ZN7MPU605027getGyroZSelfTestFactoryTrimEv), (32 bytes).
    Removing mpu6050.o(i._ZN7MPU605027getMotionDetectionThresholdEv), (28 bytes).
    Removing mpu6050.o(i._ZN7MPU605027setMotionDetectionThresholdEh), (18 bytes).
    Removing mpu6050.o(i._ZN7MPU605028getAccelXSelfTestFactoryTrimEv), (52 bytes).
    Removing mpu6050.o(i._ZN7MPU605028getAccelYSelfTestFactoryTrimEv), (52 bytes).
    Removing mpu6050.o(i._ZN7MPU605028getAccelZSelfTestFactoryTrimEv), (40 bytes).
    Removing mpu6050.o(i._ZN7MPU605028getAccelerometerPowerOnDelayEv), (36 bytes).
    Removing mpu6050.o(i._ZN7MPU605028getFreefallDetectionDurationEv), (28 bytes).
    Removing mpu6050.o(i._ZN7MPU605028setAccelerometerPowerOnDelayEh), (22 bytes).
    Removing mpu6050.o(i._ZN7MPU605028setFreefallDetectionDurationEh), (18 bytes).
    Removing mpu6050.o(i._ZN7MPU605028writeProgDMPConfigurationSetEPKht), (22 bytes).
    Removing mpu6050.o(i._ZN7MPU605029getExternalShadowDelayEnabledEv), (40 bytes).
    Removing mpu6050.o(i._ZN7MPU605029getFreefallDetectionThresholdEv), (28 bytes).
    Removing mpu6050.o(i._ZN7MPU605029setExternalShadowDelayEnabledEb), (20 bytes).
    Removing mpu6050.o(i._ZN7MPU605029setFreefallDetectionThresholdEh), (18 bytes).
    Removing mpu6050.o(i._ZN7MPU605030getIntFIFOBufferOverflowStatusEv), (40 bytes).
    Removing mpu6050.o(i._ZN7MPU605030getZeroMotionDetectionDurationEv), (28 bytes).
    Removing mpu6050.o(i._ZN7MPU605030setZeroMotionDetectionDurationEh), (18 bytes).
    Removing mpu6050.o(i._ZN7MPU605031getIntFIFOBufferOverflowEnabledEv), (40 bytes).
    Removing mpu6050.o(i._ZN7MPU605031getWaitForExternalSensorEnabledEv), (40 bytes).
    Removing mpu6050.o(i._ZN7MPU605031getZeroMotionDetectionThresholdEv), (28 bytes).
    Removing mpu6050.o(i._ZN7MPU605031setIntFIFOBufferOverflowEnabledEb), (20 bytes).
    Removing mpu6050.o(i._ZN7MPU605031setWaitForExternalSensorEnabledEb), (20 bytes).
    Removing mpu6050.o(i._ZN7MPU605031setZeroMotionDetectionThresholdEh), (18 bytes).
    Removing mpu6050.o(i._ZN7MPU605034getMotionDetectionCounterDecrementEv), (36 bytes).
    Removing mpu6050.o(i._ZN7MPU605034getSlaveReadWriteTransitionEnabledEv), (40 bytes).
    Removing mpu6050.o(i._ZN7MPU605034setMotionDetectionCounterDecrementEh), (22 bytes).
    Removing mpu6050.o(i._ZN7MPU605034setSlaveReadWriteTransitionEnabledEb), (20 bytes).
    Removing mpu6050.o(i._ZN7MPU605036getFreefallDetectionCounterDecrementEv), (36 bytes).
    Removing mpu6050.o(i._ZN7MPU605036setFreefallDetectionCounterDecrementEh), (22 bytes).
    Removing mpu6050.o(i._ZN7MPU60505resetEv), (18 bytes).
    Removing mpu6050.o(i._ZN7MPU60507getRateEv), (28 bytes).
    Removing mpu6050.o(i._ZN7MPU60507setRateEh), (18 bytes).
    Removing mpu6050.o(i._ZN7MPU60508resetDMPEv), (18 bytes).
    Removing mpu6050.o(i._ZN7MPU60509resetFIFOEv), (18 bytes).
    Removing mpu6050.o(i._ZN7MPU6050C1Eh), (4 bytes).
    Removing mpu6050.o(i._ZN7MPU6050C1Ev), (6 bytes).
    Removing mpu6050.o(.ARM.exidx), (8 bytes).
    Removing mpu6050.o(.ARM.exidx), (8 bytes).
    Removing mpu6050.o(.ARM.exidx), (8 bytes).
    Removing mpu6050.o(.ARM.exidx), (8 bytes).
    Removing mpu6050.o(.ARM.exidx), (8 bytes).
    Removing mpu6050.o(.ARM.exidx), (8 bytes).
    Removing mpu6050.o(.ARM.exidx), (8 bytes).
    Removing mpu6050.o(.ARM.exidx), (8 bytes).
    Removing mpu6050.o(.ARM.exidx), (8 bytes).
    Removing mpu6050.o(.ARM.exidx), (8 bytes).
    Removing mpu6050.o(.ARM.exidx), (8 bytes).
    Removing mpu6050.o(.ARM.exidx), (8 bytes).
    Removing mpu6050.o(.ARM.exidx), (8 bytes).
    Removing mpu6050.o(.ARM.exidx), (8 bytes).
    Removing mpu6050.o(.ARM.exidx), (8 bytes).
    Removing mpu6050.o(.ARM.exidx), (8 bytes).
    Removing mpu6050.o(.ARM.exidx), (8 bytes).
    Removing mpu6050.o(.ARM.exidx), (8 bytes).
    Removing mpu6050.o(.ARM.exidx), (8 bytes).
    Removing mpu6050.o(.ARM.exidx), (8 bytes).
    Removing mpu6050.o(.ARM.exidx), (8 bytes).
    Removing mpu6050.o(.ARM.exidx), (8 bytes).
    Removing mpu6050.o(.ARM.exidx), (8 bytes).
    Removing mpu6050.o(.ARM.exidx), (8 bytes).
    Removing mpu6050.o(.ARM.exidx), (8 bytes).
    Removing mpu6050.o(.ARM.exidx), (8 bytes).
    Removing mpu6050.o(.ARM.exidx), (8 bytes).
    Removing mpu6050.o(.ARM.exidx), (8 bytes).
    Removing mpu6050.o(.ARM.exidx), (8 bytes).
    Removing mpu6050.o(.ARM.exidx), (8 bytes).
    Removing mpu6050.o(.ARM.exidx), (8 bytes).
    Removing mpu6050.o(.ARM.exidx), (8 bytes).
    Removing mpu6050.o(.ARM.exidx), (8 bytes).
    Removing mpu6050.o(.ARM.exidx), (8 bytes).
    Removing mpu6050.o(.ARM.exidx), (8 bytes).
    Removing mpu6050.o(.ARM.exidx), (8 bytes).
    Removing mpu6050.o(.ARM.exidx), (8 bytes).
    Removing mpu6050.o(.ARM.exidx), (8 bytes).
    Removing mpu6050.o(.ARM.exidx), (8 bytes).
    Removing mpu6050.o(.ARM.exidx), (8 bytes).
    Removing mpu6050.o(.ARM.exidx), (8 bytes).
    Removing mpu6050.o(.ARM.exidx), (8 bytes).
    Removing mpu6050.o(.ARM.exidx), (8 bytes).
    Removing mpu6050.o(.ARM.exidx), (8 bytes).
    Removing mpu6050.o(.ARM.exidx), (8 bytes).
    Removing mpu6050.o(.ARM.exidx), (8 bytes).
    Removing mpu6050.o(.ARM.exidx), (8 bytes).
    Removing mpu6050.o(.ARM.exidx), (8 bytes).
    Removing mpu6050.o(.ARM.exidx), (8 bytes).
    Removing mpu6050.o(.ARM.exidx), (8 bytes).
    Removing mpu6050.o(.ARM.exidx), (8 bytes).
    Removing mpu6050.o(.ARM.exidx), (8 bytes).
    Removing mpu6050.o(.ARM.exidx), (8 bytes).
    Removing mpu6050.o(.ARM.exidx), (8 bytes).
    Removing mpu6050.o(.ARM.exidx), (8 bytes).
    Removing mpu6050.o(.ARM.exidx), (8 bytes).
    Removing mpu6050.o(.ARM.exidx), (8 bytes).
    Removing mpu6050.o(.ARM.exidx), (8 bytes).
    Removing mpu6050.o(.ARM.exidx), (8 bytes).
    Removing mpu6050.o(.ARM.exidx), (8 bytes).
    Removing mpu6050.o(.ARM.exidx), (8 bytes).
    Removing mpu6050.o(.ARM.exidx), (8 bytes).
    Removing mpu6050.o(.ARM.exidx), (8 bytes).
    Removing mpu6050.o(.ARM.exidx), (8 bytes).
    Removing mpu6050.o(.ARM.exidx), (8 bytes).
    Removing mpu6050.o(.ARM.exidx), (8 bytes).
    Removing mpu6050.o(.ARM.exidx), (8 bytes).
    Removing mpu6050.o(.ARM.exidx), (8 bytes).
    Removing mpu6050.o(.ARM.exidx), (8 bytes).
    Removing mpu6050.o(.ARM.exidx), (8 bytes).
    Removing mpu6050.o(.ARM.exidx), (8 bytes).
    Removing mpu6050.o(.ARM.exidx), (8 bytes).
    Removing mpu6050.o(.ARM.exidx), (8 bytes).
    Removing mpu6050.o(.ARM.exidx), (8 bytes).
    Removing mpu6050.o(.ARM.exidx), (8 bytes).
    Removing mpu6050.o(.ARM.exidx), (8 bytes).
    Removing mpu6050.o(.ARM.exidx), (8 bytes).
    Removing mpu6050.o(.ARM.exidx), (8 bytes).
    Removing mpu6050.o(.ARM.exidx), (8 bytes).
    Removing mpu6050.o(.ARM.exidx), (8 bytes).
    Removing mpu6050.o(.ARM.exidx), (8 bytes).
    Removing mpu6050.o(.ARM.exidx), (8 bytes).
    Removing mpu6050.o(.ARM.exidx), (8 bytes).
    Removing mpu6050.o(.ARM.exidx), (8 bytes).
    Removing mpu6050.o(.ARM.exidx), (8 bytes).
    Removing mpu6050.o(.ARM.exidx), (8 bytes).
    Removing mpu6050.o(.ARM.exidx), (8 bytes).
    Removing mpu6050.o(.ARM.exidx), (8 bytes).
    Removing mpu6050.o(.ARM.exidx), (8 bytes).
    Removing mpu6050.o(.ARM.exidx), (8 bytes).
    Removing mpu6050.o(.ARM.exidx), (8 bytes).
    Removing mpu6050.o(.ARM.exidx), (8 bytes).
    Removing mpu6050.o(.ARM.exidx), (8 bytes).
    Removing mpu6050.o(.ARM.exidx), (8 bytes).
    Removing mpu6050.o(.ARM.exidx), (8 bytes).
    Removing mpu6050.o(.ARM.exidx), (8 bytes).
    Removing mpu6050.o(.ARM.exidx), (8 bytes).
    Removing mpu6050.o(.ARM.exidx), (8 bytes).
    Removing mpu6050.o(.ARM.exidx), (8 bytes).
    Removing mpu6050.o(.ARM.exidx), (8 bytes).
    Removing mpu6050.o(.ARM.exidx), (8 bytes).
    Removing mpu6050.o(.ARM.exidx), (8 bytes).
    Removing mpu6050.o(.ARM.exidx), (8 bytes).
    Removing mpu6050.o(.ARM.exidx), (8 bytes).
    Removing mpu6050.o(.ARM.exidx), (8 bytes).
    Removing mpu6050.o(.ARM.exidx), (8 bytes).
    Removing mpu6050.o(.ARM.exidx), (8 bytes).
    Removing mpu6050.o(.ARM.exidx), (8 bytes).
    Removing mpu6050.o(.ARM.exidx), (8 bytes).
    Removing mpu6050.o(.ARM.exidx), (8 bytes).
    Removing mpu6050.o(.ARM.exidx), (8 bytes).
    Removing mpu6050.o(.ARM.exidx), (8 bytes).
    Removing mpu6050.o(.ARM.exidx), (8 bytes).
    Removing mpu6050.o(.ARM.exidx), (8 bytes).
    Removing mpu6050.o(.ARM.exidx), (8 bytes).
    Removing mpu6050.o(.ARM.exidx), (8 bytes).
    Removing mpu6050.o(.ARM.exidx), (8 bytes).
    Removing mpu6050.o(.ARM.exidx), (8 bytes).
    Removing mpu6050.o(.ARM.exidx), (8 bytes).
    Removing mpu6050.o(.ARM.exidx), (8 bytes).
    Removing mpu6050.o(.ARM.exidx), (8 bytes).
    Removing mpu6050.o(.ARM.exidx), (8 bytes).
    Removing mpu6050.o(.ARM.exidx), (8 bytes).
    Removing mpu6050.o(.ARM.exidx), (8 bytes).
    Removing mpu6050.o(.ARM.exidx), (8 bytes).
    Removing mpu6050.o(.ARM.exidx), (8 bytes).
    Removing mpu6050.o(.ARM.exidx), (8 bytes).
    Removing mpu6050.o(.ARM.exidx), (8 bytes).
    Removing mpu6050.o(.ARM.exidx), (8 bytes).
    Removing mpu6050.o(.ARM.exidx), (8 bytes).
    Removing mpu6050.o(.ARM.exidx), (8 bytes).
    Removing mpu6050.o(.ARM.exidx), (8 bytes).
    Removing mpu6050.o(.ARM.exidx), (8 bytes).
    Removing mpu6050.o(.ARM.exidx), (8 bytes).
    Removing mpu6050.o(.ARM.exidx), (8 bytes).
    Removing mpu6050.o(.ARM.exidx), (8 bytes).
    Removing mpu6050.o(.ARM.exidx), (8 bytes).
    Removing mpu6050.o(.ARM.exidx), (8 bytes).
    Removing mpu6050.o(.ARM.exidx), (8 bytes).
    Removing mpu6050.o(.ARM.exidx), (8 bytes).
    Removing mpu6050.o(.ARM.exidx), (8 bytes).
    Removing mpu6050.o(.ARM.exidx), (8 bytes).
    Removing mpu6050.o(.ARM.exidx), (8 bytes).
    Removing mpu6050.o(.ARM.exidx), (8 bytes).
    Removing mpu6050.o(.ARM.exidx), (8 bytes).
    Removing mpu6050.o(.ARM.exidx), (8 bytes).
    Removing mpu6050.o(.ARM.exidx), (8 bytes).
    Removing mpu6050.o(.ARM.exidx), (8 bytes).
    Removing mpu6050.o(.ARM.exidx), (8 bytes).
    Removing mpu6050.o(.ARM.exidx), (8 bytes).
    Removing mpu6050.o(.ARM.exidx), (8 bytes).
    Removing mpu6050.o(.ARM.exidx), (8 bytes).
    Removing mpu6050.o(.ARM.exidx), (8 bytes).
    Removing mpu6050.o(.ARM.exidx), (8 bytes).
    Removing mpu6050.o(.ARM.exidx), (8 bytes).
    Removing mpu6050.o(.ARM.exidx), (8 bytes).
    Removing mpu6050.o(.ARM.exidx), (8 bytes).
    Removing mpu6050.o(.ARM.exidx), (8 bytes).
    Removing mpu6050.o(.ARM.exidx), (8 bytes).
    Removing mpu6050.o(.ARM.exidx), (8 bytes).
    Removing mpu6050.o(.ARM.exidx), (8 bytes).
    Removing mpu6050.o(.ARM.exidx), (8 bytes).
    Removing mpu6050.o(.ARM.exidx), (8 bytes).
    Removing mpu6050.o(.ARM.exidx), (8 bytes).
    Removing mpu6050.o(.ARM.exidx), (8 bytes).
    Removing mpu6050.o(.ARM.exidx), (8 bytes).
    Removing mpu6050.o(.ARM.exidx), (8 bytes).
    Removing mpu6050.o(.ARM.exidx), (8 bytes).
    Removing mpu6050.o(.ARM.exidx), (8 bytes).
    Removing mpu6050.o(.ARM.exidx), (8 bytes).
    Removing mpu6050.o(.ARM.exidx), (8 bytes).
    Removing mpu6050.o(.ARM.exidx), (8 bytes).
    Removing mpu6050.o(.ARM.exidx), (8 bytes).
    Removing mpu6050.o(.ARM.exidx), (8 bytes).
    Removing mpu6050.o(.ARM.exidx), (8 bytes).
    Removing mpu6050.o(.ARM.exidx), (8 bytes).
    Removing mpu6050.o(.ARM.exidx), (8 bytes).
    Removing mpu6050.o(.ARM.exidx), (8 bytes).
    Removing mpu6050.o(.ARM.exidx), (8 bytes).
    Removing mpu6050.o(.ARM.exidx), (8 bytes).
    Removing mpu6050.o(.ARM.exidx), (8 bytes).
    Removing mpu6050.o(.ARM.exidx), (8 bytes).
    Removing mpu6050.o(.ARM.exidx), (8 bytes).
    Removing mpu6050.o(.ARM.exidx), (8 bytes).
    Removing mpu6050.o(.ARM.exidx), (8 bytes).
    Removing mpu6050.o(.ARM.exidx), (8 bytes).
    Removing mpu6050.o(.ARM.exidx), (8 bytes).
    Removing mpu6050.o(.ARM.exidx), (8 bytes).
    Removing mpu6050.o(.ARM.exidx), (8 bytes).
    Removing mpu6050.o(.ARM.exidx), (8 bytes).
    Removing mpu6050.o(.ARM.exidx), (8 bytes).
    Removing mpu6050.o(.ARM.exidx), (8 bytes).
    Removing mpu6050.o(.ARM.exidx), (8 bytes).
    Removing mpu6050.o(.ARM.exidx), (8 bytes).
    Removing mpu6050.o(.ARM.exidx), (8 bytes).
    Removing mpu6050.o(.ARM.exidx), (8 bytes).
    Removing mpu6050.o(.ARM.exidx), (8 bytes).
    Removing mpu6050.o(.ARM.exidx), (8 bytes).
    Removing mpu6050.o(.ARM.exidx), (8 bytes).
    Removing mpu6050.o(.ARM.exidx), (8 bytes).
    Removing mpu6050.o(.ARM.exidx), (8 bytes).
    Removing mpu6050.o(.ARM.exidx), (8 bytes).
    Removing mpu6050.o(.ARM.exidx), (8 bytes).
    Removing mpu6050.o(.ARM.exidx), (8 bytes).
    Removing mpu6050.o(.ARM.exidx), (8 bytes).
    Removing mpu6050.o(.ARM.exidx), (8 bytes).
    Removing mpu6050.o(.ARM.exidx), (8 bytes).
    Removing mpu6050.o(.ARM.exidx), (8 bytes).
    Removing mpu6050.o(.ARM.exidx), (8 bytes).
    Removing mpu6050.o(.ARM.exidx), (8 bytes).
    Removing mpu6050.o(.ARM.exidx), (8 bytes).
    Removing mpu6050.o(.ARM.exidx), (8 bytes).
    Removing mpu6050.o(.ARM.exidx), (8 bytes).
    Removing mpu6050.o(.ARM.exidx), (8 bytes).
    Removing mpu6050.o(.ARM.exidx), (8 bytes).
    Removing mpu6050.o(.ARM.exidx), (8 bytes).
    Removing mpu6050.o(.ARM.exidx), (8 bytes).
    Removing mpu6050.o(.ARM.exidx), (8 bytes).
    Removing mpu6050.o(.ARM.exidx), (8 bytes).
    Removing mpu6050.o(.ARM.exidx), (8 bytes).
    Removing mpu6050.o(.ARM.exidx), (8 bytes).
    Removing mpu6050.o(.ARM.exidx), (8 bytes).
    Removing mpu6050.o(.ARM.exidx), (8 bytes).
    Removing mpu6050.o(.ARM.exidx), (8 bytes).
    Removing mpu6050.o(.ARM.exidx), (8 bytes).
    Removing mpu6050.o(.ARM.exidx), (8 bytes).
    Removing mpu6050.o(.ARM.exidx), (8 bytes).
    Removing mpu6050.o(.ARM.exidx), (8 bytes).
    Removing mpu6050.o(.ARM.exidx), (8 bytes).
    Removing mpu6050.o(.ARM.exidx), (8 bytes).
    Removing mpu6050.o(.ARM.exidx), (8 bytes).
    Removing mpu6050.o(.ARM.exidx), (8 bytes).
    Removing mpu6050.o(.ARM.exidx), (8 bytes).
    Removing mpu6050.o(.ARM.exidx), (8 bytes).
    Removing mpu6050.o(.ARM.exidx), (8 bytes).
    Removing mpu6050.o(.ARM.exidx), (8 bytes).
    Removing mpu6050.o(.ARM.exidx), (8 bytes).
    Removing mpu6050.o(.ARM.exidx), (8 bytes).
    Removing mpu6050.o(.ARM.exidx), (8 bytes).
    Removing mpu6050.o(.ARM.exidx), (8 bytes).
    Removing mpu6050.o(.ARM.exidx), (8 bytes).
    Removing mpu6050.o(.ARM.exidx), (8 bytes).
    Removing mpu6050.o(.ARM.exidx), (8 bytes).
    Removing mpu6050.o(.ARM.exidx), (8 bytes).
    Removing mpu6050.o(.ARM.exidx), (8 bytes).
    Removing mpu6050.o(.ARM.exidx), (8 bytes).
    Removing mpu6050.o(.ARM.exidx), (8 bytes).
    Removing mpu6050.o(.ARM.exidx), (8 bytes).
    Removing mpu6050.o(.ARM.exidx), (8 bytes).
    Removing mpu6050.o(.ARM.exidx), (8 bytes).
    Removing mpu6050.o(.ARM.exidx), (8 bytes).
    Removing mpu6050.o(.ARM.exidx), (8 bytes).
    Removing mpu6050.o(.ARM.exidx), (8 bytes).
    Removing mpu6050.o(.ARM.exidx), (8 bytes).
    Removing mpu6050.o(.ARM.exidx), (8 bytes).
    Removing mpu6050.o(.ARM.exidx), (8 bytes).
    Removing mpu6050.o(.ARM.exidx), (8 bytes).
    Removing mpu6050.o(.ARM.exidx), (8 bytes).
    Removing mpu6050.o(.ARM.exidx), (8 bytes).
    Removing mpu6050.o(.ARM.exidx), (8 bytes).
    Removing mpu6050.o(.ARM.exidx), (8 bytes).
    Removing mpu6050.o(.ARM.exidx), (8 bytes).
    Removing mpu6050.o(.ARM.exidx), (8 bytes).
    Removing mpu6050.o(.ARM.exidx), (8 bytes).
    Removing mpu6050.o(.ARM.exidx), (8 bytes).
    Removing mpu6050.o(.ARM.exidx), (8 bytes).
    Removing mpu6050.o(.ARM.exidx), (8 bytes).
    Removing mpu6050.o(.ARM.exidx), (8 bytes).
    Removing i2cdev.o(.rev16_text), (4 bytes).
    Removing i2cdev.o(.revsh_text), (4 bytes).
    Removing i2cdev.o(.rrx_text), (6 bytes).
    Removing i2cdev.o(i._ZN6I2Cdev10writeBitsWEhhhht), (96 bytes).
    Removing i2cdev.o(i._ZN6I2Cdev10writeBytesEhhhPh), (80 bytes).
    Removing i2cdev.o(i._ZN6I2Cdev10writeWordsEhhhPt), (104 bytes).
    Removing i2cdev.o(i._ZN6I2Cdev7readBitEhhhPht), (52 bytes).
    Removing i2cdev.o(i._ZN6I2Cdev8readBitWEhhhPtt), (52 bytes).
    Removing i2cdev.o(i._ZN6I2Cdev8readBitsEhhhhPht), (88 bytes).
    Removing i2cdev.o(i._ZN6I2Cdev8readByteEhhPht), (26 bytes).
    Removing i2cdev.o(i._ZN6I2Cdev8readWordEhhPtt), (26 bytes).
    Removing i2cdev.o(i._ZN6I2Cdev8writeBitEhhhh), (72 bytes).
    Removing i2cdev.o(i._ZN6I2Cdev9readBitsWEhhhhPtt), (88 bytes).
    Removing i2cdev.o(i._ZN6I2Cdev9readBytesEhhhPht), (172 bytes).
    Removing i2cdev.o(i._ZN6I2Cdev9readWordsEhhhPtt), (212 bytes).
    Removing i2cdev.o(i._ZN6I2Cdev9writeBitWEhhht), (72 bytes).
    Removing i2cdev.o(i._ZN6I2Cdev9writeBitsEhhhhh), (96 bytes).
    Removing i2cdev.o(i._ZN6I2Cdev9writeByteEhhh), (20 bytes).
    Removing i2cdev.o(i._ZN6I2Cdev9writeWordEhht), (20 bytes).
    Removing i2cdev.o(i._ZN6I2CdevC1Ev), (2 bytes).
    Removing i2cdev.o(.ARM.exidx), (8 bytes).
    Removing i2cdev.o(.ARM.exidx), (8 bytes).
    Removing i2cdev.o(.ARM.exidx), (8 bytes).
    Removing i2cdev.o(.ARM.exidx), (8 bytes).
    Removing i2cdev.o(.ARM.exidx), (8 bytes).
    Removing i2cdev.o(.ARM.exidx), (8 bytes).
    Removing i2cdev.o(.ARM.exidx), (8 bytes).
    Removing i2cdev.o(.ARM.exidx), (8 bytes).
    Removing i2cdev.o(.ARM.exidx), (8 bytes).
    Removing i2cdev.o(.ARM.exidx), (8 bytes).
    Removing i2cdev.o(.ARM.exidx), (8 bytes).
    Removing i2cdev.o(.ARM.exidx), (8 bytes).
    Removing i2cdev.o(.ARM.exidx), (8 bytes).
    Removing i2cdev.o(.ARM.exidx), (8 bytes).
    Removing i2cdev.o(.ARM.exidx), (8 bytes).
    Removing i2cdev.o(.ARM.exidx), (8 bytes).
    Removing i2cdev.o(.ARM.exidx), (8 bytes).
    Removing i2cdev.o(.data), (2 bytes).
    Removing misc.o(.rev16_text), (4 bytes).
    Removing misc.o(.revsh_text), (4 bytes).
    Removing misc.o(.rrx_text), (6 bytes).
    Removing misc.o(i.NVIC_SetVectorTable), (20 bytes).
    Removing misc.o(i.NVIC_SystemLPConfig), (32 bytes).
    Removing misc.o(i.SysTick_CLKSourceConfig), (40 bytes).
    Removing stm32f4xx_adc.o(.rev16_text), (4 bytes).
    Removing stm32f4xx_adc.o(.revsh_text), (4 bytes).
    Removing stm32f4xx_adc.o(.rrx_text), (6 bytes).
    Removing stm32f4xx_adc.o(i.ADC_AnalogWatchdogCmd), (20 bytes).
    Removing stm32f4xx_adc.o(i.ADC_AnalogWatchdogSingleChannelConfig), (16 bytes).
    Removing stm32f4xx_adc.o(i.ADC_AnalogWatchdogThresholdsConfig), (6 bytes).
    Removing stm32f4xx_adc.o(i.ADC_AutoInjectedConvCmd), (22 bytes).
    Removing stm32f4xx_adc.o(i.ADC_ClearFlag), (6 bytes).
    Removing stm32f4xx_adc.o(i.ADC_ClearITPendingBit), (10 bytes).
    Removing stm32f4xx_adc.o(i.ADC_CommonStructInit), (12 bytes).
    Removing stm32f4xx_adc.o(i.ADC_ContinuousModeCmd), (22 bytes).
    Removing stm32f4xx_adc.o(i.ADC_DMACmd), (22 bytes).
    Removing stm32f4xx_adc.o(i.ADC_DMARequestAfterLastTransferCmd), (22 bytes).
    Removing stm32f4xx_adc.o(i.ADC_DeInit), (22 bytes).
    Removing stm32f4xx_adc.o(i.ADC_DiscModeChannelCountConfig), (24 bytes).
    Removing stm32f4xx_adc.o(i.ADC_DiscModeCmd), (22 bytes).
    Removing stm32f4xx_adc.o(i.ADC_EOCOnEachRegularChannelCmd), (22 bytes).
    Removing stm32f4xx_adc.o(i.ADC_ExternalTrigInjectedConvConfig), (16 bytes).
    Removing stm32f4xx_adc.o(i.ADC_ExternalTrigInjectedConvEdgeConfig), (16 bytes).
    Removing stm32f4xx_adc.o(i.ADC_GetConversionValue), (8 bytes).
    Removing stm32f4xx_adc.o(i.ADC_GetFlagStatus), (18 bytes).
    Removing stm32f4xx_adc.o(i.ADC_GetITStatus), (38 bytes).
    Removing stm32f4xx_adc.o(i.ADC_GetInjectedConversionValue), (28 bytes).
    Removing stm32f4xx_adc.o(i.ADC_GetMultiModeConversionValue), (12 bytes).
    Removing stm32f4xx_adc.o(i.ADC_GetSoftwareStartConvStatus), (20 bytes).
    Removing stm32f4xx_adc.o(i.ADC_GetSoftwareStartInjectedConvCmdStatus), (20 bytes).
    Removing stm32f4xx_adc.o(i.ADC_ITConfig), (32 bytes).
    Removing stm32f4xx_adc.o(i.ADC_InjectedChannelConfig), (130 bytes).
    Removing stm32f4xx_adc.o(i.ADC_InjectedDiscModeCmd), (22 bytes).
    Removing stm32f4xx_adc.o(i.ADC_InjectedSequencerLengthConfig), (24 bytes).
    Removing stm32f4xx_adc.o(i.ADC_MultiModeDMARequestAfterLastTransferCmd), (44 bytes).
    Removing stm32f4xx_adc.o(i.ADC_RegularChannelConfig), (184 bytes).
    Removing stm32f4xx_adc.o(i.ADC_SetInjectedOffset), (20 bytes).
    Removing stm32f4xx_adc.o(i.ADC_SoftwareStartConv), (10 bytes).
    Removing stm32f4xx_adc.o(i.ADC_SoftwareStartInjectedConv), (10 bytes).
    Removing stm32f4xx_adc.o(i.ADC_StructInit), (20 bytes).
    Removing stm32f4xx_adc.o(i.ADC_TempSensorVrefintCmd), (44 bytes).
    Removing stm32f4xx_adc.o(i.ADC_VBATCmd), (44 bytes).
    Removing stm32f4xx_dac.o(.rev16_text), (4 bytes).
    Removing stm32f4xx_dac.o(.revsh_text), (4 bytes).
    Removing stm32f4xx_dac.o(.rrx_text), (6 bytes).
    Removing stm32f4xx_dac.o(i.DAC_ClearFlag), (16 bytes).
    Removing stm32f4xx_dac.o(i.DAC_ClearITPendingBit), (16 bytes).
    Removing stm32f4xx_dac.o(i.DAC_Cmd), (40 bytes).
    Removing stm32f4xx_dac.o(i.DAC_DMACmd), (44 bytes).
    Removing stm32f4xx_dac.o(i.DAC_DeInit), (22 bytes).
    Removing stm32f4xx_dac.o(i.DAC_DualSoftwareTriggerCmd), (36 bytes).
    Removing stm32f4xx_dac.o(i.DAC_GetDataOutputValue), (36 bytes).
    Removing stm32f4xx_dac.o(i.DAC_GetFlagStatus), (32 bytes).
    Removing stm32f4xx_dac.o(i.DAC_GetITStatus), (48 bytes).
    Removing stm32f4xx_dac.o(i.DAC_ITConfig), (40 bytes).
    Removing stm32f4xx_dac.o(i.DAC_Init), (52 bytes).
    Removing stm32f4xx_dac.o(i.DAC_SetChannel1Data), (32 bytes).
    Removing stm32f4xx_dac.o(i.DAC_SetChannel2Data), (32 bytes).
    Removing stm32f4xx_dac.o(i.DAC_SetDualChannelData), (36 bytes).
    Removing stm32f4xx_dac.o(i.DAC_SoftwareTriggerCmd), (44 bytes).
    Removing stm32f4xx_dac.o(i.DAC_StructInit), (12 bytes).
    Removing stm32f4xx_dac.o(i.DAC_WaveGenerationCmd), (40 bytes).
    Removing stm32f4xx_dbgmcu.o(.rev16_text), (4 bytes).
    Removing stm32f4xx_dbgmcu.o(.revsh_text), (4 bytes).
    Removing stm32f4xx_dbgmcu.o(.rrx_text), (6 bytes).
    Removing stm32f4xx_dbgmcu.o(i.DBGMCU_APB1PeriphConfig), (32 bytes).
    Removing stm32f4xx_dbgmcu.o(i.DBGMCU_APB2PeriphConfig), (32 bytes).
    Removing stm32f4xx_dbgmcu.o(i.DBGMCU_Config), (32 bytes).
    Removing stm32f4xx_dbgmcu.o(i.DBGMCU_GetDEVID), (16 bytes).
    Removing stm32f4xx_dbgmcu.o(i.DBGMCU_GetREVID), (12 bytes).
    Removing stm32f4xx_dma.o(.rev16_text), (4 bytes).
    Removing stm32f4xx_dma.o(.revsh_text), (4 bytes).
    Removing stm32f4xx_dma.o(.rrx_text), (6 bytes).
    Removing stm32f4xx_dma.o(i.DMA_ClearFlag), (52 bytes).
    Removing stm32f4xx_dma.o(i.DMA_ClearITPendingBit), (52 bytes).
    Removing stm32f4xx_dma.o(i.DMA_Cmd), (22 bytes).
    Removing stm32f4xx_dma.o(i.DMA_DeInit), (344 bytes).
    Removing stm32f4xx_dma.o(i.DMA_DoubleBufferModeCmd), (22 bytes).
    Removing stm32f4xx_dma.o(i.DMA_DoubleBufferModeConfig), (24 bytes).
    Removing stm32f4xx_dma.o(i.DMA_FlowControllerConfig), (22 bytes).
    Removing stm32f4xx_dma.o(i.DMA_GetCmdStatus), (20 bytes).
    Removing stm32f4xx_dma.o(i.DMA_GetCurrDataCounter), (8 bytes).
    Removing stm32f4xx_dma.o(i.DMA_GetCurrentMemoryTarget), (20 bytes).
    Removing stm32f4xx_dma.o(i.DMA_GetFIFOStatus), (12 bytes).
    Removing stm32f4xx_dma.o(i.DMA_GetFlagStatus), (68 bytes).
    Removing stm32f4xx_dma.o(i.DMA_GetITStatus), (100 bytes).
    Removing stm32f4xx_dma.o(i.DMA_ITConfig), (58 bytes).
    Removing stm32f4xx_dma.o(i.DMA_Init), (88 bytes).
    Removing stm32f4xx_dma.o(i.DMA_MemoryTargetConfig), (10 bytes).
    Removing stm32f4xx_dma.o(i.DMA_PeriphIncOffsetSizeConfig), (22 bytes).
    Removing stm32f4xx_dma.o(i.DMA_SetCurrDataCounter), (4 bytes).
    Removing stm32f4xx_dma.o(i.DMA_StructInit), (34 bytes).
    Removing stm32f4xx_exti.o(.rev16_text), (4 bytes).
    Removing stm32f4xx_exti.o(.revsh_text), (4 bytes).
    Removing stm32f4xx_exti.o(.rrx_text), (6 bytes).
    Removing stm32f4xx_exti.o(i.EXTI_ClearFlag), (12 bytes).
    Removing stm32f4xx_exti.o(i.EXTI_DeInit), (36 bytes).
    Removing stm32f4xx_exti.o(i.EXTI_GenerateSWInterrupt), (16 bytes).
    Removing stm32f4xx_exti.o(i.EXTI_GetFlagStatus), (24 bytes).
    Removing stm32f4xx_exti.o(i.EXTI_Init), (148 bytes).
    Removing stm32f4xx_exti.o(i.EXTI_StructInit), (16 bytes).
    Removing stm32f4xx_flash.o(.rev16_text), (4 bytes).
    Removing stm32f4xx_flash.o(.revsh_text), (4 bytes).
    Removing stm32f4xx_flash.o(.rrx_text), (6 bytes).
    Removing stm32f4xx_flash.o(i.FLASH_ClearFlag), (12 bytes).
    Removing stm32f4xx_flash.o(i.FLASH_DataCacheCmd), (36 bytes).
    Removing stm32f4xx_flash.o(i.FLASH_DataCacheReset), (20 bytes).
    Removing stm32f4xx_flash.o(i.FLASH_EraseAllBank1Sectors), (108 bytes).
    Removing stm32f4xx_flash.o(i.FLASH_EraseAllBank2Sectors), (108 bytes).
    Removing stm32f4xx_flash.o(i.FLASH_EraseAllSectors), (108 bytes).
    Removing stm32f4xx_flash.o(i.FLASH_EraseSector), (136 bytes).
    Removing stm32f4xx_flash.o(i.FLASH_GetFlagStatus), (24 bytes).
    Removing stm32f4xx_flash.o(i.FLASH_GetStatus), (84 bytes).
    Removing stm32f4xx_flash.o(i.FLASH_ITConfig), (32 bytes).
    Removing stm32f4xx_flash.o(i.FLASH_InstructionCacheCmd), (36 bytes).
    Removing stm32f4xx_flash.o(i.FLASH_InstructionCacheReset), (20 bytes).
    Removing stm32f4xx_flash.o(i.FLASH_Lock), (20 bytes).
    Removing stm32f4xx_flash.o(i.FLASH_OB_BORConfig), (28 bytes).
    Removing stm32f4xx_flash.o(i.FLASH_OB_BootConfig), (28 bytes).
    Removing stm32f4xx_flash.o(i.FLASH_OB_GetBOR), (16 bytes).
    Removing stm32f4xx_flash.o(i.FLASH_OB_GetPCROP), (12 bytes).
    Removing stm32f4xx_flash.o(i.FLASH_OB_GetPCROP1), (12 bytes).
    Removing stm32f4xx_flash.o(i.FLASH_OB_GetRDP), (24 bytes).
    Removing stm32f4xx_flash.o(i.FLASH_OB_GetUser), (16 bytes).
    Removing stm32f4xx_flash.o(i.FLASH_OB_GetWRP), (12 bytes).
    Removing stm32f4xx_flash.o(i.FLASH_OB_GetWRP1), (12 bytes).
    Removing stm32f4xx_flash.o(i.FLASH_OB_Launch), (32 bytes).
    Removing stm32f4xx_flash.o(i.FLASH_OB_Lock), (20 bytes).
    Removing stm32f4xx_flash.o(i.FLASH_OB_PCROP1Config), (52 bytes).
    Removing stm32f4xx_flash.o(i.FLASH_OB_PCROPConfig), (52 bytes).
    Removing stm32f4xx_flash.o(i.FLASH_OB_PCROPSelectionConfig), (24 bytes).
    Removing stm32f4xx_flash.o(i.FLASH_OB_RDPConfig), (28 bytes).
    Removing stm32f4xx_flash.o(i.FLASH_OB_Unlock), (36 bytes).
    Removing stm32f4xx_flash.o(i.FLASH_OB_UserConfig), (48 bytes).
    Removing stm32f4xx_flash.o(i.FLASH_OB_WRP1Config), (52 bytes).
    Removing stm32f4xx_flash.o(i.FLASH_OB_WRPConfig), (52 bytes).
    Removing stm32f4xx_flash.o(i.FLASH_PrefetchBufferCmd), (36 bytes).
    Removing stm32f4xx_flash.o(i.FLASH_ProgramByte), (76 bytes).
    Removing stm32f4xx_flash.o(i.FLASH_ProgramDoubleWord), (84 bytes).
    Removing stm32f4xx_flash.o(i.FLASH_ProgramHalfWord), (80 bytes).
    Removing stm32f4xx_flash.o(i.FLASH_ProgramWord), (80 bytes).
    Removing stm32f4xx_flash.o(i.FLASH_SetLatency), (12 bytes).
    Removing stm32f4xx_flash.o(i.FLASH_Unlock), (36 bytes).
    Removing stm32f4xx_flash.o(i.FLASH_WaitForLastOperation), (34 bytes).
    Removing stm32f4xx_flash_ramfunc.o(.rev16_text), (4 bytes).
    Removing stm32f4xx_flash_ramfunc.o(.revsh_text), (4 bytes).
    Removing stm32f4xx_flash_ramfunc.o(.rrx_text), (6 bytes).
    Removing stm32f4xx_flash_ramfunc.o(i.FLASH_FlashInterfaceCmd), (36 bytes).
    Removing stm32f4xx_flash_ramfunc.o(i.FLASH_FlashSleepModeCmd), (36 bytes).
    Removing stm32f4xx_gpio.o(.rev16_text), (4 bytes).
    Removing stm32f4xx_gpio.o(.revsh_text), (4 bytes).
    Removing stm32f4xx_gpio.o(.rrx_text), (6 bytes).
    Removing stm32f4xx_gpio.o(i.GPIO_DeInit), (312 bytes).
    Removing stm32f4xx_gpio.o(i.GPIO_PinLockConfig), (34 bytes).
    Removing stm32f4xx_gpio.o(i.GPIO_ReadInputData), (8 bytes).
    Removing stm32f4xx_gpio.o(i.GPIO_ReadInputDataBit), (18 bytes).
    Removing stm32f4xx_gpio.o(i.GPIO_ReadOutputData), (8 bytes).
    Removing stm32f4xx_gpio.o(i.GPIO_ReadOutputDataBit), (18 bytes).
    Removing stm32f4xx_gpio.o(i.GPIO_ResetBits), (4 bytes).
    Removing stm32f4xx_gpio.o(i.GPIO_SetBits), (4 bytes).
    Removing stm32f4xx_gpio.o(i.GPIO_StructInit), (18 bytes).
    Removing stm32f4xx_gpio.o(i.GPIO_ToggleBits), (8 bytes).
    Removing stm32f4xx_gpio.o(i.GPIO_Write), (4 bytes).
    Removing stm32f4xx_gpio.o(i.GPIO_WriteBit), (10 bytes).
    Removing stm32f4xx_iwdg.o(.rev16_text), (4 bytes).
    Removing stm32f4xx_iwdg.o(.revsh_text), (4 bytes).
    Removing stm32f4xx_iwdg.o(.rrx_text), (6 bytes).
    Removing stm32f4xx_iwdg.o(i.IWDG_Enable), (16 bytes).
    Removing stm32f4xx_iwdg.o(i.IWDG_GetFlagStatus), (24 bytes).
    Removing stm32f4xx_iwdg.o(i.IWDG_ReloadCounter), (16 bytes).
    Removing stm32f4xx_iwdg.o(i.IWDG_SetPrescaler), (12 bytes).
    Removing stm32f4xx_iwdg.o(i.IWDG_SetReload), (12 bytes).
    Removing stm32f4xx_iwdg.o(i.IWDG_WriteAccessCmd), (12 bytes).
    Removing stm32f4xx_pwr.o(.rev16_text), (4 bytes).
    Removing stm32f4xx_pwr.o(.revsh_text), (4 bytes).
    Removing stm32f4xx_pwr.o(.rrx_text), (6 bytes).
    Removing stm32f4xx_pwr.o(i.PWR_BackupAccessCmd), (12 bytes).
    Removing stm32f4xx_pwr.o(i.PWR_BackupRegulatorCmd), (12 bytes).
    Removing stm32f4xx_pwr.o(i.PWR_ClearFlag), (20 bytes).
    Removing stm32f4xx_pwr.o(i.PWR_DeInit), (22 bytes).
    Removing stm32f4xx_pwr.o(i.PWR_EnterSTANDBYMode), (40 bytes).
    Removing stm32f4xx_pwr.o(i.PWR_EnterSTOPMode), (68 bytes).
    Removing stm32f4xx_pwr.o(i.PWR_EnterUnderDriveSTOPMode), (68 bytes).
    Removing stm32f4xx_pwr.o(i.PWR_FlashPowerDownCmd), (12 bytes).
    Removing stm32f4xx_pwr.o(i.PWR_GetFlagStatus), (24 bytes).
    Removing stm32f4xx_pwr.o(i.PWR_LowRegulatorLowVoltageCmd), (24 bytes).
    Removing stm32f4xx_pwr.o(i.PWR_MainRegulatorLowVoltageCmd), (24 bytes).
    Removing stm32f4xx_pwr.o(i.PWR_MainRegulatorModeConfig), (24 bytes).
    Removing stm32f4xx_pwr.o(i.PWR_OverDriveCmd), (12 bytes).
    Removing stm32f4xx_pwr.o(i.PWR_OverDriveSWCmd), (12 bytes).
    Removing stm32f4xx_pwr.o(i.PWR_PVDCmd), (12 bytes).
    Removing stm32f4xx_pwr.o(i.PWR_PVDLevelConfig), (24 bytes).
    Removing stm32f4xx_pwr.o(i.PWR_UnderDriveCmd), (36 bytes).
    Removing stm32f4xx_pwr.o(i.PWR_WakeUpPinCmd), (12 bytes).
    Removing stm32f4xx_rcc.o(.rev16_text), (4 bytes).
    Removing stm32f4xx_rcc.o(.revsh_text), (4 bytes).
    Removing stm32f4xx_rcc.o(.rrx_text), (6 bytes).
    Removing stm32f4xx_rcc.o(i.RCC_AHB1PeriphClockLPModeCmd), (32 bytes).
    Removing stm32f4xx_rcc.o(i.RCC_AHB1PeriphResetCmd), (32 bytes).
    Removing stm32f4xx_rcc.o(i.RCC_AHB2PeriphClockCmd), (32 bytes).
    Removing stm32f4xx_rcc.o(i.RCC_AHB2PeriphClockLPModeCmd), (32 bytes).
    Removing stm32f4xx_rcc.o(i.RCC_AHB2PeriphResetCmd), (32 bytes).
    Removing stm32f4xx_rcc.o(i.RCC_APB1PeriphClockLPModeCmd), (32 bytes).
    Removing stm32f4xx_rcc.o(i.RCC_APB1PeriphResetCmd), (32 bytes).
    Removing stm32f4xx_rcc.o(i.RCC_APB2PeriphClockLPModeCmd), (32 bytes).
    Removing stm32f4xx_rcc.o(i.RCC_AdjustHSICalibrationValue), (24 bytes).
    Removing stm32f4xx_rcc.o(i.RCC_BackupResetCmd), (12 bytes).
    Removing stm32f4xx_rcc.o(i.RCC_ClearFlag), (20 bytes).
    Removing stm32f4xx_rcc.o(i.RCC_ClearITPendingBit), (12 bytes).
    Removing stm32f4xx_rcc.o(i.RCC_ClockSecuritySystemCmd), (12 bytes).
    Removing stm32f4xx_rcc.o(i.RCC_DeInit), (92 bytes).
    Removing stm32f4xx_rcc.o(i.RCC_GetFlagStatus), (64 bytes).
    Removing stm32f4xx_rcc.o(i.RCC_GetITStatus), (24 bytes).
    Removing stm32f4xx_rcc.o(i.RCC_GetSYSCLKSource), (16 bytes).
    Removing stm32f4xx_rcc.o(i.RCC_HCLKConfig), (24 bytes).
    Removing stm32f4xx_rcc.o(i.RCC_HSEConfig), (16 bytes).
    Removing stm32f4xx_rcc.o(i.RCC_HSICmd), (12 bytes).
    Removing stm32f4xx_rcc.o(i.RCC_I2SCLKConfig), (12 bytes).
    Removing stm32f4xx_rcc.o(i.RCC_ITConfig), (32 bytes).
    Removing stm32f4xx_rcc.o(i.RCC_LSEConfig), (44 bytes).
    Removing stm32f4xx_rcc.o(i.RCC_LSEModeConfig), (36 bytes).
    Removing stm32f4xx_rcc.o(i.RCC_LSICmd), (12 bytes).
    Removing stm32f4xx_rcc.o(i.RCC_LTDCCLKDivConfig), (24 bytes).
    Removing stm32f4xx_rcc.o(i.RCC_MCO1Config), (28 bytes).
    Removing stm32f4xx_rcc.o(i.RCC_MCO2Config), (28 bytes).
    Removing stm32f4xx_rcc.o(i.RCC_PCLK1Config), (24 bytes).
    Removing stm32f4xx_rcc.o(i.RCC_PCLK2Config), (24 bytes).
    Removing stm32f4xx_rcc.o(i.RCC_PLLCmd), (12 bytes).
    Removing stm32f4xx_rcc.o(i.RCC_PLLConfig), (36 bytes).
    Removing stm32f4xx_rcc.o(i.RCC_PLLI2SCmd), (12 bytes).
    Removing stm32f4xx_rcc.o(i.RCC_PLLI2SConfig), (20 bytes).
    Removing stm32f4xx_rcc.o(i.RCC_PLLSAICmd), (12 bytes).
    Removing stm32f4xx_rcc.o(i.RCC_PLLSAIConfig), (24 bytes).
    Removing stm32f4xx_rcc.o(i.RCC_RTCCLKCmd), (12 bytes).
    Removing stm32f4xx_rcc.o(i.RCC_RTCCLKConfig), (60 bytes).
    Removing stm32f4xx_rcc.o(i.RCC_SAIPLLI2SClkDivConfig), (28 bytes).
    Removing stm32f4xx_rcc.o(i.RCC_SAIPLLSAIClkDivConfig), (28 bytes).
    Removing stm32f4xx_rcc.o(i.RCC_SYSCLKConfig), (24 bytes).
    Removing stm32f4xx_rcc.o(i.RCC_TIMCLKPresConfig), (12 bytes).
    Removing stm32f4xx_rcc.o(i.RCC_WaitForHSEStartUp), (56 bytes).
    Removing stm32f4xx_rng.o(.rev16_text), (4 bytes).
    Removing stm32f4xx_rng.o(.revsh_text), (4 bytes).
    Removing stm32f4xx_rng.o(.rrx_text), (6 bytes).
    Removing stm32f4xx_rtc.o(.rev16_text), (4 bytes).
    Removing stm32f4xx_rtc.o(.revsh_text), (4 bytes).
    Removing stm32f4xx_rtc.o(.rrx_text), (6 bytes).
    Removing stm32f4xx_rtc.o(i.RTC_AlarmCmd), (116 bytes).
    Removing stm32f4xx_rtc.o(i.RTC_AlarmStructInit), (22 bytes).
    Removing stm32f4xx_rtc.o(i.RTC_AlarmSubSecondConfig), (52 bytes).
    Removing stm32f4xx_rtc.o(i.RTC_Bcd2ToByte), (22 bytes).
    Removing stm32f4xx_rtc.o(i.RTC_BypassShadowCmd), (60 bytes).
    Removing stm32f4xx_rtc.o(i.RTC_ByteToBcd2), (28 bytes).
    Removing stm32f4xx_rtc.o(i.RTC_CalibOutputCmd), (60 bytes).
    Removing stm32f4xx_rtc.o(i.RTC_CalibOutputConfig), (48 bytes).
    Removing stm32f4xx_rtc.o(i.RTC_ClearFlag), (28 bytes).
    Removing stm32f4xx_rtc.o(i.RTC_ClearITPendingBit), (32 bytes).
    Removing stm32f4xx_rtc.o(i.RTC_CoarseCalibCmd), (80 bytes).
    Removing stm32f4xx_rtc.o(i.RTC_CoarseCalibConfig), (56 bytes).
    Removing stm32f4xx_rtc.o(i.RTC_DateStructInit), (14 bytes).
    Removing stm32f4xx_rtc.o(i.RTC_DayLightSavingConfig), (56 bytes).
    Removing stm32f4xx_rtc.o(i.RTC_DeInit), (212 bytes).
    Removing stm32f4xx_rtc.o(i.RTC_EnterInitMode), (80 bytes).
    Removing stm32f4xx_rtc.o(i.RTC_ExitInitMode), (20 bytes).
    Removing stm32f4xx_rtc.o(i.RTC_GetAlarm), (116 bytes).
    Removing stm32f4xx_rtc.o(i.RTC_GetAlarmSubSecond), (36 bytes).
    Removing stm32f4xx_rtc.o(i.RTC_GetDate), (76 bytes).
    Removing stm32f4xx_rtc.o(i.RTC_GetFlagStatus), (40 bytes).
    Removing stm32f4xx_rtc.o(i.RTC_GetITStatus), (68 bytes).
    Removing stm32f4xx_rtc.o(i.RTC_GetStoreOperation), (16 bytes).
    Removing stm32f4xx_rtc.o(i.RTC_GetSubSecond), (20 bytes).
    Removing stm32f4xx_rtc.o(i.RTC_GetTime), (80 bytes).
    Removing stm32f4xx_rtc.o(i.RTC_GetTimeStamp), (156 bytes).
    Removing stm32f4xx_rtc.o(i.RTC_GetTimeStampSubSecond), (12 bytes).
    Removing stm32f4xx_rtc.o(i.RTC_GetWakeUpCounter), (12 bytes).
    Removing stm32f4xx_rtc.o(i.RTC_ITConfig), (100 bytes).
    Removing stm32f4xx_rtc.o(i.RTC_Init), (100 bytes).
    Removing stm32f4xx_rtc.o(i.RTC_OutputConfig), (56 bytes).
    Removing stm32f4xx_rtc.o(i.RTC_OutputTypeConfig), (28 bytes).
    Removing stm32f4xx_rtc.o(i.RTC_ReadBackupRegister), (32 bytes).
    Removing stm32f4xx_rtc.o(i.RTC_RefClockCmd), (80 bytes).
    Removing stm32f4xx_rtc.o(i.RTC_SetAlarm), (236 bytes).
    Removing stm32f4xx_rtc.o(i.RTC_SetDate), (200 bytes).
    Removing stm32f4xx_rtc.o(i.RTC_SetTime), (208 bytes).
    Removing stm32f4xx_rtc.o(i.RTC_SetWakeUpCounter), (28 bytes).
    Removing stm32f4xx_rtc.o(i.RTC_SmoothCalibConfig), (96 bytes).
    Removing stm32f4xx_rtc.o(i.RTC_StructInit), (14 bytes).
    Removing stm32f4xx_rtc.o(i.RTC_SynchroShiftConfig), (124 bytes).
    Removing stm32f4xx_rtc.o(i.RTC_TamperCmd), (32 bytes).
    Removing stm32f4xx_rtc.o(i.RTC_TamperFilterConfig), (28 bytes).
    Removing stm32f4xx_rtc.o(i.RTC_TamperPinSelection), (28 bytes).
    Removing stm32f4xx_rtc.o(i.RTC_TamperPinsPrechargeDuration), (28 bytes).
    Removing stm32f4xx_rtc.o(i.RTC_TamperPullUpCmd), (36 bytes).
    Removing stm32f4xx_rtc.o(i.RTC_TamperSamplingFreqConfig), (28 bytes).
    Removing stm32f4xx_rtc.o(i.RTC_TamperTriggerConfig), (36 bytes).
    Removing stm32f4xx_rtc.o(i.RTC_TimeStampCmd), (56 bytes).
    Removing stm32f4xx_rtc.o(i.RTC_TimeStampOnTamperDetectionCmd), (36 bytes).
    Removing stm32f4xx_rtc.o(i.RTC_TimeStampPinSelection), (28 bytes).
    Removing stm32f4xx_rtc.o(i.RTC_TimeStructInit), (12 bytes).
    Removing stm32f4xx_rtc.o(i.RTC_WaitForSynchro), (96 bytes).
    Removing stm32f4xx_rtc.o(i.RTC_WakeUpClockConfig), (48 bytes).
    Removing stm32f4xx_rtc.o(i.RTC_WakeUpCmd), (120 bytes).
    Removing stm32f4xx_rtc.o(i.RTC_WriteBackupRegister), (28 bytes).
    Removing stm32f4xx_rtc.o(i.RTC_WriteProtectionCmd), (28 bytes).
    Removing stm32f4xx_spi.o(.rev16_text), (4 bytes).
    Removing stm32f4xx_spi.o(.revsh_text), (4 bytes).
    Removing stm32f4xx_spi.o(.rrx_text), (6 bytes).
    Removing stm32f4xx_spi.o(i.I2S_Cmd), (24 bytes).
    Removing stm32f4xx_spi.o(i.I2S_FullDuplexConfig), (80 bytes).
    Removing stm32f4xx_spi.o(i.I2S_Init), (408 bytes).
    Removing stm32f4xx_spi.o(i.I2S_StructInit), (20 bytes).
    Removing stm32f4xx_spi.o(i.SPI_BiDirectionalLineConfig), (28 bytes).
    Removing stm32f4xx_spi.o(i.SPI_CalculateCRC), (24 bytes).
    Removing stm32f4xx_spi.o(i.SPI_Cmd), (24 bytes).
    Removing stm32f4xx_spi.o(i.SPI_DataSizeConfig), (18 bytes).
    Removing stm32f4xx_spi.o(i.SPI_GetCRC), (16 bytes).
    Removing stm32f4xx_spi.o(i.SPI_GetCRCPolynomial), (6 bytes).
    Removing stm32f4xx_spi.o(i.SPI_I2S_ClearFlag), (6 bytes).
    Removing stm32f4xx_spi.o(i.SPI_I2S_ClearITPendingBit), (20 bytes).
    Removing stm32f4xx_spi.o(i.SPI_I2S_DMACmd), (18 bytes).
    Removing stm32f4xx_spi.o(i.SPI_I2S_DeInit), (176 bytes).
    Removing stm32f4xx_spi.o(i.SPI_I2S_GetFlagStatus), (18 bytes).
    Removing stm32f4xx_spi.o(i.SPI_I2S_GetITStatus), (52 bytes).
    Removing stm32f4xx_spi.o(i.SPI_I2S_ITConfig), (32 bytes).
    Removing stm32f4xx_spi.o(i.SPI_I2S_ReceiveData), (6 bytes).
    Removing stm32f4xx_spi.o(i.SPI_I2S_SendData), (4 bytes).
    Removing stm32f4xx_spi.o(i.SPI_Init), (60 bytes).
    Removing stm32f4xx_spi.o(i.SPI_NSSInternalSoftwareConfig), (30 bytes).
    Removing stm32f4xx_spi.o(i.SPI_SSOutputCmd), (24 bytes).
    Removing stm32f4xx_spi.o(i.SPI_StructInit), (24 bytes).
    Removing stm32f4xx_spi.o(i.SPI_TIModeCmd), (24 bytes).
    Removing stm32f4xx_spi.o(i.SPI_TransmitCRC), (10 bytes).
    Removing stm32f4xx_syscfg.o(.rev16_text), (4 bytes).
    Removing stm32f4xx_syscfg.o(.revsh_text), (4 bytes).
    Removing stm32f4xx_syscfg.o(.rrx_text), (6 bytes).
    Removing stm32f4xx_syscfg.o(i.SYSCFG_CompensationCellCmd), (12 bytes).
    Removing stm32f4xx_syscfg.o(i.SYSCFG_DeInit), (22 bytes).
    Removing stm32f4xx_syscfg.o(i.SYSCFG_ETH_MediaInterfaceConfig), (12 bytes).
    Removing stm32f4xx_syscfg.o(i.SYSCFG_EXTILineConfig), (64 bytes).
    Removing stm32f4xx_syscfg.o(i.SYSCFG_GetCompensationCellStatus), (24 bytes).
    Removing stm32f4xx_syscfg.o(i.SYSCFG_MemoryRemapConfig), (12 bytes).
    Removing stm32f4xx_syscfg.o(i.SYSCFG_MemorySwappingBank), (12 bytes).
    Removing stm32f4xx_tim.o(.rev16_text), (4 bytes).
    Removing stm32f4xx_tim.o(.revsh_text), (4 bytes).
    Removing stm32f4xx_tim.o(.rrx_text), (6 bytes).
    Removing stm32f4xx_tim.o(i.TI1_Config), (58 bytes).
    Removing stm32f4xx_tim.o(i.TI2_Config), (80 bytes).
    Removing stm32f4xx_tim.o(i.TI3_Config), (72 bytes).
    Removing stm32f4xx_tim.o(i.TI4_Config), (80 bytes).
    Removing stm32f4xx_tim.o(i.TIM_ARRPreloadConfig), (24 bytes).
    Removing stm32f4xx_tim.o(i.TIM_BDTRConfig), (32 bytes).
    Removing stm32f4xx_tim.o(i.TIM_BDTRStructInit), (18 bytes).
    Removing stm32f4xx_tim.o(i.TIM_CCPreloadControl), (24 bytes).
    Removing stm32f4xx_tim.o(i.TIM_CCxCmd), (30 bytes).
    Removing stm32f4xx_tim.o(i.TIM_CCxNCmd), (30 bytes).
    Removing stm32f4xx_tim.o(i.TIM_ClearFlag), (6 bytes).
    Removing stm32f4xx_tim.o(i.TIM_ClearOC1Ref), (18 bytes).
    Removing stm32f4xx_tim.o(i.TIM_ClearOC2Ref), (24 bytes).
    Removing stm32f4xx_tim.o(i.TIM_ClearOC3Ref), (18 bytes).
    Removing stm32f4xx_tim.o(i.TIM_ClearOC4Ref), (24 bytes).
    Removing stm32f4xx_tim.o(i.TIM_Cmd), (24 bytes).
    Removing stm32f4xx_tim.o(i.TIM_CounterModeConfig), (18 bytes).
    Removing stm32f4xx_tim.o(i.TIM_CtrlPWMOutputs), (30 bytes).
    Removing stm32f4xx_tim.o(i.TIM_DMACmd), (18 bytes).
    Removing stm32f4xx_tim.o(i.TIM_DMAConfig), (10 bytes).
    Removing stm32f4xx_tim.o(i.TIM_DeInit), (400 bytes).
    Removing stm32f4xx_tim.o(i.TIM_ETRClockMode1Config), (54 bytes).
    Removing stm32f4xx_tim.o(i.TIM_ETRClockMode2Config), (32 bytes).
    Removing stm32f4xx_tim.o(i.TIM_ETRConfig), (28 bytes).
    Removing stm32f4xx_tim.o(i.TIM_EncoderInterfaceConfig), (66 bytes).
    Removing stm32f4xx_tim.o(i.TIM_ForcedOC1Config), (18 bytes).
    Removing stm32f4xx_tim.o(i.TIM_ForcedOC2Config), (26 bytes).
    Removing stm32f4xx_tim.o(i.TIM_ForcedOC3Config), (18 bytes).
    Removing stm32f4xx_tim.o(i.TIM_ForcedOC4Config), (26 bytes).
    Removing stm32f4xx_tim.o(i.TIM_GenerateEvent), (4 bytes).
    Removing stm32f4xx_tim.o(i.TIM_GetCapture1), (6 bytes).
    Removing stm32f4xx_tim.o(i.TIM_GetCapture2), (6 bytes).
    Removing stm32f4xx_tim.o(i.TIM_GetCapture3), (6 bytes).
    Removing stm32f4xx_tim.o(i.TIM_GetCapture4), (6 bytes).
    Removing stm32f4xx_tim.o(i.TIM_GetCounter), (6 bytes).
    Removing stm32f4xx_tim.o(i.TIM_GetFlagStatus), (18 bytes).
    Removing stm32f4xx_tim.o(i.TIM_GetPrescaler), (6 bytes).
    Removing stm32f4xx_tim.o(i.TIM_ICInit), (110 bytes).
    Removing stm32f4xx_tim.o(i.TIM_ICStructInit), (18 bytes).
    Removing stm32f4xx_tim.o(i.TIM_ITConfig), (18 bytes).
    Removing stm32f4xx_tim.o(i.TIM_ITRxExternalClockConfig), (24 bytes).
    Removing stm32f4xx_tim.o(i.TIM_InternalClockConfig), (12 bytes).
    Removing stm32f4xx_tim.o(i.TIM_OC1FastConfig), (18 bytes).
    Removing stm32f4xx_tim.o(i.TIM_OC1Init), (124 bytes).
    Removing stm32f4xx_tim.o(i.TIM_OC1NPolarityConfig), (18 bytes).
    Removing stm32f4xx_tim.o(i.TIM_OC1PolarityConfig), (18 bytes).
    Removing stm32f4xx_tim.o(i.TIM_OC1PreloadConfig), (18 bytes).
    Removing stm32f4xx_tim.o(i.TIM_OC2FastConfig), (26 bytes).
    Removing stm32f4xx_tim.o(i.TIM_OC2Init), (164 bytes).
    Removing stm32f4xx_tim.o(i.TIM_OC2NPolarityConfig), (26 bytes).
    Removing stm32f4xx_tim.o(i.TIM_OC2PolarityConfig), (26 bytes).
    Removing stm32f4xx_tim.o(i.TIM_OC2PreloadConfig), (26 bytes).
    Removing stm32f4xx_tim.o(i.TIM_OC3FastConfig), (18 bytes).
    Removing stm32f4xx_tim.o(i.TIM_OC3Init), (160 bytes).
    Removing stm32f4xx_tim.o(i.TIM_OC3NPolarityConfig), (26 bytes).
    Removing stm32f4xx_tim.o(i.TIM_OC3PolarityConfig), (26 bytes).
    Removing stm32f4xx_tim.o(i.TIM_OC3PreloadConfig), (18 bytes).
    Removing stm32f4xx_tim.o(i.TIM_OC4FastConfig), (26 bytes).
    Removing stm32f4xx_tim.o(i.TIM_OC4Init), (120 bytes).
    Removing stm32f4xx_tim.o(i.TIM_OC4PolarityConfig), (26 bytes).
    Removing stm32f4xx_tim.o(i.TIM_OC4PreloadConfig), (26 bytes).
    Removing stm32f4xx_tim.o(i.TIM_OCStructInit), (20 bytes).
    Removing stm32f4xx_tim.o(i.TIM_PWMIConfig), (124 bytes).
    Removing stm32f4xx_tim.o(i.TIM_PrescalerConfig), (6 bytes).
    Removing stm32f4xx_tim.o(i.TIM_RemapConfig), (6 bytes).
    Removing stm32f4xx_tim.o(i.TIM_SelectCCDMA), (24 bytes).
    Removing stm32f4xx_tim.o(i.TIM_SelectCOM), (24 bytes).
    Removing stm32f4xx_tim.o(i.TIM_SelectHallSensor), (24 bytes).
    Removing stm32f4xx_tim.o(i.TIM_SelectInputTrigger), (18 bytes).
    Removing stm32f4xx_tim.o(i.TIM_SelectMasterSlaveMode), (18 bytes).
    Removing stm32f4xx_tim.o(i.TIM_SelectOCxM), (86 bytes).
    Removing stm32f4xx_tim.o(i.TIM_SelectOnePulseMode), (18 bytes).
    Removing stm32f4xx_tim.o(i.TIM_SelectOutputTrigger), (18 bytes).
    Removing stm32f4xx_tim.o(i.TIM_SelectSlaveMode), (18 bytes).
    Removing stm32f4xx_tim.o(i.TIM_SetAutoreload), (4 bytes).
    Removing stm32f4xx_tim.o(i.TIM_SetClockDivision), (18 bytes).
    Removing stm32f4xx_tim.o(i.TIM_SetCompare1), (4 bytes).
    Removing stm32f4xx_tim.o(i.TIM_SetCompare2), (4 bytes).
    Removing stm32f4xx_tim.o(i.TIM_SetCompare3), (4 bytes).
    Removing stm32f4xx_tim.o(i.TIM_SetCompare4), (4 bytes).
    Removing stm32f4xx_tim.o(i.TIM_SetCounter), (4 bytes).
    Removing stm32f4xx_tim.o(i.TIM_SetIC1Prescaler), (18 bytes).
    Removing stm32f4xx_tim.o(i.TIM_SetIC2Prescaler), (26 bytes).
    Removing stm32f4xx_tim.o(i.TIM_SetIC3Prescaler), (18 bytes).
    Removing stm32f4xx_tim.o(i.TIM_SetIC4Prescaler), (26 bytes).
    Removing stm32f4xx_tim.o(i.TIM_TIxExternalClockConfig), (62 bytes).
    Removing stm32f4xx_tim.o(i.TIM_TimeBaseInit), (132 bytes).
    Removing stm32f4xx_tim.o(i.TIM_TimeBaseStructInit), (18 bytes).
    Removing stm32f4xx_tim.o(i.TIM_UpdateDisableConfig), (24 bytes).
    Removing stm32f4xx_tim.o(i.TIM_UpdateRequestConfig), (24 bytes).
    Removing stm32f4xx_usart.o(.rev16_text), (4 bytes).
    Removing stm32f4xx_usart.o(.revsh_text), (4 bytes).
    Removing stm32f4xx_usart.o(.rrx_text), (6 bytes).
    Removing stm32f4xx_usart.o(i.USART_ClearFlag), (18 bytes).
    Removing stm32f4xx_usart.o(i.USART_ClockInit), (32 bytes).
    Removing stm32f4xx_usart.o(i.USART_ClockStructInit), (12 bytes).
    Removing stm32f4xx_usart.o(i.USART_DMACmd), (18 bytes).
    Removing stm32f4xx_usart.o(i.USART_DeInit), (240 bytes).
    Removing stm32f4xx_usart.o(i.USART_HalfDuplexCmd), (24 bytes).
    Removing stm32f4xx_usart.o(i.USART_IrDACmd), (24 bytes).
    Removing stm32f4xx_usart.o(i.USART_IrDAConfig), (18 bytes).
    Removing stm32f4xx_usart.o(i.USART_LINBreakDetectLengthConfig), (18 bytes).
    Removing stm32f4xx_usart.o(i.USART_LINCmd), (24 bytes).
    Removing stm32f4xx_usart.o(i.USART_OneBitMethodCmd), (24 bytes).
    Removing stm32f4xx_usart.o(i.USART_OverSampling8Cmd), (22 bytes).
    Removing stm32f4xx_usart.o(i.USART_ReceiverWakeUpCmd), (24 bytes).
    Removing stm32f4xx_usart.o(i.USART_SendBreak), (10 bytes).
    Removing stm32f4xx_usart.o(i.USART_SetAddress), (18 bytes).
    Removing stm32f4xx_usart.o(i.USART_SetGuardTime), (16 bytes).
    Removing stm32f4xx_usart.o(i.USART_SetPrescaler), (16 bytes).
    Removing stm32f4xx_usart.o(i.USART_SmartCardCmd), (24 bytes).
    Removing stm32f4xx_usart.o(i.USART_SmartCardNACKCmd), (24 bytes).
    Removing stm32f4xx_usart.o(i.USART_StructInit), (24 bytes).
    Removing stm32f4xx_usart.o(i.USART_WakeUpConfig), (18 bytes).
    Removing stm32f4xx_wwdg.o(.rev16_text), (4 bytes).
    Removing stm32f4xx_wwdg.o(.revsh_text), (4 bytes).
    Removing stm32f4xx_wwdg.o(.rrx_text), (6 bytes).
    Removing stm32f4xx_wwdg.o(i.WWDG_ClearFlag), (12 bytes).
    Removing stm32f4xx_wwdg.o(i.WWDG_DeInit), (22 bytes).
    Removing stm32f4xx_wwdg.o(i.WWDG_Enable), (16 bytes).
    Removing stm32f4xx_wwdg.o(i.WWDG_EnableIT), (12 bytes).
    Removing stm32f4xx_wwdg.o(i.WWDG_GetFlagStatus), (20 bytes).
    Removing stm32f4xx_wwdg.o(i.WWDG_SetCounter), (16 bytes).
    Removing stm32f4xx_wwdg.o(i.WWDG_SetPrescaler), (24 bytes).
    Removing stm32f4xx_wwdg.o(i.WWDG_SetWindowValue), (40 bytes).
    Removing system_stm32f4xx.o(.rev16_text), (4 bytes).
    Removing system_stm32f4xx.o(.revsh_text), (4 bytes).
    Removing system_stm32f4xx.o(.rrx_text), (6 bytes).
    Removing main.o(.ARM.exidx), (8 bytes).
    Removing main.o(.ARM.exidx), (8 bytes).
    Removing main.o(.ARM.exidx), (8 bytes).
    Removing main.o(.ARM.exidx), (8 bytes).
    Removing main.o(.ARM.exidx), (8 bytes).
    Removing main.o(.ARM.exidx), (8 bytes).
    Removing main.o(.ARM.exidx), (8 bytes).
    Removing main.o(.ARM.exidx), (8 bytes).
    Removing main.o(.ARM.exidx), (8 bytes).
    Removing main.o(.ARM.exidx), (8 bytes).
    Removing main.o(.ARM.exidx), (8 bytes).
    Removing main.o(.ARM.exidx), (8 bytes).
    Removing main.o(.ARM.exidx), (8 bytes).
    Removing main.o(.ARM.exidx), (8 bytes).
    Removing main.o(.ARM.exidx), (8 bytes).
    Removing main.o(.ARM.exidx), (8 bytes).
    Removing main.o(.ARM.exidx), (8 bytes).
    Removing main.o(.ARM.exidx), (8 bytes).
    Removing main.o(.ARM.exidx), (8 bytes).
    Removing main.o(.ARM.exidx), (8 bytes).
    Removing main.o(.ARM.exidx), (8 bytes).
    Removing main.o(.ARM.exidx), (8 bytes).
    Removing main.o(.ARM.exidx), (8 bytes).
